

Microchip MPLAB XC8 Assembler V2.32 build 20210201212658 
                                                                                               Thu Apr 29 09:59:22 2021

Microchip MPLAB XC8 C Compiler v2.32 (Free license) build 20210201212658 Og1 
     1                           	processor	18F45K42
     2                           	fnconf	rparam,??,?,0
     3                           	pagewidth 120
     4                           	opt	flic
     5                           	psect	idataCOMRAM,global,class=CODE,delta=1,noexec
     6                           	psect	idataBANK0,global,class=CODE,delta=1,noexec
     7                           	psect	idataBANK1,global,class=CODE,delta=1,noexec
     8                           	psect	mediumconst,global,reloc=2,class=MEDIUMCONST,delta=1,noexec
     9                           	psect	nvCOMRAM,global,class=COMRAM,space=1,delta=1,lowdata,noexec
    10                           	psect	nvBANK0,global,class=BANK0,space=1,delta=1,lowdata,noexec
    11                           	psect	nvBANK1,global,class=BANK1,space=1,delta=1,lowdata,noexec
    12                           	psect	nvBANK2,global,class=BANK2,space=1,delta=1,lowdata,noexec
    13                           	psect	cinit,global,reloc=2,class=CODE,delta=1
    14                           	psect	bssCOMRAM,global,class=COMRAM,space=1,delta=1,lowdata,noexec
    15                           	psect	dataCOMRAM,global,class=COMRAM,space=1,delta=1,lowdata,noexec
    16                           	psect	bssBANK0,global,class=BANK0,space=1,delta=1,lowdata,noexec
    17                           	psect	dataBANK0,global,class=BANK0,space=1,delta=1,lowdata,noexec
    18                           	psect	bssBANK1,global,class=BANK1,space=1,delta=1,lowdata,noexec
    19                           	psect	dataBANK1,global,class=BANK1,space=1,delta=1,lowdata,noexec
    20                           	psect	bssBANK2,global,class=BANK2,space=1,delta=1,lowdata,noexec
    21                           	psect	bssBANK3,global,class=BANK3,space=1,delta=1,lowdata,noexec
    22                           	psect	bssBANK4,global,class=BANK4,space=1,delta=1,lowdata,noexec
    23                           	psect	bssBANK5,global,class=BANK5,space=1,delta=1,lowdata,noexec
    24                           	psect	bssBIGRAM,global,class=BIGRAM,space=1,delta=1,noexec
    25                           	psect	cstackBANK3,global,class=BANK3,space=1,delta=1,lowdata,noexec
    26                           	psect	cstackBANK2,global,class=BANK2,space=1,delta=1,lowdata,noexec
    27                           	psect	cstackBANK0,global,class=BANK0,space=1,delta=1,lowdata,noexec
    28                           	psect	cstackCOMRAM,global,class=COMRAM,space=1,delta=1,lowdata,noexec
    29                           	psect	text0,global,reloc=2,class=CODE,delta=1
    30                           	psect	text1,global,reloc=2,class=CODE,delta=1
    31                           	psect	text2,global,reloc=2,class=CODE,delta=1
    32                           	psect	text3,global,reloc=2,class=CODE,delta=1
    33                           	psect	text4,global,reloc=2,class=CODE,delta=1
    34                           	psect	text5,global,reloc=2,class=CODE,delta=1
    35                           	psect	text6,global,reloc=2,class=CODE,delta=1
    36                           	psect	text7,global,reloc=2,class=CODE,delta=1
    37                           	psect	text8,global,reloc=2,class=CODE,delta=1
    38                           	psect	text9,global,reloc=2,class=CODE,delta=1
    39                           	psect	text10,global,reloc=2,class=CODE,delta=1
    40                           	psect	text11,global,reloc=2,class=CODE,delta=1
    41                           	psect	text12,global,reloc=2,class=CODE,delta=1
    42                           	psect	text13,global,reloc=2,class=CODE,delta=1
    43                           	psect	text14,global,reloc=2,class=CODE,delta=1
    44                           	psect	text15,global,reloc=2,class=CODE,delta=1
    45                           	psect	text16,global,reloc=2,class=CODE,delta=1
    46                           	psect	text17,global,reloc=2,class=CODE,delta=1
    47                           	psect	text18,global,reloc=2,class=CODE,delta=1
    48                           	psect	text19,global,reloc=2,class=CODE,delta=1
    49                           	psect	text20,global,reloc=2,class=CODE,delta=1
    50                           	psect	text21,global,reloc=2,class=CODE,delta=1
    51                           	psect	text22,global,reloc=2,class=CODE,delta=1
    52                           	psect	text23,global,reloc=2,class=CODE,delta=1
    53                           	psect	text24,global,reloc=2,class=CODE,delta=1,group=1
    54                           	psect	text25,global,reloc=2,class=CODE,delta=1
    55                           	psect	text26,global,reloc=2,class=CODE,delta=1
    56                           	psect	text27,global,reloc=2,class=CODE,delta=1
    57                           	psect	text28,global,reloc=2,class=CODE,delta=1
    58                           	psect	text29,global,reloc=2,class=CODE,delta=1
    59                           	psect	text30,global,reloc=2,class=CODE,delta=1
    60                           	psect	text31,global,reloc=2,class=CODE,delta=1
    61                           	psect	text32,global,reloc=2,class=CODE,delta=1
    62                           	psect	text33,global,reloc=2,class=CODE,delta=1
    63                           	psect	text34,global,reloc=2,class=CODE,delta=1
    64                           	psect	text35,global,reloc=2,class=CODE,delta=1
    65                           	psect	text36,global,reloc=2,class=CODE,delta=1
    66                           	psect	text37,global,reloc=2,class=CODE,delta=1
    67                           	psect	text38,global,reloc=2,class=CODE,delta=1
    68                           	psect	text39,global,reloc=2,class=CODE,delta=1
    69                           	psect	text40,global,reloc=2,class=CODE,delta=1
    70                           	psect	text41,global,reloc=2,class=CODE,delta=1
    71                           	psect	text42,global,reloc=2,class=CODE,delta=1
    72                           	psect	text43,global,reloc=2,class=CODE,delta=1
    73                           	psect	text44,global,reloc=2,class=CODE,delta=1
    74                           	psect	text45,global,reloc=2,class=CODE,delta=1
    75                           	psect	text46,global,reloc=2,class=CODE,delta=1
    76                           	psect	text47,global,reloc=2,class=CODE,delta=1
    77                           	psect	text48,global,reloc=2,class=CODE,delta=1
    78                           	psect	text49,global,reloc=2,class=CODE,delta=1
    79                           	psect	text50,global,reloc=2,class=CODE,delta=1
    80                           	psect	text51,global,reloc=2,class=CODE,delta=1
    81                           	psect	text52,global,reloc=2,class=CODE,delta=1
    82                           	psect	text53,global,reloc=2,class=CODE,delta=1
    83                           	psect	text54,global,reloc=2,class=CODE,delta=1,inline
    84                           	psect	text55,global,reloc=2,class=CODE,delta=1
    85                           	psect	text56,global,reloc=2,class=CODE,delta=1
    86                           	psect	text57,global,reloc=2,class=CODE,delta=1
    87                           	psect	text58,global,reloc=2,class=CODE,delta=1
    88                           	psect	text59,global,reloc=2,class=CODE,delta=1
    89                           	psect	text60,global,reloc=2,class=CODE,delta=1
    90                           	psect	text61,global,reloc=2,class=CODE,delta=1
    91                           	psect	text62,global,reloc=2,class=CODE,delta=1
    92                           	psect	text63,global,reloc=2,class=CODE,delta=1
    93                           	psect	text64,global,reloc=2,class=CODE,delta=1
    94                           	psect	text65,global,reloc=2,class=CODE,delta=1
    95                           	psect	text66,global,reloc=2,class=CODE,delta=1
    96                           	psect	text67,global,reloc=2,class=CODE,delta=1
    97                           	psect	text68,global,reloc=2,class=CODE,delta=1
    98                           	psect	text69,global,reloc=2,class=CODE,delta=1
    99                           	psect	text70,global,reloc=2,class=CODE,delta=1
   100                           	psect	text71,global,reloc=2,class=CODE,delta=1
   101                           	psect	text72,global,reloc=2,class=CODE,delta=1
   102                           	psect	text73,global,reloc=2,class=CODE,delta=1
   103                           	psect	text74,global,reloc=2,class=CODE,delta=1,inline
   104                           	psect	text75,global,reloc=2,class=CODE,delta=1,inline
   105                           	psect	text76,global,reloc=2,class=CODE,delta=1,inline
   106                           	psect	text77,global,reloc=2,class=CODE,delta=1,inline
   107                           	psect	text78,global,reloc=2,class=CODE,delta=1,inline
   108                           	psect	text79,global,reloc=2,class=CODE,delta=1,inline
   109                           	psect	text80,global,reloc=2,class=CODE,delta=1,inline
   110                           	psect	text81,global,reloc=2,class=CODE,delta=1,inline
   111                           	psect	text82,global,reloc=2,class=CODE,delta=1,inline
   112                           	psect	text83,global,reloc=2,class=CODE,delta=1,inline
   113                           	psect	text84,global,reloc=2,class=CODE,delta=1,inline
   114                           	psect	text85,global,reloc=2,class=CODE,delta=1,inline
   115                           	psect	text86,global,reloc=2,class=CODE,delta=1,inline
   116                           	psect	text87,global,reloc=2,class=CODE,delta=1,inline
   117                           	psect	text88,global,reloc=2,class=CODE,delta=1
   118                           	psect	text89,global,reloc=2,class=CODE,delta=1
   119                           	psect	text90,global,reloc=2,class=CODE,delta=1,inline
   120                           	psect	text91,global,reloc=2,class=CODE,delta=1,inline
   121                           	psect	text92,global,reloc=2,class=CODE,delta=1,inline
   122                           	psect	text93,global,reloc=2,class=CODE,delta=1,inline
   123                           	psect	text94,global,reloc=2,class=CODE,delta=1,inline
   124                           	psect	text95,global,reloc=2,class=CODE,delta=1,inline
   125                           	psect	text96,global,reloc=2,class=CODE,delta=1,inline
   126                           	psect	text97,global,reloc=2,class=CODE,delta=1
   127                           	psect	text98,global,reloc=2,class=CODE,delta=1
   128                           	psect	text99,global,reloc=2,class=CODE,delta=1,inline
   129                           	psect	text100,global,reloc=2,class=CODE,delta=1
   130                           	psect	text101,global,reloc=2,class=CODE,delta=1
   131                           	psect	text102,global,reloc=2,class=CODE,delta=1
   132                           	psect	text103,global,reloc=2,class=CODE,delta=1
   133                           	psect	text104,global,reloc=2,class=CODE,delta=1
   134                           	psect	text105,global,reloc=2,class=CODE,delta=1
   135                           	psect	text106,global,reloc=2,class=CODE,delta=1
   136                           	psect	text107,global,reloc=2,class=CODE,delta=1
   137                           	psect	text108,global,reloc=2,class=CODE,delta=1
   138                           	psect	text109,global,reloc=2,class=CODE,delta=1
   139                           	psect	text110,global,reloc=2,class=CODE,delta=1
   140                           	psect	text111,global,reloc=2,class=CODE,delta=1
   141                           	psect	text112,global,reloc=2,class=CODE,delta=1
   142                           	psect	text113,global,reloc=2,class=CODE,delta=1
   143                           	psect	text114,global,reloc=2,class=CODE,delta=1
   144                           	psect	text115,global,reloc=2,class=CODE,delta=1
   145                           	psect	text116,global,reloc=2,class=CODE,delta=1
   146                           	psect	text117,global,reloc=2,class=CODE,delta=1
   147                           	psect	text118,global,reloc=2,class=CODE,delta=1
   148                           	psect	text119,global,reloc=2,class=CODE,delta=1,inline
   149                           	psect	text120,global,reloc=2,class=CODE,delta=1,inline
   150                           	psect	text121,global,reloc=2,class=CODE,delta=1,inline
   151                           	psect	text122,global,reloc=2,class=CODE,delta=1,inline
   152                           	psect	text123,global,reloc=2,class=CODE,delta=1,inline
   153                           	psect	text124,global,reloc=2,class=CODE,delta=1,inline
   154                           	psect	text125,global,reloc=2,class=CODE,delta=1,inline
   155                           	psect	text126,global,reloc=2,class=CODE,delta=1,inline
   156                           	psect	text127,global,reloc=2,class=CODE,delta=1,inline
   157                           	psect	text128,global,reloc=2,class=CODE,delta=1,inline
   158                           	psect	text129,global,reloc=2,class=CODE,delta=1,inline
   159                           	psect	text130,global,reloc=2,class=CODE,delta=1,inline
   160                           	psect	text131,global,reloc=2,class=CODE,delta=1,inline
   161                           	psect	text132,global,reloc=2,class=CODE,delta=1,inline
   162                           	psect	text133,global,reloc=2,class=CODE,delta=1
   163                           	psect	text134,global,reloc=2,class=CODE,delta=1
   164                           	psect	text135,global,reloc=2,class=CODE,delta=1,inline
   165                           	psect	text136,global,reloc=2,class=CODE,delta=1,inline
   166                           	psect	text137,global,reloc=2,class=CODE,delta=1,inline
   167                           	psect	text138,global,reloc=2,class=CODE,delta=1,inline
   168                           	psect	text139,global,reloc=2,class=CODE,delta=1,inline
   169                           	psect	text140,global,reloc=2,class=CODE,delta=1,inline
   170                           	psect	text141,global,reloc=2,class=CODE,delta=1,inline
   171                           	psect	text142,global,reloc=2,class=CODE,delta=1
   172                           	psect	text143,global,reloc=2,class=CODE,delta=1
   173                           	psect	text144,global,reloc=2,class=CODE,delta=1
   174                           	psect	text145,global,reloc=2,class=CODE,delta=1
   175                           	psect	text146,global,reloc=2,class=CODE,delta=1
   176                           	psect	ivt0x8,global,reloc=2,class=CODE,delta=1,noexec,keep,optim=
   177                           	psect	intsave_regs,global,class=BIGRAM,space=1,delta=1,noexec
   178                           	psect	text147,global,reloc=2,class=CODE,delta=1
   179                           	psect	rparam,global,class=COMRAM,space=1,delta=1,noexec
   180                           	psect	idloc,global,abs,ovrld,class=IDLOC,space=5,delta=1,noexec
   181                           	psect	config,global,abs,ovrld,class=CONFIG,space=4,delta=1,noexec
   182  0000                     
   183                           ; Version 2.20
   184                           ; Generated 05/05/2020 GMT
   185                           ; 
   186                           ; Copyright © 2020, Microchip Technology Inc. and its subsidiaries ("Microchip")
   187                           ; All rights reserved.
   188                           ; 
   189                           ; This software is developed by Microchip Technology Inc. and its subsidiaries ("Microch
      +                          ip").
   190                           ; 
   191                           ; Redistribution and use in source and binary forms, with or without modification, are
   192                           ; permitted provided that the following conditions are met:
   193                           ; 
   194                           ;     1. Redistributions of source code must retain the above copyright notice, this lis
      +                          t of
   195                           ;        conditions and the following disclaimer.
   196                           ; 
   197                           ;     2. Redistributions in binary form must reproduce the above copyright notice, this 
      +                          list
   198                           ;        of conditions and the following disclaimer in the documentation and/or other
   199                           ;        materials provided with the distribution.
   200                           ; 
   201                           ;     3. Microchip's name may not be used to endorse or promote products derived from th
      +                          is
   202                           ;        software without specific prior written permission.
   203                           ; 
   204                           ; THIS SOFTWARE IS PROVIDED BY MICROCHIP "AS IS" AND ANY EXPRESS OR IMPLIED WARRANTIES,
   205                           ; INCLUDING, BUT NOT LIMITED TO, THE IMPLIED WARRANTIES OF MERCHANTABILITY AND FITNESS F
      +                          OR
   206                           ; PURPOSE ARE DISCLAIMED.  IN NO EVENT SHALL MICROCHIP BE LIABLE FOR ANY DIRECT, INDIREC
      +                          T,
   207                           ; INCIDENTAL, SPECIAL, EXEMPLARY, OR CONSEQUENTIAL DAMAGES (INCLUDING BUT NOT LIMITED TO
   208                           ; PROCUREMENT OF SUBSTITUTE GOODS OR SERVICES; LOSS OF USE, DATA OR PROFITS; OR BUSINESS
   209                           ; INTERRUPTION) HOWSOEVER CAUSED AND ON ANY THEORY OF LIABILITY, WHETHER IN CONTRACT, ST
      +                          RICT
   210                           ; LIABILITY, OR TORT (INCLUDING NEGLIGENCE OR OTHERWISE) ARISING IN ANY WAY OUT OF THE U
      +                          SE OF
   211                           ; THIS SOFTWARE, EVEN IF ADVISED OF THE POSSIBILITY OF SUCH DAMAGE.
   212                           ; 
   213                           ; 
   214                           ; Code-generator required, PIC18F45K42 Definitions
   215                           ; 
   216                           ; SFR Addresses
   217  0000                     
   218 ;; Function _UART1_DefaultFramingErrorHandler is unused but had its address taken
   219  0000                     
   220 ;; Function _UART1_DefaultOverrunErrorHandler is unused but had its address taken
   221  0000                     
   222 ;; Function _UART1_DefaultErrorHandler is unused but had its address taken
   223  0000                     
   224 ;; Function _UART2_DefaultFramingErrorHandler is unused but had its address taken
   225  0000                     
   226 ;; Function _UART2_DefaultOverrunErrorHandler is unused but had its address taken
   227  0000                     
   228 ;; Function _UART2_DefaultErrorHandler is unused but had its address taken
   229  0000                     
   230                           	psect	idataCOMRAM
   231  001D44                     __pidataCOMRAM:
   232                           	callstack 0
   233                           
   234                           ;initializer for _finish
   235  001D44  01                 	db	1
   236                           
   237                           	psect	idataBANK0
   238  001D3C                     __pidataBANK0:
   239                           	callstack 0
   240                           
   241                           ;initializer for _modbus_address
   242  001D3C  02                 	db	2
   243                           
   244                           ;initializer for _set
   245  001D3D  01                 	db	1
   246                           
   247                           ;initializer for _readDataSensor
   248  001D3E  03                 	db	3
   249                           
   250                           	psect	idataBANK1
   251  0018B2                     __pidataBANK1:
   252                           	callstack 0
   253                           
   254                           ;initializer for _key
   255  0018B2  31                 	db	49
   256  0018B3  00                 	db	0
   257  0018B4  00                 	db	0
   258  0018B5  00                 	db	0
   259  0018B6  00                 	db	0
   260  0018B7  00                 	db	0
   261  0018B8  00                 	db	0
   262  0018B9  00                 	db	0
   263  0018BA  00                 	db	0
   264  0018BB  00                 	db	0
   265  0018BC  00                 	db	0
   266  0018BD  00                 	db	0
   267  0018BE  00                 	db	0
   268  0018BF  00                 	db	0
   269  0018C0  00                 	db	0
   270  0018C1  00                 	db	0
   271                           
   272                           ;initializer for _check
   273  0018C2  C1                 	db	193
   274  0018C3  00                 	db	0
   275  0018C4  09                 	db	9
   276  0018C5  FF                 	db	255
   277  0018C6  FF                 	db	255
   278  0018C7  00                 	db	0
   279  0018C8  62                 	db	98
   280  0018C9  00                 	db	0
   281  0018CA  17                 	db	23
   282  0018CB  03                 	db	3
   283  0018CC  00                 	db	0
   284  0018CD  00                 	db	0
   285                           
   286                           	psect	mediumconst
   287  007DBE                     __pmediumconst:
   288                           	callstack 0
   289  007DBE  00                 	db	0
   290  007DBF                     _modbus_auchCRCLo:
   291                           	callstack 0
   292  007DBF  00                 	db	0
   293  007DC0  C0                 	db	192
   294  007DC1  C1                 	db	193
   295  007DC2  01                 	db	1
   296  007DC3  C3                 	db	195
   297  007DC4  03                 	db	3
   298  007DC5  02                 	db	2
   299  007DC6  C2                 	db	194
   300  007DC7  C6                 	db	198
   301  007DC8  06                 	db	6
   302  007DC9  07                 	db	7
   303  007DCA  C7                 	db	199
   304  007DCB  05                 	db	5
   305  007DCC  C5                 	db	197
   306  007DCD  C4                 	db	196
   307  007DCE  04                 	db	4
   308  007DCF  CC                 	db	204
   309  007DD0  0C                 	db	12
   310  007DD1  0D                 	db	13
   311  007DD2  CD                 	db	205
   312  007DD3  0F                 	db	15
   313  007DD4  CF                 	db	207
   314  007DD5  CE                 	db	206
   315  007DD6  0E                 	db	14
   316  007DD7  0A                 	db	10
   317  007DD8  CA                 	db	202
   318  007DD9  CB                 	db	203
   319  007DDA  0B                 	db	11
   320  007DDB  C9                 	db	201
   321  007DDC  09                 	db	9
   322  007DDD  08                 	db	8
   323  007DDE  C8                 	db	200
   324  007DDF  D8                 	db	216
   325  007DE0  18                 	db	24
   326  007DE1  19                 	db	25
   327  007DE2  D9                 	db	217
   328  007DE3  1B                 	db	27
   329  007DE4  DB                 	db	219
   330  007DE5  DA                 	db	218
   331  007DE6  1A                 	db	26
   332  007DE7  1E                 	db	30
   333  007DE8  DE                 	db	222
   334  007DE9  DF                 	db	223
   335  007DEA  1F                 	db	31
   336  007DEB  DD                 	db	221
   337  007DEC  1D                 	db	29
   338  007DED  1C                 	db	28
   339  007DEE  DC                 	db	220
   340  007DEF  14                 	db	20
   341  007DF0  D4                 	db	212
   342  007DF1  D5                 	db	213
   343  007DF2  15                 	db	21
   344  007DF3  D7                 	db	215
   345  007DF4  17                 	db	23
   346  007DF5  16                 	db	22
   347  007DF6  D6                 	db	214
   348  007DF7  D2                 	db	210
   349  007DF8  12                 	db	18
   350  007DF9  13                 	db	19
   351  007DFA  D3                 	db	211
   352  007DFB  11                 	db	17
   353  007DFC  D1                 	db	209
   354  007DFD  D0                 	db	208
   355  007DFE  10                 	db	16
   356  007DFF  F0                 	db	240
   357  007E00  30                 	db	48
   358  007E01  31                 	db	49
   359  007E02  F1                 	db	241
   360  007E03  33                 	db	51
   361  007E04  F3                 	db	243
   362  007E05  F2                 	db	242
   363  007E06  32                 	db	50
   364  007E07  36                 	db	54
   365  007E08  F6                 	db	246
   366  007E09  F7                 	db	247
   367  007E0A  37                 	db	55
   368  007E0B  F5                 	db	245
   369  007E0C  35                 	db	53
   370  007E0D  34                 	db	52
   371  007E0E  F4                 	db	244
   372  007E0F  3C                 	db	60
   373  007E10  FC                 	db	252
   374  007E11  FD                 	db	253
   375  007E12  3D                 	db	61
   376  007E13  FF                 	db	255
   377  007E14  3F                 	db	63
   378  007E15  3E                 	db	62
   379  007E16  FE                 	db	254
   380  007E17  FA                 	db	250
   381  007E18  3A                 	db	58
   382  007E19  3B                 	db	59
   383  007E1A  FB                 	db	251
   384  007E1B  39                 	db	57
   385  007E1C  F9                 	db	249
   386  007E1D  F8                 	db	248
   387  007E1E  38                 	db	56
   388  007E1F  28                 	db	40
   389  007E20  E8                 	db	232
   390  007E21  E9                 	db	233
   391  007E22  29                 	db	41
   392  007E23  EB                 	db	235
   393  007E24  2B                 	db	43
   394  007E25  2A                 	db	42
   395  007E26  EA                 	db	234
   396  007E27  EE                 	db	238
   397  007E28  2E                 	db	46
   398  007E29  2F                 	db	47
   399  007E2A  EF                 	db	239
   400  007E2B  2D                 	db	45
   401  007E2C  ED                 	db	237
   402  007E2D  EC                 	db	236
   403  007E2E  2C                 	db	44
   404  007E2F  E4                 	db	228
   405  007E30  24                 	db	36
   406  007E31  25                 	db	37
   407  007E32  E5                 	db	229
   408  007E33  27                 	db	39
   409  007E34  E7                 	db	231
   410  007E35  E6                 	db	230
   411  007E36  26                 	db	38
   412  007E37  22                 	db	34
   413  007E38  E2                 	db	226
   414  007E39  E3                 	db	227
   415  007E3A  23                 	db	35
   416  007E3B  E1                 	db	225
   417  007E3C  21                 	db	33
   418  007E3D  20                 	db	32
   419  007E3E  E0                 	db	224
   420  007E3F  A0                 	db	160
   421  007E40  60                 	db	96
   422  007E41  61                 	db	97
   423  007E42  A1                 	db	161
   424  007E43  63                 	db	99
   425  007E44  A3                 	db	163
   426  007E45  A2                 	db	162
   427  007E46  62                 	db	98
   428  007E47  66                 	db	102
   429  007E48  A6                 	db	166
   430  007E49  A7                 	db	167
   431  007E4A  67                 	db	103
   432  007E4B  A5                 	db	165
   433  007E4C  65                 	db	101
   434  007E4D  64                 	db	100
   435  007E4E  A4                 	db	164
   436  007E4F  6C                 	db	108
   437  007E50  AC                 	db	172
   438  007E51  AD                 	db	173
   439  007E52  6D                 	db	109
   440  007E53  AF                 	db	175
   441  007E54  6F                 	db	111
   442  007E55  6E                 	db	110
   443  007E56  AE                 	db	174
   444  007E57  AA                 	db	170
   445  007E58  6A                 	db	106
   446  007E59  6B                 	db	107
   447  007E5A  AB                 	db	171
   448  007E5B  69                 	db	105
   449  007E5C  A9                 	db	169
   450  007E5D  A8                 	db	168
   451  007E5E  68                 	db	104
   452  007E5F  78                 	db	120
   453  007E60  B8                 	db	184
   454  007E61  B9                 	db	185
   455  007E62  79                 	db	121
   456  007E63  BB                 	db	187
   457  007E64  7B                 	db	123
   458  007E65  7A                 	db	122
   459  007E66  BA                 	db	186
   460  007E67  BE                 	db	190
   461  007E68  7E                 	db	126
   462  007E69  7F                 	db	127
   463  007E6A  BF                 	db	191
   464  007E6B  7D                 	db	125
   465  007E6C  BD                 	db	189
   466  007E6D  BC                 	db	188
   467  007E6E  7C                 	db	124
   468  007E6F  B4                 	db	180
   469  007E70  74                 	db	116
   470  007E71  75                 	db	117
   471  007E72  B5                 	db	181
   472  007E73  77                 	db	119
   473  007E74  B7                 	db	183
   474  007E75  B6                 	db	182
   475  007E76  76                 	db	118
   476  007E77  72                 	db	114
   477  007E78  B2                 	db	178
   478  007E79  B3                 	db	179
   479  007E7A  73                 	db	115
   480  007E7B  B1                 	db	177
   481  007E7C  71                 	db	113
   482  007E7D  70                 	db	112
   483  007E7E  B0                 	db	176
   484  007E7F  50                 	db	80
   485  007E80  90                 	db	144
   486  007E81  91                 	db	145
   487  007E82  51                 	db	81
   488  007E83  93                 	db	147
   489  007E84  53                 	db	83
   490  007E85  52                 	db	82
   491  007E86  92                 	db	146
   492  007E87  96                 	db	150
   493  007E88  56                 	db	86
   494  007E89  57                 	db	87
   495  007E8A  97                 	db	151
   496  007E8B  55                 	db	85
   497  007E8C  95                 	db	149
   498  007E8D  94                 	db	148
   499  007E8E  54                 	db	84
   500  007E8F  9C                 	db	156
   501  007E90  5C                 	db	92
   502  007E91  5D                 	db	93
   503  007E92  9D                 	db	157
   504  007E93  5F                 	db	95
   505  007E94  9F                 	db	159
   506  007E95  9E                 	db	158
   507  007E96  5E                 	db	94
   508  007E97  5A                 	db	90
   509  007E98  9A                 	db	154
   510  007E99  9B                 	db	155
   511  007E9A  5B                 	db	91
   512  007E9B  99                 	db	153
   513  007E9C  59                 	db	89
   514  007E9D  58                 	db	88
   515  007E9E  98                 	db	152
   516  007E9F  88                 	db	136
   517  007EA0  48                 	db	72
   518  007EA1  49                 	db	73
   519  007EA2  89                 	db	137
   520  007EA3  4B                 	db	75
   521  007EA4  8B                 	db	139
   522  007EA5  8A                 	db	138
   523  007EA6  4A                 	db	74
   524  007EA7  4E                 	db	78
   525  007EA8  8E                 	db	142
   526  007EA9  8F                 	db	143
   527  007EAA  4F                 	db	79
   528  007EAB  8D                 	db	141
   529  007EAC  4D                 	db	77
   530  007EAD  4C                 	db	76
   531  007EAE  8C                 	db	140
   532  007EAF  44                 	db	68
   533  007EB0  84                 	db	132
   534  007EB1  85                 	db	133
   535  007EB2  45                 	db	69
   536  007EB3  87                 	db	135
   537  007EB4  47                 	db	71
   538  007EB5  46                 	db	70
   539  007EB6  86                 	db	134
   540  007EB7  82                 	db	130
   541  007EB8  42                 	db	66
   542  007EB9  43                 	db	67
   543  007EBA  83                 	db	131
   544  007EBB  41                 	db	65
   545  007EBC  81                 	db	129
   546  007EBD  80                 	db	128
   547  007EBE  40                 	db	64
   548  007EBF                     __end_of_modbus_auchCRCLo:
   549                           	callstack 0
   550  007EBF                     _modbus_auchCRCHi:
   551                           	callstack 0
   552  007EBF  00                 	db	0
   553  007EC0  C1                 	db	193
   554  007EC1  81                 	db	129
   555  007EC2  40                 	db	64
   556  007EC3  01                 	db	1
   557  007EC4  C0                 	db	192
   558  007EC5  80                 	db	128
   559  007EC6  41                 	db	65
   560  007EC7  01                 	db	1
   561  007EC8  C0                 	db	192
   562  007EC9  80                 	db	128
   563  007ECA  41                 	db	65
   564  007ECB  00                 	db	0
   565  007ECC  C1                 	db	193
   566  007ECD  81                 	db	129
   567  007ECE  40                 	db	64
   568  007ECF  01                 	db	1
   569  007ED0  C0                 	db	192
   570  007ED1  80                 	db	128
   571  007ED2  41                 	db	65
   572  007ED3  00                 	db	0
   573  007ED4  C1                 	db	193
   574  007ED5  81                 	db	129
   575  007ED6  40                 	db	64
   576  007ED7  00                 	db	0
   577  007ED8  C1                 	db	193
   578  007ED9  81                 	db	129
   579  007EDA  40                 	db	64
   580  007EDB  01                 	db	1
   581  007EDC  C0                 	db	192
   582  007EDD  80                 	db	128
   583  007EDE  41                 	db	65
   584  007EDF  01                 	db	1
   585  007EE0  C0                 	db	192
   586  007EE1  80                 	db	128
   587  007EE2  41                 	db	65
   588  007EE3  00                 	db	0
   589  007EE4  C1                 	db	193
   590  007EE5  81                 	db	129
   591  007EE6  40                 	db	64
   592  007EE7  00                 	db	0
   593  007EE8  C1                 	db	193
   594  007EE9  81                 	db	129
   595  007EEA  40                 	db	64
   596  007EEB  01                 	db	1
   597  007EEC  C0                 	db	192
   598  007EED  80                 	db	128
   599  007EEE  41                 	db	65
   600  007EEF  00                 	db	0
   601  007EF0  C1                 	db	193
   602  007EF1  81                 	db	129
   603  007EF2  40                 	db	64
   604  007EF3  01                 	db	1
   605  007EF4  C0                 	db	192
   606  007EF5  80                 	db	128
   607  007EF6  41                 	db	65
   608  007EF7  01                 	db	1
   609  007EF8  C0                 	db	192
   610  007EF9  80                 	db	128
   611  007EFA  41                 	db	65
   612  007EFB  00                 	db	0
   613  007EFC  C1                 	db	193
   614  007EFD  81                 	db	129
   615  007EFE  40                 	db	64
   616  007EFF  01                 	db	1
   617  007F00  C0                 	db	192
   618  007F01  80                 	db	128
   619  007F02  41                 	db	65
   620  007F03  00                 	db	0
   621  007F04  C1                 	db	193
   622  007F05  81                 	db	129
   623  007F06  40                 	db	64
   624  007F07  00                 	db	0
   625  007F08  C1                 	db	193
   626  007F09  81                 	db	129
   627  007F0A  40                 	db	64
   628  007F0B  01                 	db	1
   629  007F0C  C0                 	db	192
   630  007F0D  80                 	db	128
   631  007F0E  41                 	db	65
   632  007F0F  00                 	db	0
   633  007F10  C1                 	db	193
   634  007F11  81                 	db	129
   635  007F12  40                 	db	64
   636  007F13  01                 	db	1
   637  007F14  C0                 	db	192
   638  007F15  80                 	db	128
   639  007F16  41                 	db	65
   640  007F17  01                 	db	1
   641  007F18  C0                 	db	192
   642  007F19  80                 	db	128
   643  007F1A  41                 	db	65
   644  007F1B  00                 	db	0
   645  007F1C  C1                 	db	193
   646  007F1D  81                 	db	129
   647  007F1E  40                 	db	64
   648  007F1F  00                 	db	0
   649  007F20  C1                 	db	193
   650  007F21  81                 	db	129
   651  007F22  40                 	db	64
   652  007F23  01                 	db	1
   653  007F24  C0                 	db	192
   654  007F25  80                 	db	128
   655  007F26  41                 	db	65
   656  007F27  01                 	db	1
   657  007F28  C0                 	db	192
   658  007F29  80                 	db	128
   659  007F2A  41                 	db	65
   660  007F2B  00                 	db	0
   661  007F2C  C1                 	db	193
   662  007F2D  81                 	db	129
   663  007F2E  40                 	db	64
   664  007F2F  01                 	db	1
   665  007F30  C0                 	db	192
   666  007F31  80                 	db	128
   667  007F32  41                 	db	65
   668  007F33  00                 	db	0
   669  007F34  C1                 	db	193
   670  007F35  81                 	db	129
   671  007F36  40                 	db	64
   672  007F37  00                 	db	0
   673  007F38  C1                 	db	193
   674  007F39  81                 	db	129
   675  007F3A  40                 	db	64
   676  007F3B  01                 	db	1
   677  007F3C  C0                 	db	192
   678  007F3D  80                 	db	128
   679  007F3E  41                 	db	65
   680  007F3F  01                 	db	1
   681  007F40  C0                 	db	192
   682  007F41  80                 	db	128
   683  007F42  41                 	db	65
   684  007F43  00                 	db	0
   685  007F44  C1                 	db	193
   686  007F45  81                 	db	129
   687  007F46  40                 	db	64
   688  007F47  00                 	db	0
   689  007F48  C1                 	db	193
   690  007F49  81                 	db	129
   691  007F4A  40                 	db	64
   692  007F4B  01                 	db	1
   693  007F4C  C0                 	db	192
   694  007F4D  80                 	db	128
   695  007F4E  41                 	db	65
   696  007F4F  00                 	db	0
   697  007F50  C1                 	db	193
   698  007F51  81                 	db	129
   699  007F52  40                 	db	64
   700  007F53  01                 	db	1
   701  007F54  C0                 	db	192
   702  007F55  80                 	db	128
   703  007F56  41                 	db	65
   704  007F57  01                 	db	1
   705  007F58  C0                 	db	192
   706  007F59  80                 	db	128
   707  007F5A  41                 	db	65
   708  007F5B  00                 	db	0
   709  007F5C  C1                 	db	193
   710  007F5D  81                 	db	129
   711  007F5E  40                 	db	64
   712  007F5F  00                 	db	0
   713  007F60  C1                 	db	193
   714  007F61  81                 	db	129
   715  007F62  40                 	db	64
   716  007F63  01                 	db	1
   717  007F64  C0                 	db	192
   718  007F65  80                 	db	128
   719  007F66  41                 	db	65
   720  007F67  01                 	db	1
   721  007F68  C0                 	db	192
   722  007F69  80                 	db	128
   723  007F6A  41                 	db	65
   724  007F6B  00                 	db	0
   725  007F6C  C1                 	db	193
   726  007F6D  81                 	db	129
   727  007F6E  40                 	db	64
   728  007F6F  01                 	db	1
   729  007F70  C0                 	db	192
   730  007F71  80                 	db	128
   731  007F72  41                 	db	65
   732  007F73  00                 	db	0
   733  007F74  C1                 	db	193
   734  007F75  81                 	db	129
   735  007F76  40                 	db	64
   736  007F77  00                 	db	0
   737  007F78  C1                 	db	193
   738  007F79  81                 	db	129
   739  007F7A  40                 	db	64
   740  007F7B  01                 	db	1
   741  007F7C  C0                 	db	192
   742  007F7D  80                 	db	128
   743  007F7E  41                 	db	65
   744  007F7F  00                 	db	0
   745  007F80  C1                 	db	193
   746  007F81  81                 	db	129
   747  007F82  40                 	db	64
   748  007F83  01                 	db	1
   749  007F84  C0                 	db	192
   750  007F85  80                 	db	128
   751  007F86  41                 	db	65
   752  007F87  01                 	db	1
   753  007F88  C0                 	db	192
   754  007F89  80                 	db	128
   755  007F8A  41                 	db	65
   756  007F8B  00                 	db	0
   757  007F8C  C1                 	db	193
   758  007F8D  81                 	db	129
   759  007F8E  40                 	db	64
   760  007F8F  01                 	db	1
   761  007F90  C0                 	db	192
   762  007F91  80                 	db	128
   763  007F92  41                 	db	65
   764  007F93  00                 	db	0
   765  007F94  C1                 	db	193
   766  007F95  81                 	db	129
   767  007F96  40                 	db	64
   768  007F97  00                 	db	0
   769  007F98  C1                 	db	193
   770  007F99  81                 	db	129
   771  007F9A  40                 	db	64
   772  007F9B  01                 	db	1
   773  007F9C  C0                 	db	192
   774  007F9D  80                 	db	128
   775  007F9E  41                 	db	65
   776  007F9F  01                 	db	1
   777  007FA0  C0                 	db	192
   778  007FA1  80                 	db	128
   779  007FA2  41                 	db	65
   780  007FA3  00                 	db	0
   781  007FA4  C1                 	db	193
   782  007FA5  81                 	db	129
   783  007FA6  40                 	db	64
   784  007FA7  00                 	db	0
   785  007FA8  C1                 	db	193
   786  007FA9  81                 	db	129
   787  007FAA  40                 	db	64
   788  007FAB  01                 	db	1
   789  007FAC  C0                 	db	192
   790  007FAD  80                 	db	128
   791  007FAE  41                 	db	65
   792  007FAF  00                 	db	0
   793  007FB0  C1                 	db	193
   794  007FB1  81                 	db	129
   795  007FB2  40                 	db	64
   796  007FB3  01                 	db	1
   797  007FB4  C0                 	db	192
   798  007FB5  80                 	db	128
   799  007FB6  41                 	db	65
   800  007FB7  01                 	db	1
   801  007FB8  C0                 	db	192
   802  007FB9  80                 	db	128
   803  007FBA  41                 	db	65
   804  007FBB  00                 	db	0
   805  007FBC  C1                 	db	193
   806  007FBD  81                 	db	129
   807  007FBE  40                 	db	64
   808  007FBF                     __end_of_modbus_auchCRCHi:
   809                           	callstack 0
   810  007FBF                     _i2c2_fsmStateTable:
   811                           	callstack 0
   812  007FBF  AA                 	db	low _I2C2_DO_IDLE
   813  007FC0  19                 	db	high _I2C2_DO_IDLE
   814  007FC1  F4                 	db	low _I2C2_DO_SEND_ADR_READ
   815  007FC2  15                 	db	high _I2C2_DO_SEND_ADR_READ
   816  007FC3  74                 	db	low _I2C2_DO_SEND_ADR_WRITE
   817  007FC4  18                 	db	high _I2C2_DO_SEND_ADR_WRITE
   818  007FC5  20                 	db	low _I2C2_DO_TX
   819  007FC6  00                 	db	high _I2C2_DO_TX
   820  007FC7  28                 	db	low _I2C2_DO_RX
   821  007FC8  09                 	db	high _I2C2_DO_RX
   822  007FC9  A2                 	db	low _I2C2_DO_TX_EMPTY
   823  007FCA  0B                 	db	high _I2C2_DO_TX_EMPTY
   824  007FCB  7A                 	db	low _I2C2_DO_RX_EMPTY
   825  007FCC  08                 	db	high _I2C2_DO_RX_EMPTY
   826  007FCD  66                 	db	low _I2C2_DO_SEND_RESTART_READ
   827  007FCE  19                 	db	high _I2C2_DO_SEND_RESTART_READ
   828  007FCF  7A                 	db	low _I2C2_DO_SEND_RESTART_WRITE
   829  007FD0  1B                 	db	high _I2C2_DO_SEND_RESTART_WRITE
   830  007FD1  6C                 	db	low _I2C2_DO_SEND_RESTART
   831  007FD2  1B                 	db	high _I2C2_DO_SEND_RESTART
   832  007FD3  94                 	db	low _I2C2_DO_SEND_STOP
   833  007FD4  16                 	db	high _I2C2_DO_SEND_STOP
   834  007FD5  18                 	db	low _I2C2_DO_RX_ACK
   835  007FD6  1B                 	db	high _I2C2_DO_RX_ACK
   836  007FD7  2A                 	db	low _I2C2_DO_TX_ACK
   837  007FD8  1B                 	db	high _I2C2_DO_TX_ACK
   838  007FD9  4E                 	db	low _I2C2_DO_RX_NACK_STOP
   839  007FDA  19                 	db	high _I2C2_DO_RX_NACK_STOP
   840  007FDB  06                 	db	low _I2C2_DO_RX_NACK_RESTART
   841  007FDC  1B                 	db	high _I2C2_DO_RX_NACK_RESTART
   842  007FDD  02                 	db	low _I2C2_DO_RESET
   843  007FDE  19                 	db	high _I2C2_DO_RESET
   844  007FDF  22                 	db	low _I2C2_DO_ADDRESS_NACK
   845  007FE0  0F                 	db	high _I2C2_DO_ADDRESS_NACK
   846  007FE1  2E                 	db	low _I2C2_DO_BUS_COLLISION
   847  007FE2  0D                 	db	high _I2C2_DO_BUS_COLLISION
   848  007FE3  E8                 	db	low _I2C2_DO_BUS_ERROR
   849  007FE4  18                 	db	high _I2C2_DO_BUS_ERROR
   850  007FE5                     __end_of_i2c2_fsmStateTable:
   851                           	callstack 0
   852  007FE5                     _DELTA:
   853                           	callstack 0
   854  007FE5  0001               	dw	1
   855  007FE7  0000               	dw	0
   856  007FE9                     __end_of_DELTA:
   857                           	callstack 0
   858  007FE9  0D                 	db	13
   859  007FEA  0A                 	db	10
   860  007FEB  20                 	db	32
   861  007FEC  20                 	db	32
   862  007FED  62                 	db	98	;'b'
   863  007FEE  72                 	db	114	;'r'
   864  007FEF  65                 	db	101	;'e'
   865  007FF0  61                 	db	97	;'a'
   866  007FF1  6B                 	db	107	;'k'
   867  007FF2  00                 	db	0
   868  007FF3  0D                 	db	13
   869  007FF4  0A                 	db	10
   870  007FF5  20                 	db	32
   871  007FF6  20                 	db	32
   872  007FF7  72                 	db	114	;'r'
   873  007FF8  65                 	db	101	;'e'
   874  007FF9  61                 	db	97	;'a'
   875  007FFA  64                 	db	100	;'d'
   876  007FFB  00                 	db	0
   877  007FFC                     STR_3:
   878  007FFC  25                 	db	37
   879  007FFD  73                 	db	115	;'s'
   880  007FFE  00                 	db	0
   881  007FFF  00                 	db	0	; dummy byte at the end
   882  0000                     
   883                           	psect	nvCOMRAM
   884  000049                     __pnvCOMRAM:
   885                           	callstack 0
   886  000049                     _timer0ReloadVal16bit:
   887                           	callstack 0
   888  000049                     	ds	2
   889                           
   890                           	psect	nvBANK0
   891  0000F2                     __pnvBANK0:
   892                           	callstack 0
   893  0000F2                     _UART1_FramingErrorHandler:
   894                           	callstack 0
   895  0000F2                     	ds	2
   896  0000F4                     _TMR0_InterruptHandler:
   897                           	callstack 0
   898  0000F4                     	ds	2
   899  0000F6                     _UART1_RxInterruptHandler:
   900                           	callstack 0
   901  0000F6                     	ds	2
   902  0000F8                     _UART2_RxInterruptHandler:
   903                           	callstack 0
   904  0000F8                     	ds	2
   905  0000FA                     _modbus_serial_state:
   906                           	callstack 0
   907  0000FA                     	ds	1
   908  0000FB                     _modbus_serial_new:
   909                           	callstack 0
   910  0000FB                     	ds	1
   911                           
   912                           	psect	nvBANK1
   913  0001F8                     __pnvBANK1:
   914                           	callstack 0
   915  0001F8                     _UART2_OverrunErrorHandler:
   916                           	callstack 0
   917  0001F8                     	ds	2
   918  0001FA                     _UART2_FramingErrorHandler:
   919                           	callstack 0
   920  0001FA                     	ds	2
   921  0001FC                     _UART1_ErrorHandler:
   922                           	callstack 0
   923  0001FC                     	ds	2
   924  0001FE                     _UART1_OverrunErrorHandler:
   925                           	callstack 0
   926  0001FE                     	ds	2
   927                           
   928                           	psect	nvBANK2
   929  0002FE                     __pnvBANK2:
   930                           	callstack 0
   931  0002FE                     _UART2_ErrorHandler:
   932                           	callstack 0
   933  0002FE                     	ds	2
   934  0000                     _PMD7	set	14791
   935  0000                     _PMD6	set	14790
   936  0000                     _PMD5	set	14789
   937  0000                     _PMD4	set	14788
   938  0000                     _PMD3	set	14787
   939  0000                     _PMD2	set	14786
   940  0000                     _PMD1	set	14785
   941  0000                     _PMD0	set	14784
   942  0000                     _OSCTUNE	set	14814
   943  0000                     _OSCFRQ	set	14815
   944  0000                     _OSCEN	set	14813
   945  0000                     _OSCCON3	set	14811
   946  0000                     _OSCCON1	set	14809
   947  0000                     _PIR6bits	set	14758
   948  0000                     _PIE6bits	set	14742
   949  0000                     _PIR5bits	set	14757
   950  0000                     _PIE5bits	set	14741
   951  0000                     _IPR2bits	set	14722
   952  0000                     _IPR6bits	set	14726
   953  0000                     _IPR3bits	set	14723
   954  0000                     _PIE3bits	set	14739
   955  0000                     _PIR3bits	set	14755
   956  0000                     _NVMCON2	set	14822
   957  0000                     _NVMDAT	set	14819
   958  0000                     _NVMADRL	set	14816
   959  0000                     _NVMCON1bits	set	14821
   960  0000                     _NVMCON1	set	14821
   961  0000                     _ANSELBbits	set	14928
   962  0000                     _ANSELAbits	set	14912
   963  0000                     _I2C2SDAPPS	set	15076
   964  0000                     _RB2PPS	set	14858
   965  0000                     _RB1PPS	set	14857
   966  0000                     _I2C2SCLPPS	set	15075
   967  0000                     _U1RXPPS	set	15077
   968  0000                     _RC6PPS	set	14870
   969  0000                     _RB6PPS	set	14862
   970  0000                     _U2RXPPS	set	15080
   971  0000                     _INLVLE	set	14980
   972  0000                     _INLVLD	set	14964
   973  0000                     _INLVLC	set	14948
   974  0000                     _INLVLB	set	14932
   975  0000                     _INLVLA	set	14916
   976  0000                     _SLRCONE	set	14979
   977  0000                     _SLRCOND	set	14963
   978  0000                     _SLRCONC	set	14947
   979  0000                     _SLRCONB	set	14931
   980  0000                     _SLRCONA	set	14915
   981  0000                     _ODCOND	set	14962
   982  0000                     _ODCONC	set	14946
   983  0000                     _ODCONB	set	14930
   984  0000                     _ODCONA	set	14914
   985  0000                     _ODCONE	set	14978
   986  0000                     _RD1I2C	set	14971
   987  0000                     _RD0I2C	set	14970
   988  0000                     _RC4I2C	set	14955
   989  0000                     _RC3I2C	set	14954
   990  0000                     _RB2I2C	set	14939
   991  0000                     _RB1I2C	set	14938
   992  0000                     _WPUC	set	14945
   993  0000                     _WPUA	set	14913
   994  0000                     _WPUB	set	14929
   995  0000                     _WPUE	set	14977
   996  0000                     _WPUD	set	14961
   997  0000                     _ANSELA	set	14912
   998  0000                     _ANSELE	set	14976
   999  0000                     _ANSELB	set	14928
  1000  0000                     _ANSELC	set	14944
  1001  0000                     _ANSELD	set	14960
  1002  0000                     _I2C2PIEbits	set	15716
  1003  0000                     _I2C2ERRbits	set	15712
  1004  0000                     _I2C2CON1bits	set	15710
  1005  0000                     _I2C2ERR	set	15712
  1006  0000                     _I2C2PIE	set	15716
  1007  0000                     _I2C2PIR	set	15715
  1008  0000                     _I2C2CLK	set	15717
  1009  0000                     _I2C2CON2	set	15711
  1010  0000                     _I2C2CON1	set	15710
  1011  0000                     _I2C2CON0	set	15709
  1012  0000                     _U2RXB	set	15824
  1013  0000                     _U1RXB	set	15848
  1014  0000                     _U2TXB	set	15826
  1015  0000                     _U2ERRIRbits	set	15841
  1016  0000                     _U2CON0bits	set	15834
  1017  0000                     _U2ERRIE	set	15842
  1018  0000                     _U2ERRIR	set	15841
  1019  0000                     _U2UIR	set	15840
  1020  0000                     _U2FIFO	set	15839
  1021  0000                     _U2BRGH	set	15838
  1022  0000                     _U2BRGL	set	15837
  1023  0000                     _U2CON2	set	15836
  1024  0000                     _U2CON1	set	15835
  1025  0000                     _U2CON0	set	15834
  1026  0000                     _U2P3L	set	15832
  1027  0000                     _U2P2L	set	15830
  1028  0000                     _U2P1L	set	15828
  1029  0000                     _U1TXB	set	15850
  1030  0000                     _U1ERRIRbits	set	15865
  1031  0000                     _U1CON0bits	set	15858
  1032  0000                     _U1ERRIE	set	15866
  1033  0000                     _U1ERRIR	set	15865
  1034  0000                     _U1UIR	set	15864
  1035  0000                     _U1FIFO	set	15863
  1036  0000                     _U1BRGH	set	15862
  1037  0000                     _U1BRGL	set	15861
  1038  0000                     _U1CON2	set	15860
  1039  0000                     _U1CON1	set	15859
  1040  0000                     _U1CON0	set	15858
  1041  0000                     _U1P3H	set	15857
  1042  0000                     _U1P3L	set	15856
  1043  0000                     _U1P2H	set	15855
  1044  0000                     _U1P2L	set	15854
  1045  0000                     _U1P1H	set	15853
  1046  0000                     _U1P1L	set	15852
  1047  0000                     _I2C2TXB	set	15701
  1048  0000                     _I2C2RXB	set	15700
  1049  0000                     _I2C1CON1bits	set	15732
  1050  0000                     _I2C2PIRbits	set	15715
  1051  0000                     _I2C2CNT	set	15702
  1052  0000                     _I2C1CON0bits	set	15731
  1053  0000                     _I2C2STAT1bits	set	15714
  1054  0000                     _I2C2CON0bits	set	15709
  1055  0000                     _I2C1PIRbits	set	15737
  1056  0000                     _LATBbits	set	16315
  1057  0000                     _PORTAbits	set	16330
  1058  0000                     _TRISBbits	set	16323
  1059  0000                     _TRISAbits	set	16322
  1060  0000                     _TRISDbits	set	16325
  1061  0000                     _TRISC	set	16324
  1062  0000                     _TRISB	set	16323
  1063  0000                     _TRISA	set	16322
  1064  0000                     _TRISE	set	16326
  1065  0000                     _LATC	set	16316
  1066  0000                     _LATB	set	16315
  1067  0000                     _LATA	set	16314
  1068  0000                     _LATD	set	16317
  1069  0000                     _LATE	set	16318
  1070  0000                     _LATDbits	set	16317
  1071  0000                     _LATAbits	set	16314
  1072  0000                     _T0CON0bits	set	16312
  1073  0000                     _T0CON0	set	16312
  1074  0000                     _TMR0L	set	16310
  1075  0000                     _TMR0H	set	16311
  1076  0000                     _T0CON1	set	16313
  1077  0000                     _INTCON0bits	set	16338
  1078  0000                     _RB3	set	130651
  1079  0000                     _TRISD4	set	130604
  1080                           
  1081                           ; #config settings
  1082                           
  1083                           	psect	cinit
  1084  000620                     __pcinit:
  1085                           	callstack 0
  1086  000620                     start_initialization:
  1087                           	callstack 0
  1088  000620                     __initialization:
  1089                           	callstack 0
  1090                           
  1091                           ; NVMREG Errata
  1092  000620                     	if	14821
  1093  000620  8EE5               	bsf	229,7,c
  1094  000622  9CE5               	bcf	229,6,c
  1095  000624                     	endif
  1096                           
  1097                           ; Initialize objects allocated to BANK1 (28 bytes)
  1098                           ; load TBLPTR registers with __pidataBANK1
  1099  000624  0EB2               	movlw	low __pidataBANK1
  1100  000626  6EF6               	movwf	tblptrl,c
  1101  000628  0E18               	movlw	high __pidataBANK1
  1102  00062A  6EF7               	movwf	tblptrh,c
  1103  00062C  0E00               	movlw	low (__pidataBANK1 shr (0+16))
  1104  00062E  6EF8               	movwf	tblptru,c
  1105  000630  EE00  F1DC         	lfsr	0,__pdataBANK1
  1106  000634  EE10 F01C          	lfsr	1,28
  1107  000638                     copy_data0:
  1108  000638  0009               	tblrd		*+
  1109  00063A  006F FFD7 FFEE     	movff	tablat,postinc0
  1110  000640  50E5               	movf	postdec1,w,c
  1111  000642  50E1               	movf	fsr1l,w,c
  1112  000644  E1F9               	bnz	copy_data0
  1113                           
  1114                           ; Initialize objects allocated to BANK0 (3 bytes)
  1115                           ; load TBLPTR registers with __pidataBANK0
  1116  000646  0E3C               	movlw	low __pidataBANK0
  1117  000648  6EF6               	movwf	tblptrl,c
  1118  00064A  0E1D               	movlw	high __pidataBANK0
  1119  00064C  6EF7               	movwf	tblptrh,c
  1120  00064E  0E00               	movlw	low (__pidataBANK0 shr (0+16))
  1121  000650  6EF8               	movwf	tblptru,c
  1122  000652  0009               	tblrd		*+	;fetch initializer
  1123  000654  006F FFD4  F0FC    	movff	tablat,__pdataBANK0
  1124  00065A  0009               	tblrd		*+	;fetch initializer
  1125  00065C  006F FFD4  F0FD    	movff	tablat,__pdataBANK0+1
  1126  000662  0009               	tblrd		*+	;fetch initializer
  1127  000664  006F FFD4  F0FE    	movff	tablat,__pdataBANK0+2
  1128                           
  1129                           ; Initialize objects allocated to COMRAM (1 bytes)
  1130                           ; load TBLPTR registers with __pidataCOMRAM
  1131  00066A  0E44               	movlw	low __pidataCOMRAM
  1132  00066C  6EF6               	movwf	tblptrl,c
  1133  00066E  0E1D               	movlw	high __pidataCOMRAM
  1134  000670  6EF7               	movwf	tblptrh,c
  1135  000672  0E00               	movlw	low (__pidataCOMRAM shr (0+16))
  1136  000674  6EF8               	movwf	tblptru,c
  1137  000676  0009               	tblrd		*+	;fetch initializer
  1138  000678  006F FFD4  F04B    	movff	tablat,__pdataCOMRAM
  1139                           
  1140                           ; Clear objects allocated to BIGRAM (259 bytes)
  1141  00067E  EE01  F1FE         	lfsr	0,__pbssBIGRAM
  1142  000682  EE10 F103          	lfsr	1,259
  1143  000686                     clear_0:
  1144  000686  6AEE               	clrf	postinc0,c
  1145  000688  50E5               	movf	postdec1,w,c
  1146  00068A  50E1               	movf	fsr1l,w,c
  1147  00068C  E1FC               	bnz	clear_0
  1148  00068E  50E2               	movf	fsr1h,w,c
  1149  000690  E1FA               	bnz	clear_0
  1150                           
  1151                           ; Clear objects allocated to BANK5 (254 bytes)
  1152  000692  EE01  F100         	lfsr	0,__pbssBANK5
  1153  000696  0EFE               	movlw	254
  1154  000698                     clear_1:
  1155  000698  6AEE               	clrf	postinc0,c
  1156  00069A  06E8               	decf	wreg,f,c
  1157  00069C  E1FD               	bnz	clear_1
  1158                           
  1159                           ; Clear objects allocated to BANK4 (200 bytes)
  1160  00069E  EE01  F000         	lfsr	0,__pbssBANK4
  1161  0006A2  0EC8               	movlw	200
  1162  0006A4                     clear_2:
  1163  0006A4  6AEE               	clrf	postinc0,c
  1164  0006A6  06E8               	decf	wreg,f,c
  1165  0006A8  E1FD               	bnz	clear_2
  1166                           
  1167                           ; Clear objects allocated to BANK3 (128 bytes)
  1168  0006AA  EE00  F300         	lfsr	0,__pbssBANK3
  1169  0006AE  0E80               	movlw	128
  1170  0006B0                     clear_3:
  1171  0006B0  6AEE               	clrf	postinc0,c
  1172  0006B2  06E8               	decf	wreg,f,c
  1173  0006B4  E1FD               	bnz	clear_3
  1174                           
  1175                           ; Clear objects allocated to BANK2 (250 bytes)
  1176  0006B6  EE00  F200         	lfsr	0,__pbssBANK2
  1177  0006BA  0EFA               	movlw	250
  1178  0006BC                     clear_4:
  1179  0006BC  6AEE               	clrf	postinc0,c
  1180  0006BE  06E8               	decf	wreg,f,c
  1181  0006C0  E1FD               	bnz	clear_4
  1182                           
  1183                           ; Clear objects allocated to BANK1 (220 bytes)
  1184  0006C2  EE00  F100         	lfsr	0,__pbssBANK1
  1185  0006C6  0EDC               	movlw	220
  1186  0006C8                     clear_5:
  1187  0006C8  6AEE               	clrf	postinc0,c
  1188  0006CA  06E8               	decf	wreg,f,c
  1189  0006CC  E1FD               	bnz	clear_5
  1190                           
  1191                           ; Clear objects allocated to BANK0 (146 bytes)
  1192  0006CE  EE00  F060         	lfsr	0,__pbssBANK0
  1193  0006D2  0E92               	movlw	146
  1194  0006D4                     clear_6:
  1195  0006D4  6AEE               	clrf	postinc0,c
  1196  0006D6  06E8               	decf	wreg,f,c
  1197  0006D8  E1FD               	bnz	clear_6
  1198                           
  1199                           ; Clear objects allocated to COMRAM (47 bytes)
  1200  0006DA  EE00  F001         	lfsr	0,__pbssCOMRAM
  1201  0006DE  0E2F               	movlw	47
  1202  0006E0                     clear_7:
  1203  0006E0  6AEE               	clrf	postinc0,c
  1204  0006E2  06E8               	decf	wreg,f,c
  1205  0006E4  E1FD               	bnz	clear_7
  1206                           
  1207                           ;
  1208                           ; Setup IVTBASE
  1209                           ;
  1210  0006E6  0E08               	movlw	(ivt0x8_base shr 0)& (0+255)
  1211  0006E8  6ED5               	movwf	213,c
  1212  0006EA  0E00               	movlw	(ivt0x8_base shr (0+8))& (0+255)
  1213  0006EC  6ED6               	movwf	214,c
  1214  0006EE  0E00               	movlw	(ivt0x8_base shr (0+16))& (0+255)
  1215  0006F0  6ED7               	movwf	215,c
  1216  0006F2                     end_of_initialization:
  1217                           	callstack 0
  1218  0006F2                     __end_of__initialization:
  1219                           	callstack 0
  1220  0006F2  0E00               	movlw	low (__Lmediumconst shr (0+16))
  1221  0006F4  6EF8               	movwf	tblptru,c
  1222  0006F6  0100               	movlb	0
  1223  0006F8  EF54  F007         	goto	_main	;jump to C main() function
  1224                           
  1225                           	psect	bssCOMRAM
  1226  000001                     __pbssCOMRAM:
  1227                           	callstack 0
  1228  000001                     _modbus_serial_crc:
  1229                           	callstack 0
  1230  000001                     	ds	2
  1231  000003                     _timer_modbus:
  1232                           	callstack 0
  1233  000003                     	ds	2
  1234  000005                     _I2C2_InterruptHandler:
  1235                           	callstack 0
  1236  000005                     	ds	2
  1237  000007                     _flag_has_data:
  1238                           	callstack 0
  1239  000007                     	ds	1
  1240  000008                     _flag_hmi_error:
  1241                           	callstack 0
  1242  000008                     	ds	1
  1243  000009                     _number:
  1244                           	callstack 0
  1245  000009                     	ds	1
  1246  00000A                     _dem:
  1247                           	callstack 0
  1248  00000A                     	ds	1
  1249  00000B                     _lenRFSettingData:
  1250                           	callstack 0
  1251  00000B                     	ds	1
  1252  00000C                     _count_end:
  1253                           	callstack 0
  1254  00000C                     	ds	1
  1255  00000D                     _index:
  1256                           	callstack 0
  1257  00000D                     	ds	1
  1258  00000E                     _setting_start:
  1259                           	callstack 0
  1260  00000E                     	ds	1
  1261  00000F                     _flag_data_st:
  1262                           	callstack 0
  1263  00000F                     	ds	1
  1264  000010                     _finish_receive:
  1265                           	callstack 0
  1266  000010                     	ds	1
  1267  000011                     _test_receive:
  1268                           	callstack 0
  1269  000011                     	ds	1
  1270  000012                     _flag_r:
  1271                           	callstack 0
  1272  000012                     	ds	1
  1273  000013                     _timeout:
  1274                           	callstack 0
  1275  000013                     	ds	1
  1276  000014                     _flag_id_mb:
  1277                           	callstack 0
  1278  000014                     	ds	1
  1279  000015                     _next_flag:
  1280                           	callstack 0
  1281  000015                     	ds	1
  1282  000016                     _flag_decode:
  1283                           	callstack 0
  1284  000016                     	ds	1
  1285  000017                     _lengh_data_cache:
  1286                           	callstack 0
  1287  000017                     	ds	1
  1288  000018                     _lengh_data:
  1289                           	callstack 0
  1290  000018                     	ds	1
  1291  000019                     _index_putc:
  1292                           	callstack 0
  1293  000019                     	ds	1
  1294  00001A                     _flagReceiveRS485LoRa:
  1295                           	callstack 0
  1296  00001A                     	ds	1
  1297  00001B                     _mbstate:
  1298                           	callstack 0
  1299  00001B                     	ds	1
  1300  00001C                     _modbus_timeout_enabled:
  1301                           	callstack 0
  1302  00001C                     	ds	1
  1303  00001D                     _sum_reset_device:
  1304                           	callstack 0
  1305  00001D                     	ds	1
  1306  00001E                     _typeOfData:
  1307                           	callstack 0
  1308  00001E                     	ds	1
  1309  00001F                     _inputs:
  1310                           	callstack 0
  1311  00001F                     	ds	1
  1312  000020                     _coils:
  1313                           	callstack 0
  1314  000020                     	ds	1
  1315  000021                     _count:
  1316                           	callstack 0
  1317  000021                     	ds	1
  1318  000022                     _len_lora:
  1319                           	callstack 0
  1320  000022                     	ds	1
  1321  000023                     _c_lora:
  1322                           	callstack 0
  1323  000023                     	ds	1
  1324  000024                     _uart2RxLastError:
  1325                           	callstack 0
  1326  000024                     	ds	1
  1327  000025                     _uart2RxCount:
  1328                           	callstack 0
  1329  000025                     	ds	1
  1330  000026                     _uart2RxTail:
  1331                           	callstack 0
  1332  000026                     	ds	1
  1333  000027                     _uart2RxHead:
  1334                           	callstack 0
  1335  000027                     	ds	1
  1336  000028                     _uart1RxLastError:
  1337                           	callstack 0
  1338  000028                     	ds	1
  1339  000029                     _uart1RxCount:
  1340                           	callstack 0
  1341  000029                     	ds	1
  1342  00002A                     _uart1RxTail:
  1343                           	callstack 0
  1344  00002A                     	ds	1
  1345  00002B                     _uart1RxHead:
  1346                           	callstack 0
  1347  00002B                     	ds	1
  1348  00002C                     _sum_error_i2c:
  1349                           	callstack 0
  1350  00002C                     	ds	1
  1351  00002D                     _sum_error_am2315:
  1352                           	callstack 0
  1353  00002D                     	ds	1
  1354  00002E                     _readData:
  1355                           	callstack 0
  1356  00002E                     	ds	1
  1357  00002F                     _data_read_coil:
  1358                           	callstack 0
  1359  00002F                     	ds	1
  1360                           
  1361                           	psect	dataCOMRAM
  1362  00004B                     __pdataCOMRAM:
  1363                           	callstack 0
  1364  00004B                     _finish:
  1365                           	callstack 0
  1366  00004B                     	ds	1
  1367                           
  1368                           	psect	bssBANK0
  1369  000060                     __pbssBANK0:
  1370                           	callstack 0
  1371  000060                     _I2C2_Status:
  1372                           	callstack 0
  1373  000060                     	ds	36
  1374  000084                     _sensorDataTimeout:
  1375                           	callstack 0
  1376  000084                     	ds	4
  1377  000088                     _ledToggleTimeout:
  1378                           	callstack 0
  1379  000088                     	ds	4
  1380  00008C                     _timer_out_data_rf:
  1381                           	callstack 0
  1382  00008C                     	ds	4
  1383  000090                     _tErr:
  1384                           	callstack 0
  1385  000090                     	ds	4
  1386  000094                     _t:
  1387                           	callstack 0
  1388  000094                     	ds	4
  1389  000098                     _ky:
  1390                           	callstack 0
  1391  000098                     	ds	4
  1392  00009C                     _modbus_timeout:
  1393                           	callstack 0
  1394  00009C                     	ds	4
  1395  0000A0                     _tick_reset_setting_rx_lora:
  1396                           	callstack 0
  1397  0000A0                     	ds	4
  1398  0000A4                     _TimeOutt:
  1399                           	callstack 0
  1400  0000A4                     	ds	4
  1401  0000A8                     _typeData:
  1402                           	callstack 0
  1403  0000A8                     	ds	4
  1404  0000AC                     _timer_tick_sum:
  1405                           	callstack 0
  1406  0000AC                     	ds	4
  1407  0000B0                     _timer_tick:
  1408                           	callstack 0
  1409  0000B0                     	ds	4
  1410  0000B4                     _tick_time1:
  1411                           	callstack 0
  1412  0000B4                     	ds	4
  1413  0000B8                     _time_out_i2c:
  1414                           	callstack 0
  1415  0000B8                     	ds	4
  1416  0000BC                     _humVal:
  1417                           	callstack 0
  1418  0000BC                     	ds	4
  1419  0000C0                     _tempVal:
  1420                           	callstack 0
  1421  0000C0                     	ds	4
  1422  0000C4                     _i:
  1423                           	callstack 0
  1424  0000C4                     	ds	2
  1425  0000C6                     _tick_out_i2c:
  1426                           	callstack 0
  1427  0000C6                     	ds	2
  1428  0000C8                     _sensor_timer1_ms:
  1429                           	callstack 0
  1430  0000C8                     	ds	2
  1431  0000CA                     _checklora:
  1432                           	callstack 0
  1433  0000CA                     	ds	1
  1434  0000CB                     _flag:
  1435                           	callstack 0
  1436  0000CB                     	ds	1
  1437  0000CC                     _ff:
  1438                           	callstack 0
  1439  0000CC                     	ds	1
  1440  0000CD                     _C:
  1441                           	callstack 0
  1442  0000CD                     	ds	1
  1443  0000CE                     _read_eeprom_flag:
  1444                           	callstack 0
  1445  0000CE                     	ds	1
  1446  0000CF                     _sum_error_get485:
  1447                           	callstack 0
  1448  0000CF                     	ds	1
  1449  0000D0                     _flag_send_rf_485:
  1450                           	callstack 0
  1451  0000D0                     	ds	1
  1452  0000D1                     _modbus_stop:
  1453                           	callstack 0
  1454  0000D1                     	ds	1
  1455  0000D2                     _modbus_parity:
  1456                           	callstack 0
  1457  0000D2                     	ds	1
  1458  0000D3                     _modbus_baudrate:
  1459                           	callstack 0
  1460  0000D3                     	ds	1
  1461  0000D4                     _events_coils_output:
  1462                           	callstack 0
  1463  0000D4                     	ds	1
  1464  0000D5                     	ds	1
  1465  0000D6                     	ds	1
  1466  0000D7                     	ds	1
  1467  0000D8                     	ds	1
  1468  0000D9                     _RHSensor:
  1469                           	callstack 0
  1470  0000D9                     	ds	1
  1471  0000DA                     _typeSensor:
  1472                           	callstack 0
  1473  0000DA                     	ds	1
  1474  0000DB                     _led_blink:
  1475                           	callstack 0
  1476  0000DB                     	ds	1
  1477  0000DC                     _byte_save:
  1478                           	callstack 0
  1479  0000DC                     	ds	1
  1480  0000DD                     _rf_key_high:
  1481                           	callstack 0
  1482  0000DD                     	ds	1
  1483  0000DE                     _rf_key_low:
  1484                           	callstack 0
  1485  0000DE                     	ds	1
  1486  0000DF                     _rf_time_wor:
  1487                           	callstack 0
  1488  0000DF                     	ds	1
  1489  0000E0                     _rf_wor:
  1490                           	callstack 0
  1491  0000E0                     	ds	1
  1492  0000E1                     _rf_lbt:
  1493                           	callstack 0
  1494  0000E1                     	ds	1
  1495  0000E2                     _rf_reply:
  1496                           	callstack 0
  1497  0000E2                     	ds	1
  1498  0000E3                     _rf_fixed:
  1499                           	callstack 0
  1500  0000E3                     	ds	1
  1501  0000E4                     _rf_rssi_ts:
  1502                           	callstack 0
  1503  0000E4                     	ds	1
  1504  0000E5                     _rf_channel:
  1505                           	callstack 0
  1506  0000E5                     	ds	1
  1507  0000E6                     _rf_pow:
  1508                           	callstack 0
  1509  0000E6                     	ds	1
  1510  0000E7                     _rf_reserve:
  1511                           	callstack 0
  1512  0000E7                     	ds	1
  1513  0000E8                     _rf_rssi:
  1514                           	callstack 0
  1515  0000E8                     	ds	1
  1516  0000E9                     _rf_packet:
  1517                           	callstack 0
  1518  0000E9                     	ds	1
  1519  0000EA                     _rf_air:
  1520                           	callstack 0
  1521  0000EA                     	ds	1
  1522  0000EB                     _rf_parity:
  1523                           	callstack 0
  1524  0000EB                     	ds	1
  1525  0000EC                     _rf_uart:
  1526                           	callstack 0
  1527  0000EC                     	ds	1
  1528  0000ED                     _rf_net_id:
  1529                           	callstack 0
  1530  0000ED                     	ds	1
  1531  0000EE                     _rf_add_high:
  1532                           	callstack 0
  1533  0000EE                     	ds	1
  1534  0000EF                     _rf_add_low:
  1535                           	callstack 0
  1536  0000EF                     	ds	1
  1537  0000F0                     _flagCheckRFSettings:
  1538                           	callstack 0
  1539  0000F0                     	ds	1
  1540  0000F1                     _flagInstallRFSettings:
  1541                           	callstack 0
  1542  0000F1                     	ds	1
  1543                           
  1544                           	psect	dataBANK0
  1545  0000FC                     __pdataBANK0:
  1546                           	callstack 0
  1547  0000FC                     _modbus_address:
  1548                           	callstack 0
  1549  0000FC                     	ds	1
  1550  0000FD                     	ds	1
  1551  0000FE                     _readDataSensor:
  1552                           	callstack 0
  1553  0000FE                     	ds	1
  1554                           
  1555                           	psect	bssBANK1
  1556  000100                     __pbssBANK1:
  1557                           	callstack 0
  1558  000100                     _transfer_data:
  1559                           	callstack 0
  1560  000100                     	ds	34
  1561  000122                     _buf_test:
  1562                           	callstack 0
  1563  000122                     	ds	30
  1564  000140                     _rxlora:
  1565                           	callstack 0
  1566  000140                     	ds	20
  1567  000154                     _inputstring:
  1568                           	callstack 0
  1569  000154                     	ds	20
  1570  000168                     _data_buffer:
  1571                           	callstack 0
  1572  000168                     	ds	20
  1573  00017C                     	ds	20
  1574  000190                     _rfSettingResponse:
  1575                           	callstack 0
  1576  000190                     	ds	15
  1577  00019F                     _eeprom_buffer_read:
  1578                           	callstack 0
  1579  00019F                     	ds	10
  1580  0001A9                     _eeprom_buffer_write:
  1581                           	callstack 0
  1582  0001A9                     	ds	10
  1583  0001B3                     _rfSettingsData:
  1584                           	callstack 0
  1585  0001B3                     	ds	9
  1586  0001BC                     _uart2RxStatusBuffer:
  1587                           	callstack 0
  1588  0001BC                     	ds	8
  1589  0001C4                     _uart2RxBuffer:
  1590                           	callstack 0
  1591  0001C4                     	ds	8
  1592  0001CC                     _uart1RxStatusBuffer:
  1593                           	callstack 0
  1594  0001CC                     	ds	8
  1595  0001D4                     _uart1RxBuffer:
  1596                           	callstack 0
  1597  0001D4                     	ds	8
  1598                           
  1599                           	psect	dataBANK1
  1600  0001DC                     __pdataBANK1:
  1601                           	callstack 0
  1602  0001DC                     _key:
  1603                           	callstack 0
  1604  0001DC                     	ds	16
  1605  0001EC                     _check:
  1606                           	callstack 0
  1607  0001EC                     	ds	12
  1608                           
  1609                           	psect	bssBANK2
  1610  000200                     __pbssBANK2:
  1611                           	callstack 0
  1612  000200                     _coils_reg:
  1613                           	callstack 0
  1614  000200                     	ds	100
  1615  000264                     	ds	50
  1616  000296                     _hold_regs:
  1617                           	callstack 0
  1618  000296                     	ds	100
  1619                           
  1620                           	psect	bssBANK3
  1621  000300                     __pbssBANK3:
  1622                           	callstack 0
  1623  000300                     _data_decode:
  1624                           	callstack 0
  1625  000300                     	ds	128
  1626                           
  1627                           	psect	bssBANK4
  1628  000400                     __pbssBANK4:
  1629                           	callstack 0
  1630  000400                     _readingreg:
  1631                           	callstack 0
  1632  000400                     	ds	200
  1633                           
  1634                           	psect	bssBANK5
  1635  000500                     __pbssBANK5:
  1636                           	callstack 0
  1637  000500                     _bufferLoRaSendData:
  1638                           	callstack 0
  1639  000500                     	ds	254
  1640                           
  1641                           	psect	bssBIGRAM
  1642  0005FE                     __pbssBIGRAM:
  1643                           	callstack 0
  1644  0005FE                     _modbus_rx:
  1645                           	callstack 0
  1646  0005FE                     	ds	259
  1647                           
  1648                           	psect	cstackBANK3
  1649  000380                     __pcstackBANK3:
  1650                           	callstack 0
  1651  000380                     ??_make16:
  1652  000380                     modbus_serial_send_start@to:
  1653                           	callstack 0
  1654  000380                     ___awdiv@counter:
  1655                           	callstack 0
  1656  000380                     modbus_serial_send_stop@j:
  1657                           	callstack 0
  1658                           
  1659                           ; 4 bytes @ 0x0
  1660  000380                     	ds	1
  1661  000381                     ___awdiv@sign:
  1662                           	callstack 0
  1663                           
  1664                           ; 1 bytes @ 0x1
  1665  000381                     	ds	1
  1666  000382                     ___awdiv@quotient:
  1667                           	callstack 0
  1668                           
  1669                           ; 2 bytes @ 0x2
  1670  000382                     	ds	2
  1671  000384                     modbus_serial_send_stop@crc_low:
  1672                           	callstack 0
  1673  000384                     make16@high:
  1674                           	callstack 0
  1675                           
  1676                           ; 1 bytes @ 0x4
  1677  000384                     	ds	1
  1678  000385                     modbus_serial_send_stop@crc_high:
  1679                           	callstack 0
  1680  000385                     make16@value:
  1681                           	callstack 0
  1682                           
  1683                           ; 2 bytes @ 0x5
  1684  000385                     	ds	1
  1685  000386                     modbus_read_coils_rsp@byte_count:
  1686                           	callstack 0
  1687  000386                     modbus_read_discrete_input_rsp@byte_count:
  1688                           	callstack 0
  1689  000386                     modbus_read_holding_registers_rsp@byte_count:
  1690                           	callstack 0
  1691  000386                     modbus_exception_rsp@func:
  1692                           	callstack 0
  1693                           
  1694                           ; 2 bytes @ 0x6
  1695  000386                     	ds	1
  1696  000387                     modbus_read_coils_rsp@coil_data:
  1697                           	callstack 0
  1698  000387                     modbus_read_discrete_input_rsp@input_data:
  1699                           	callstack 0
  1700  000387                     modbus_read_holding_registers_rsp@reg_data:
  1701                           	callstack 0
  1702  000387                     modbus_write_single_coil_rsp@output_address:
  1703                           	callstack 0
  1704  000387                     modbus_write_single_register_rsp@reg_address:
  1705                           	callstack 0
  1706  000387                     modbus_write_multiple_coils_rsp@start_address:
  1707                           	callstack 0
  1708  000387                     modbus_write_multiple_registers_rsp@start_address:
  1709                           	callstack 0
  1710                           
  1711                           ; 2 bytes @ 0x7
  1712  000387                     	ds	1
  1713  000388                     modbus_exception_rsp@error:
  1714                           	callstack 0
  1715                           
  1716                           ; 1 bytes @ 0x8
  1717  000388                     	ds	1
  1718  000389                     ??_modbus_read_holding_registers_rsp:
  1719  000389                     modbus_read_coils_rsp@address:
  1720                           	callstack 0
  1721  000389                     modbus_read_discrete_input_rsp@address:
  1722                           	callstack 0
  1723  000389                     modbus_exception_rsp@address:
  1724                           	callstack 0
  1725  000389                     modbus_write_single_coil_rsp@output_value:
  1726                           	callstack 0
  1727  000389                     modbus_write_single_register_rsp@reg_value:
  1728                           	callstack 0
  1729  000389                     modbus_write_multiple_coils_rsp@quantity:
  1730                           	callstack 0
  1731  000389                     modbus_write_multiple_registers_rsp@quantity:
  1732                           	callstack 0
  1733                           
  1734                           ; 2 bytes @ 0x9
  1735  000389                     	ds	1
  1736  00038A                     modbus_read_coils_rsp@i:
  1737                           	callstack 0
  1738  00038A                     modbus_read_discrete_input_rsp@i:
  1739                           	callstack 0
  1740                           
  1741                           ; 1 bytes @ 0xA
  1742  00038A                     	ds	1
  1743  00038B                     modbus_read_holding_registers_rsp@address:
  1744                           	callstack 0
  1745  00038B                     modbus_write_single_coil_rsp@address:
  1746                           	callstack 0
  1747  00038B                     modbus_write_single_register_rsp@address:
  1748                           	callstack 0
  1749  00038B                     modbus_write_multiple_coils_rsp@address:
  1750                           	callstack 0
  1751  00038B                     modbus_write_multiple_registers_rsp@address:
  1752                           	callstack 0
  1753                           
  1754                           ; 1 bytes @ 0xB
  1755  00038B                     	ds	1
  1756  00038C                     modbus_read_holding_registers_rsp@i:
  1757                           	callstack 0
  1758                           
  1759                           ; 1 bytes @ 0xC
  1760  00038C                     	ds	1
  1761  00038D                     ??_main:
  1762                           
  1763                           ; 1 bytes @ 0xD
  1764  00038D                     	ds	2
  1765                           
  1766                           	psect	cstackBANK2
  1767  0002FA                     __pcstackBANK2:
  1768                           	callstack 0
  1769  0002FA                     ?_make16:
  1770                           	callstack 0
  1771  0002FA                     ?___awdiv:
  1772                           	callstack 0
  1773  0002FA                     UART1_Write@txData:
  1774                           	callstack 0
  1775  0002FA                     UART2_Write@txData:
  1776                           	callstack 0
  1777  0002FA                     modbus_calc_crc@data:
  1778                           	callstack 0
  1779  0002FA                     make16@low:
  1780                           	callstack 0
  1781  0002FA                     TMR0_SetInterruptHandler@InterruptHandler:
  1782                           	callstack 0
  1783  0002FA                     UART1_SetFramingErrorHandler@interruptHandler:
  1784                           	callstack 0
  1785  0002FA                     UART1_SetOverrunErrorHandler@interruptHandler:
  1786                           	callstack 0
  1787  0002FA                     UART1_SetErrorHandler@interruptHandler:
  1788                           	callstack 0
  1789  0002FA                     UART1_SetRxInterruptHandler@InterruptHandler:
  1790                           	callstack 0
  1791  0002FA                     UART2_SetFramingErrorHandler@interruptHandler:
  1792                           	callstack 0
  1793  0002FA                     UART2_SetOverrunErrorHandler@interruptHandler:
  1794                           	callstack 0
  1795  0002FA                     UART2_SetErrorHandler@interruptHandler:
  1796                           	callstack 0
  1797  0002FA                     UART2_SetRxInterruptHandler@InterruptHandler:
  1798                           	callstack 0
  1799  0002FA                     ___awdiv@dividend:
  1800                           	callstack 0
  1801                           
  1802                           ; 2 bytes @ 0x0
  1803  0002FA                     	ds	1
  1804  0002FB                     modbus_calc_crc@uIndex:
  1805                           	callstack 0
  1806  0002FB                     UART1_Write@t:
  1807                           	callstack 0
  1808  0002FB                     UART2_Write@t:
  1809                           	callstack 0
  1810                           
  1811                           ; 2 bytes @ 0x1
  1812  0002FB                     	ds	1
  1813  0002FC                     ??_TMR0_Initialize:
  1814  0002FC                     ___awdiv@divisor:
  1815                           	callstack 0
  1816                           
  1817                           ; 2 bytes @ 0x2
  1818  0002FC                     	ds	1
  1819  0002FD                     modbus_serial_send_start@func:
  1820                           	callstack 0
  1821                           
  1822                           ; 1 bytes @ 0x3
  1823  0002FD                     	ds	1
  1824                           
  1825                           	psect	cstackBANK0
  1826  0000FF                     __pcstackBANK0:
  1827                           	callstack 0
  1828  0000FF                     modbus_enable_timeout@enable:
  1829                           	callstack 0
  1830  0000FF                     modbus_serial_putc@c:
  1831                           	callstack 0
  1832  0000FF                     saveToEEPROM@position:
  1833                           	callstack 0
  1834                           
  1835                           ; 1 bytes @ 0x0
  1836  0000FF                     	ds	1
  1837  000100                     
  1838                           ; 1 bytes @ 0x1
  1839                           
  1840                           	psect	cstackCOMRAM
  1841  000030                     __pcstackCOMRAM:
  1842                           	callstack 0
  1843  000030                     ??i2_I2C2_DO_RX:
  1844  000030                     i2modbus_enable_timeout@enable:
  1845                           	callstack 0
  1846  000030                     i2modbus_calc_crc@data:
  1847                           	callstack 0
  1848  000030                     i2I2C2_MasterSendTxData@i2c2_master$F3095@data:
  1849                           	callstack 0
  1850  000030                     i2I2C2_MasterSetCounter@counter:
  1851                           	callstack 0
  1852  000030                     i2I2C2_CallbackReturnReset@funPtr:
  1853                           	callstack 0
  1854                           
  1855                           ; 2 bytes @ 0x0
  1856  000030                     	ds	1
  1857  000031                     i2modbus_calc_crc@uIndex:
  1858                           	callstack 0
  1859                           
  1860                           ; 1 bytes @ 0x1
  1861  000031                     	ds	1
  1862  000032                     ??_modbusReceivedDataRS485:
  1863  000032                     ??i2_I2C2_DO_TX:
  1864  000032                     ??i2_I2C2_DO_TX_EMPTY:
  1865  000032                     ??i2_I2C2_DO_RX_EMPTY:
  1866  000032                     ??i2_I2C2_DO_ADDRESS_NACK:
  1867  000032                     ??i2_I2C2_DO_BUS_COLLISION:
  1868  000032                     i2I2C2_DO_RX@retFsmState:
  1869                           	callstack 0
  1870                           
  1871                           ; 1 bytes @ 0x2
  1872  000032                     	ds	2
  1873  000034                     modbusReceivedDataRS485@c:
  1874                           	callstack 0
  1875  000034                     i2_I2C2_DO_TX$3425:
  1876                           	callstack 0
  1877                           
  1878                           ; 2 bytes @ 0x4
  1879  000034                     	ds	1
  1880  000035                     
  1881                           ; 1 bytes @ 0x5
  1882  000035                     	ds	1
  1883  000036                     i2I2C2_DO_TX@dataTx:
  1884                           	callstack 0
  1885                           
  1886                           ; 1 bytes @ 0x6
  1887  000036                     	ds	1
  1888  000037                     i2I2C2_DO_TX@retFsmState:
  1889                           	callstack 0
  1890                           
  1891                           ; 1 bytes @ 0x7
  1892  000037                     	ds	1
  1893  000038                     ??_INTERRUPT_InterruptManagerHigh:
  1894  000038                     
  1895                           ; 1 bytes @ 0x8
  1896  000038                     	ds	4
  1897  00003C                     I2C2_MasterSendTxData@i2c2_master$F3095@data:
  1898                           	callstack 0
  1899  00003C                     I2C2_MasterSetCounter@counter:
  1900                           	callstack 0
  1901  00003C                     i1modbus_enable_timeout@enable:
  1902                           	callstack 0
  1903  00003C                     i1modbus_calc_crc@data:
  1904                           	callstack 0
  1905  00003C                     I2C2_CallbackReturnReset@funPtr:
  1906                           	callstack 0
  1907                           
  1908                           ; 2 bytes @ 0xC
  1909  00003C                     	ds	1
  1910  00003D                     i1modbus_calc_crc@uIndex:
  1911                           	callstack 0
  1912                           
  1913                           ; 1 bytes @ 0xD
  1914  00003D                     	ds	1
  1915  00003E                     ??_I2C2_DO_TX:
  1916  00003E                     ??_I2C2_DO_TX_EMPTY:
  1917  00003E                     ??_I2C2_DO_RX_EMPTY:
  1918  00003E                     ??_I2C2_DO_ADDRESS_NACK:
  1919  00003E                     ??_I2C2_DO_BUS_COLLISION:
  1920  00003E                     modbusReceivedDataLoRa@c:
  1921                           	callstack 0
  1922                           
  1923                           ; 1 bytes @ 0xE
  1924  00003E                     	ds	1
  1925  00003F                     
  1926                           ; 1 bytes @ 0xF
  1927  00003F                     	ds	1
  1928  000040                     ??_I2C2_DO_RX:
  1929  000040                     _I2C2_DO_TX$3425:
  1930                           	callstack 0
  1931                           
  1932                           ; 2 bytes @ 0x10
  1933  000040                     	ds	2
  1934  000042                     I2C2_DO_TX@dataTx:
  1935                           	callstack 0
  1936  000042                     I2C2_DO_RX@retFsmState:
  1937                           	callstack 0
  1938                           
  1939                           ; 1 bytes @ 0x12
  1940  000042                     	ds	1
  1941  000043                     I2C2_DO_TX@retFsmState:
  1942                           	callstack 0
  1943                           
  1944                           ; 1 bytes @ 0x13
  1945  000043                     	ds	1
  1946  000044                     ??_INTERRUPT_InterruptManagerLow:
  1947                           
  1948                           ; 1 bytes @ 0x14
  1949  000044                     	ds	5
  1950                           
  1951 ;;
  1952 ;;Main: autosize = 0, tempsize = 2, incstack = 0, save=0
  1953 ;;
  1954 ;; *************** function _main *****************
  1955 ;; Defined at:
  1956 ;;		line 181 in file "main.c"
  1957 ;; Parameters:    Size  Location     Type
  1958 ;;		None
  1959 ;; Auto vars:     Size  Location     Type
  1960 ;;  time            4    0        unsigned long 
  1961 ;;  i               1    0        unsigned char 
  1962 ;;  j               1    0        unsigned char 
  1963 ;;  i               2    0        int 
  1964 ;;  j               2    0        int 
  1965 ;;  i               4    0        unsigned long 
  1966 ;;  test            2    0        int 
  1967 ;; Return value:  Size  Location     Type
  1968 ;;                  1    wreg      void 
  1969 ;; Registers used:
  1970 ;;		wreg, status,2, status,0, cstack
  1971 ;; Tracked objects:
  1972 ;;		On entry : 0/0
  1973 ;;		On exit  : 0/0
  1974 ;;		Unchanged: 0/0
  1975 ;; Data sizes:     COMRAM   BANK0   BANK1   BANK2   BANK3   BANK4   BANK5   BANK6   BANK7
  1976 ;;      Params:         0       0       0       0       0       0       0       0       0
  1977 ;;      Locals:         0       0       0       0       0       0       0       0       0
  1978 ;;      Temps:          0       0       0       0       2       0       0       0       0
  1979 ;;      Totals:         0       0       0       0       2       0       0       0       0
  1980 ;;Total ram usage:        2 bytes
  1981 ;; Hardware stack levels required when called: 21
  1982 ;; This function calls:
  1983 ;;		_SYSTEM_Initialize
  1984 ;;		_UART1_Write
  1985 ;;		_UART2_Write
  1986 ;;		___awdiv
  1987 ;;		_make16
  1988 ;;		_modbus_exception_rsp
  1989 ;;		_modbus_init
  1990 ;;		_modbus_kbhit
  1991 ;;		_modbus_read_coils_rsp
  1992 ;;		_modbus_read_discrete_input_rsp
  1993 ;;		_modbus_read_holding_registers_rsp
  1994 ;;		_modbus_write_multiple_coils_rsp
  1995 ;;		_modbus_write_multiple_registers_rsp
  1996 ;;		_modbus_write_single_coil_rsp
  1997 ;;		_modbus_write_single_register_rsp
  1998 ;;		_saveToEEPROM
  1999 ;; This function is called by:
  2000 ;;		Startup code after reset
  2001 ;; This function uses a non-reentrant model
  2002 ;;
  2003                           
  2004                           	psect	text0
  2005  000EA8                     __ptext0:
  2006                           	callstack 0
  2007  000EA8                     _main:
  2008                           	callstack 10
  2009  000EA8                     
  2010                           ;main.c: 193:     SYSTEM_Initialize();
  2011  000EA8  EC08  F00C         	call	_SYSTEM_Initialize	;wreg free
  2012  000EAC                     
  2013                           ;main.c: 194:     TRISDbits.TRISD4 = 0;
  2014  000EAC  98C5               	bcf	197,4,c	;volatile
  2015  000EAE  98BD               	bcf	189,4,c	;volatile
  2016  000EB0                     
  2017                           ;main.c: 197:     TRISAbits.TRISA4=0;ANSELAbits.ANSELA4=0;
  2018  000EB0  98C2               	bcf	194,4,c	;volatile
  2019  000EB2  013A               	movlb	58	; () banked
  2020  000EB4  9940               	bcf	64,4,b	;volatile
  2021  000EB6                     
  2022                           ; BSR set to: 58
  2023                           ;main.c: 198:     TRISAbits.TRISA5=0;ANSELAbits.ANSELA5=0;
  2024  000EB6  9AC2               	bcf	194,5,c	;volatile
  2025  000EB8                     
  2026                           ; BSR set to: 58
  2027  000EB8  9B40               	bcf	64,5,b	;volatile
  2028  000EBA                     
  2029                           ; BSR set to: 58
  2030                           ;main.c: 199:     TRISBbits.TRISB4=0;ANSELBbits.ANSELB4=0;
  2031  000EBA  98C3               	bcf	195,4,c	;volatile
  2032  000EBC                     
  2033                           ; BSR set to: 58
  2034  000EBC  9950               	bcf	80,4,b	;volatile
  2035  000EBE                     
  2036                           ; BSR set to: 58
  2037                           ;main.c: 200:     TRISBbits.TRISB5=0;ANSELBbits.ANSELB5=0;
  2038  000EBE  9AC3               	bcf	195,5,c	;volatile
  2039  000EC0                     
  2040                           ; BSR set to: 58
  2041  000EC0  9B50               	bcf	80,5,b	;volatile
  2042  000EC2                     
  2043                           ; BSR set to: 58
  2044                           ;main.c: 201:     TRISAbits.TRISA3=1;ANSELAbits.ANSELA3=0;
  2045  000EC2  86C2               	bsf	194,3,c	;volatile
  2046  000EC4                     
  2047                           ; BSR set to: 58
  2048  000EC4  9740               	bcf	64,3,b	;volatile
  2049  000EC6                     
  2050                           ; BSR set to: 58
  2051                           ;main.c: 202:     TRISBbits.TRISB3=1;ANSELBbits.ANSELB3=0;
  2052  000EC6  86C3               	bsf	195,3,c	;volatile
  2053  000EC8                     
  2054                           ; BSR set to: 58
  2055  000EC8  9750               	bcf	80,3,b	;volatile
  2056  000ECA                     
  2057                           ; BSR set to: 58
  2058                           ;main.c: 206:         (INTCON0bits.GIE = 1);
  2059  000ECA  8ED2               	bsf	210,7,c	;volatile
  2060  000ECC                     
  2061                           ; BSR set to: 58
  2062                           ;main.c: 224:     modbus_init();
  2063  000ECC  EC2A  F00C         	call	_modbus_init	;wreg free
  2064  000ED0  98BD               	bcf	189,4,c	;volatile
  2065  000ED2                     
  2066                           ;main.c: 231:     NVMCON1bits.NVMREG = 0b10;
  2067  000ED2  0139               	movlb	57	; () banked
  2068  000ED4  51E5               	movf	229,w,b	;volsfr
  2069  000ED6  0B3F               	andlw	-193
  2070  000ED8  0980               	iorlw	128
  2071  000EDA  6FE5               	movwf	229,b	;volsfr
  2072  000EDC                     
  2073                           ; BSR set to: 57
  2074  000EDC  98BD               	bcf	189,4,c	;volatile
  2075  000EDE                     
  2076                           ; BSR set to: 57
  2077                           ;main.c: 235:         LATAbits.LATA4 = 0;LATAbits.LATA5 = 0;_delay((unsigned long)((1000
      +                          )*(20000000/4000.0)));
  2078  000EDE  98BA               	bcf	186,4,c	;volatile
  2079  000EE0                     
  2080                           ; BSR set to: 57
  2081  000EE0  9ABA               	bcf	186,5,c	;volatile
  2082  000EE2                     
  2083                           ; BSR set to: 57
  2084  000EE2  0E1A               	movlw	26
  2085  000EE4  0103               	movlb	3	; () banked
  2086  000EE6  6F8E               	movwf	(??_main+1)& (0+255),b
  2087  000EE8  0E5E               	movlw	94
  2088  000EEA  6F8D               	movwf	??_main& (0+255),b
  2089  000EEC  0E6E               	movlw	110
  2090  000EEE                     u3877:
  2091  000EEE  2EE8               	decfsz	wreg,f,c
  2092  000EF0  D7FE               	bra	u3877
  2093  000EF2  2F8D               	decfsz	??_main& (0+255),f,b
  2094  000EF4  D7FC               	bra	u3877
  2095  000EF6  2F8E               	decfsz	(??_main+1)& (0+255),f,b
  2096  000EF8  D7FA               	bra	u3877
  2097  000EFA  F000               	nop	
  2098  000EFC                     
  2099                           ;main.c: 236:         LATAbits.LATA4 = 1;LATAbits.LATA5 = 1;
  2100  000EFC  88BA               	bsf	186,4,c	;volatile
  2101  000EFE  8ABA               	bsf	186,5,c	;volatile
  2102  000F00                     l1320:
  2103  000F00  0004               	clrwdt		;# 
  2104  000F02  98BD               	bcf	189,4,c	;volatile
  2105  000F04  0E44               	movlw	68
  2106  000F06  ECDD  F008         	call	_UART1_Write
  2107  000F0A  0E44               	movlw	68
  2108  000F0C  EC06  F00A         	call	_UART2_Write
  2109  000F10                     
  2110                           ;main.c: 244:         NVMCON1bits.NVMREG = 0b10;
  2111  000F10  0139               	movlb	57	; () banked
  2112  000F12  51E5               	movf	229,w,b	;volsfr
  2113  000F14  0B3F               	andlw	-193
  2114  000F16  0980               	iorlw	128
  2115  000F18  6FE5               	movwf	229,b	;volsfr
  2116  000F1A  EF80  F007         	goto	l1320
  2117  000F1E  EF0E  F000         	goto	start
  2118  000F22                     __end_of_main:
  2119                           	callstack 0
  2120                           
  2121 ;; *************** function _saveToEEPROM *****************
  2122 ;; Defined at:
  2123 ;;		line 457 in file "main.c"
  2124 ;; Parameters:    Size  Location     Type
  2125 ;;  data            1    wreg     unsigned char 
  2126 ;;  position        1    0[BANK0 ] unsigned char 
  2127 ;; Auto vars:     Size  Location     Type
  2128 ;;  data            1    0[COMRAM] unsigned char 
  2129 ;; Return value:  Size  Location     Type
  2130 ;;                  1    wreg      void 
  2131 ;; Registers used:
  2132 ;;		wreg
  2133 ;; Tracked objects:
  2134 ;;		On entry : 0/0
  2135 ;;		On exit  : 0/0
  2136 ;;		Unchanged: 0/0
  2137 ;; Data sizes:     COMRAM   BANK0   BANK1   BANK2   BANK3   BANK4   BANK5   BANK6   BANK7
  2138 ;;      Params:         0       1       0       0       0       0       0       0       0
  2139 ;;      Locals:         0       0       0       0       0       0       0       0       0
  2140 ;;      Temps:          0       0       0       0       0       0       0       0       0
  2141 ;;      Totals:         0       1       0       0       0       0       0       0       0
  2142 ;;Total ram usage:        1 bytes
  2143 ;; Hardware stack levels used: 1
  2144 ;; Hardware stack levels required when called: 16
  2145 ;; This function calls:
  2146 ;;		Nothing
  2147 ;; This function is called by:
  2148 ;;		_main
  2149 ;; This function uses a non-reentrant model
  2150 ;;
  2151                           
  2152                           	psect	text1
  2153  001D40                     __ptext1:
  2154                           	callstack 0
  2155  001D40                     _saveToEEPROM:
  2156                           	callstack 14
  2157  001D40  0012               	return		;funcret
  2158  001D42                     __end_of_saveToEEPROM:
  2159                           	callstack 0
  2160                           
  2161 ;; *************** function _modbus_write_single_register_rsp *****************
  2162 ;; Defined at:
  2163 ;;		line 270 in file "../modbus/modbus_app_layer_slave.c"
  2164 ;; Parameters:    Size  Location     Type
  2165 ;;  address         1    wreg     unsigned char 
  2166 ;;  reg_address     2    7[BANK3 ] unsigned short 
  2167 ;;  reg_value       2    9[BANK3 ] unsigned short 
  2168 ;; Auto vars:     Size  Location     Type
  2169 ;;  address         1   11[BANK3 ] unsigned char 
  2170 ;; Return value:  Size  Location     Type
  2171 ;;                  1    wreg      void 
  2172 ;; Registers used:
  2173 ;;		wreg, status,2, status,0, tblptrl, tblptrh, tblptru, cstack
  2174 ;; Tracked objects:
  2175 ;;		On entry : 0/0
  2176 ;;		On exit  : 0/0
  2177 ;;		Unchanged: 0/0
  2178 ;; Data sizes:     COMRAM   BANK0   BANK1   BANK2   BANK3   BANK4   BANK5   BANK6   BANK7
  2179 ;;      Params:         0       0       0       0       4       0       0       0       0
  2180 ;;      Locals:         0       0       0       0       1       0       0       0       0
  2181 ;;      Temps:          0       0       0       0       0       0       0       0       0
  2182 ;;      Totals:         0       0       0       0       5       0       0       0       0
  2183 ;;Total ram usage:        5 bytes
  2184 ;; Hardware stack levels used: 1
  2185 ;; Hardware stack levels required when called: 20
  2186 ;; This function calls:
  2187 ;;		_modbus_serial_putc
  2188 ;;		_modbus_serial_send_start
  2189 ;;		_modbus_serial_send_stop
  2190 ;; This function is called by:
  2191 ;;		_main
  2192 ;; This function uses a non-reentrant model
  2193 ;;
  2194                           
  2195                           	psect	text2
  2196  001514                     __ptext2:
  2197                           	callstack 0
  2198  001514                     _modbus_write_single_register_rsp:
  2199                           	callstack 10
  2200                           
  2201                           ;incstack = 0
  2202                           ;modbus_write_single_register_rsp@address stored from wreg
  2203  001514  0103               	movlb	3	; () banked
  2204  001516  6F8B               	movwf	modbus_write_single_register_rsp@address& (0+255),b
  2205  001518                     
  2206                           ;../modbus/modbus_app_layer_slave.c: 270: void modbus_write_single_register_rsp(uint8_t 
      +                          address, uint16_t reg_address,;../modbus/modbus_app_layer_slave.c: 271:                 
      +                                                  uint16_t reg_value);../modbus/modbus_app_layer_slave.c: 272: {;.
      +                          ./modbus/modbus_app_layer_slave.c: 273:    modbus_serial_send_start(address, FUNC_WRITE_
      +                          SINGLE_REGISTER);
  2207  001518  0E06               	movlw	6
  2208  00151A  0102               	movlb	2	; () banked
  2209  00151C  6FFD               	movwf	modbus_serial_send_start@func& (0+255),b
  2210  00151E  0103               	movlb	3	; () banked
  2211  001520  518B               	movf	modbus_write_single_register_rsp@address& (0+255),w,b
  2212  001522  EC93  F00B         	call	_modbus_serial_send_start
  2213                           
  2214                           ;../modbus/modbus_app_layer_slave.c: 275:    modbus_serial_putc((uint8_t)(reg_address>>8
      +                          ));
  2215  001526  0103               	movlb	3	; () banked
  2216  001528  5188               	movf	(modbus_write_single_register_rsp@reg_address+1)& (0+255),w,b
  2217  00152A  ECBF  F00C         	call	_modbus_serial_putc
  2218                           
  2219                           ;../modbus/modbus_app_layer_slave.c: 276:    modbus_serial_putc((uint8_t)(reg_address));
  2220  00152E  0103               	movlb	3	; () banked
  2221  001530  5187               	movf	modbus_write_single_register_rsp@reg_address& (0+255),w,b
  2222  001532  ECBF  F00C         	call	_modbus_serial_putc
  2223                           
  2224                           ;../modbus/modbus_app_layer_slave.c: 278:    modbus_serial_putc((uint8_t)(reg_value>>8))
      +                          ;
  2225  001536  0103               	movlb	3	; () banked
  2226  001538  518A               	movf	(modbus_write_single_register_rsp@reg_value+1)& (0+255),w,b
  2227  00153A  ECBF  F00C         	call	_modbus_serial_putc
  2228                           
  2229                           ;../modbus/modbus_app_layer_slave.c: 279:    modbus_serial_putc((uint8_t)(reg_value));
  2230  00153E  0103               	movlb	3	; () banked
  2231  001540  5189               	movf	modbus_write_single_register_rsp@reg_value& (0+255),w,b
  2232  001542  ECBF  F00C         	call	_modbus_serial_putc
  2233                           
  2234                           ;../modbus/modbus_app_layer_slave.c: 281:    modbus_serial_send_stop();
  2235  001546  EC16  F007         	call	_modbus_serial_send_stop	;wreg free
  2236  00154A  0012               	return		;funcret
  2237  00154C                     __end_of_modbus_write_single_register_rsp:
  2238                           	callstack 0
  2239                           
  2240 ;; *************** function _modbus_write_single_coil_rsp *****************
  2241 ;; Defined at:
  2242 ;;		line 249 in file "../modbus/modbus_app_layer_slave.c"
  2243 ;; Parameters:    Size  Location     Type
  2244 ;;  address         1    wreg     unsigned char 
  2245 ;;  output_addre    2    7[BANK3 ] unsigned short 
  2246 ;;  output_value    2    9[BANK3 ] unsigned short 
  2247 ;; Auto vars:     Size  Location     Type
  2248 ;;  address         1   11[BANK3 ] unsigned char 
  2249 ;; Return value:  Size  Location     Type
  2250 ;;                  1    wreg      void 
  2251 ;; Registers used:
  2252 ;;		wreg, status,2, status,0, tblptrl, tblptrh, tblptru, cstack
  2253 ;; Tracked objects:
  2254 ;;		On entry : 0/0
  2255 ;;		On exit  : 0/0
  2256 ;;		Unchanged: 0/0
  2257 ;; Data sizes:     COMRAM   BANK0   BANK1   BANK2   BANK3   BANK4   BANK5   BANK6   BANK7
  2258 ;;      Params:         0       0       0       0       4       0       0       0       0
  2259 ;;      Locals:         0       0       0       0       1       0       0       0       0
  2260 ;;      Temps:          0       0       0       0       0       0       0       0       0
  2261 ;;      Totals:         0       0       0       0       5       0       0       0       0
  2262 ;;Total ram usage:        5 bytes
  2263 ;; Hardware stack levels used: 1
  2264 ;; Hardware stack levels required when called: 20
  2265 ;; This function calls:
  2266 ;;		_modbus_serial_putc
  2267 ;;		_modbus_serial_send_start
  2268 ;;		_modbus_serial_send_stop
  2269 ;; This function is called by:
  2270 ;;		_main
  2271 ;; This function uses a non-reentrant model
  2272 ;;
  2273                           
  2274                           	psect	text3
  2275  00154C                     __ptext3:
  2276                           	callstack 0
  2277  00154C                     _modbus_write_single_coil_rsp:
  2278                           	callstack 10
  2279                           
  2280                           ;incstack = 0
  2281                           ;modbus_write_single_coil_rsp@address stored from wreg
  2282  00154C  0103               	movlb	3	; () banked
  2283  00154E  6F8B               	movwf	modbus_write_single_coil_rsp@address& (0+255),b
  2284  001550                     
  2285                           ;../modbus/modbus_app_layer_slave.c: 249: void modbus_write_single_coil_rsp(uint8_t addr
      +                          ess, uint16_t output_address,;../modbus/modbus_app_layer_slave.c: 250:                  
      +                                             uint16_t output_value);../modbus/modbus_app_layer_slave.c: 251: {;../
      +                          modbus/modbus_app_layer_slave.c: 252:    modbus_serial_send_start(address, FUNC_WRITE_SI
      +                          NGLE_COIL);
  2286  001550  0E05               	movlw	5
  2287  001552  0102               	movlb	2	; () banked
  2288  001554  6FFD               	movwf	modbus_serial_send_start@func& (0+255),b
  2289  001556  0103               	movlb	3	; () banked
  2290  001558  518B               	movf	modbus_write_single_coil_rsp@address& (0+255),w,b
  2291  00155A  EC93  F00B         	call	_modbus_serial_send_start
  2292                           
  2293                           ;../modbus/modbus_app_layer_slave.c: 254:    modbus_serial_putc((uint8_t)(output_address
      +                          >>8));
  2294  00155E  0103               	movlb	3	; () banked
  2295  001560  5188               	movf	(modbus_write_single_coil_rsp@output_address+1)& (0+255),w,b
  2296  001562  ECBF  F00C         	call	_modbus_serial_putc
  2297                           
  2298                           ;../modbus/modbus_app_layer_slave.c: 255:    modbus_serial_putc((uint8_t)(output_address
      +                          ));
  2299  001566  0103               	movlb	3	; () banked
  2300  001568  5187               	movf	modbus_write_single_coil_rsp@output_address& (0+255),w,b
  2301  00156A  ECBF  F00C         	call	_modbus_serial_putc
  2302                           
  2303                           ;../modbus/modbus_app_layer_slave.c: 257:    modbus_serial_putc((uint8_t)(output_value>>
      +                          8));
  2304  00156E  0103               	movlb	3	; () banked
  2305  001570  518A               	movf	(modbus_write_single_coil_rsp@output_value+1)& (0+255),w,b
  2306  001572  ECBF  F00C         	call	_modbus_serial_putc
  2307                           
  2308                           ;../modbus/modbus_app_layer_slave.c: 258:    modbus_serial_putc((uint8_t)(output_value))
      +                          ;
  2309  001576  0103               	movlb	3	; () banked
  2310  001578  5189               	movf	modbus_write_single_coil_rsp@output_value& (0+255),w,b
  2311  00157A  ECBF  F00C         	call	_modbus_serial_putc
  2312                           
  2313                           ;../modbus/modbus_app_layer_slave.c: 260:    modbus_serial_send_stop();
  2314  00157E  EC16  F007         	call	_modbus_serial_send_stop	;wreg free
  2315  001582  0012               	return		;funcret
  2316  001584                     __end_of_modbus_write_single_coil_rsp:
  2317                           	callstack 0
  2318                           
  2319 ;; *************** function _modbus_write_multiple_registers_rsp *****************
  2320 ;; Defined at:
  2321 ;;		line 402 in file "../modbus/modbus_app_layer_slave.c"
  2322 ;; Parameters:    Size  Location     Type
  2323 ;;  address         1    wreg     unsigned char 
  2324 ;;  start_addres    2    7[BANK3 ] unsigned short 
  2325 ;;  quantity        2    9[BANK3 ] unsigned short 
  2326 ;; Auto vars:     Size  Location     Type
  2327 ;;  address         1   11[BANK3 ] unsigned char 
  2328 ;; Return value:  Size  Location     Type
  2329 ;;                  1    wreg      void 
  2330 ;; Registers used:
  2331 ;;		wreg, status,2, status,0, tblptrl, tblptrh, tblptru, cstack
  2332 ;; Tracked objects:
  2333 ;;		On entry : 0/0
  2334 ;;		On exit  : 0/0
  2335 ;;		Unchanged: 0/0
  2336 ;; Data sizes:     COMRAM   BANK0   BANK1   BANK2   BANK3   BANK4   BANK5   BANK6   BANK7
  2337 ;;      Params:         0       0       0       0       4       0       0       0       0
  2338 ;;      Locals:         0       0       0       0       1       0       0       0       0
  2339 ;;      Temps:          0       0       0       0       0       0       0       0       0
  2340 ;;      Totals:         0       0       0       0       5       0       0       0       0
  2341 ;;Total ram usage:        5 bytes
  2342 ;; Hardware stack levels used: 1
  2343 ;; Hardware stack levels required when called: 20
  2344 ;; This function calls:
  2345 ;;		_modbus_serial_putc
  2346 ;;		_modbus_serial_send_start
  2347 ;;		_modbus_serial_send_stop
  2348 ;; This function is called by:
  2349 ;;		_main
  2350 ;; This function uses a non-reentrant model
  2351 ;;
  2352                           
  2353                           	psect	text4
  2354  001584                     __ptext4:
  2355                           	callstack 0
  2356  001584                     _modbus_write_multiple_registers_rsp:
  2357                           	callstack 10
  2358                           
  2359                           ;incstack = 0
  2360                           ;modbus_write_multiple_registers_rsp@address stored from wreg
  2361  001584  0103               	movlb	3	; () banked
  2362  001586  6F8B               	movwf	modbus_write_multiple_registers_rsp@address& (0+255),b
  2363  001588                     
  2364                           ;../modbus/modbus_app_layer_slave.c: 402: void modbus_write_multiple_registers_rsp(uint8
      +                          _t address, uint16_t start_address,;../modbus/modbus_app_layer_slave.c: 403:            
      +                                                           uint16_t quantity);../modbus/modbus_app_layer_slave.c: 
      +                          404: {;../modbus/modbus_app_layer_slave.c: 405:    modbus_serial_send_start(address, FUN
      +                          C_WRITE_MULTIPLE_REGISTERS);
  2365  001588  0E10               	movlw	16
  2366  00158A  0102               	movlb	2	; () banked
  2367  00158C  6FFD               	movwf	modbus_serial_send_start@func& (0+255),b
  2368  00158E  0103               	movlb	3	; () banked
  2369  001590  518B               	movf	modbus_write_multiple_registers_rsp@address& (0+255),w,b
  2370  001592  EC93  F00B         	call	_modbus_serial_send_start
  2371                           
  2372                           ;../modbus/modbus_app_layer_slave.c: 407:    modbus_serial_putc((uint8_t)(start_address>
      +                          >8));
  2373  001596  0103               	movlb	3	; () banked
  2374  001598  5188               	movf	(modbus_write_multiple_registers_rsp@start_address+1)& (0+255),w,b
  2375  00159A  ECBF  F00C         	call	_modbus_serial_putc
  2376                           
  2377                           ;../modbus/modbus_app_layer_slave.c: 408:    modbus_serial_putc((uint8_t)(start_address)
      +                          );
  2378  00159E  0103               	movlb	3	; () banked
  2379  0015A0  5187               	movf	modbus_write_multiple_registers_rsp@start_address& (0+255),w,b
  2380  0015A2  ECBF  F00C         	call	_modbus_serial_putc
  2381                           
  2382                           ;../modbus/modbus_app_layer_slave.c: 410:    modbus_serial_putc((uint8_t)(quantity>>8));
  2383  0015A6  0103               	movlb	3	; () banked
  2384  0015A8  518A               	movf	(modbus_write_multiple_registers_rsp@quantity+1)& (0+255),w,b
  2385  0015AA  ECBF  F00C         	call	_modbus_serial_putc
  2386                           
  2387                           ;../modbus/modbus_app_layer_slave.c: 411:    modbus_serial_putc((uint8_t)(quantity));
  2388  0015AE  0103               	movlb	3	; () banked
  2389  0015B0  5189               	movf	modbus_write_multiple_registers_rsp@quantity& (0+255),w,b
  2390  0015B2  ECBF  F00C         	call	_modbus_serial_putc
  2391                           
  2392                           ;../modbus/modbus_app_layer_slave.c: 413:    modbus_serial_send_stop();
  2393  0015B6  EC16  F007         	call	_modbus_serial_send_stop	;wreg free
  2394  0015BA  0012               	return		;funcret
  2395  0015BC                     __end_of_modbus_write_multiple_registers_rsp:
  2396                           	callstack 0
  2397                           
  2398 ;; *************** function _modbus_write_multiple_coils_rsp *****************
  2399 ;; Defined at:
  2400 ;;		line 381 in file "../modbus/modbus_app_layer_slave.c"
  2401 ;; Parameters:    Size  Location     Type
  2402 ;;  address         1    wreg     unsigned char 
  2403 ;;  start_addres    2    7[BANK3 ] unsigned short 
  2404 ;;  quantity        2    9[BANK3 ] unsigned short 
  2405 ;; Auto vars:     Size  Location     Type
  2406 ;;  address         1   11[BANK3 ] unsigned char 
  2407 ;; Return value:  Size  Location     Type
  2408 ;;                  1    wreg      void 
  2409 ;; Registers used:
  2410 ;;		wreg, status,2, status,0, tblptrl, tblptrh, tblptru, cstack
  2411 ;; Tracked objects:
  2412 ;;		On entry : 0/0
  2413 ;;		On exit  : 0/0
  2414 ;;		Unchanged: 0/0
  2415 ;; Data sizes:     COMRAM   BANK0   BANK1   BANK2   BANK3   BANK4   BANK5   BANK6   BANK7
  2416 ;;      Params:         0       0       0       0       4       0       0       0       0
  2417 ;;      Locals:         0       0       0       0       1       0       0       0       0
  2418 ;;      Temps:          0       0       0       0       0       0       0       0       0
  2419 ;;      Totals:         0       0       0       0       5       0       0       0       0
  2420 ;;Total ram usage:        5 bytes
  2421 ;; Hardware stack levels used: 1
  2422 ;; Hardware stack levels required when called: 20
  2423 ;; This function calls:
  2424 ;;		_modbus_serial_putc
  2425 ;;		_modbus_serial_send_start
  2426 ;;		_modbus_serial_send_stop
  2427 ;; This function is called by:
  2428 ;;		_main
  2429 ;; This function uses a non-reentrant model
  2430 ;;
  2431                           
  2432                           	psect	text5
  2433  0015BC                     __ptext5:
  2434                           	callstack 0
  2435  0015BC                     _modbus_write_multiple_coils_rsp:
  2436                           	callstack 10
  2437                           
  2438                           ;incstack = 0
  2439                           ;modbus_write_multiple_coils_rsp@address stored from wreg
  2440  0015BC  0103               	movlb	3	; () banked
  2441  0015BE  6F8B               	movwf	modbus_write_multiple_coils_rsp@address& (0+255),b
  2442  0015C0                     
  2443                           ;../modbus/modbus_app_layer_slave.c: 381: void modbus_write_multiple_coils_rsp(uint8_t a
      +                          ddress, uint16_t start_address,;../modbus/modbus_app_layer_slave.c: 382:                
      +                                                   uint16_t quantity);../modbus/modbus_app_layer_slave.c: 383: {;.
      +                          ./modbus/modbus_app_layer_slave.c: 384:    modbus_serial_send_start(address, FUNC_WRITE_
      +                          MULTIPLE_COILS);
  2444  0015C0  0E0F               	movlw	15
  2445  0015C2  0102               	movlb	2	; () banked
  2446  0015C4  6FFD               	movwf	modbus_serial_send_start@func& (0+255),b
  2447  0015C6  0103               	movlb	3	; () banked
  2448  0015C8  518B               	movf	modbus_write_multiple_coils_rsp@address& (0+255),w,b
  2449  0015CA  EC93  F00B         	call	_modbus_serial_send_start
  2450                           
  2451                           ;../modbus/modbus_app_layer_slave.c: 386:    modbus_serial_putc((uint8_t)(start_address>
      +                          >8));
  2452  0015CE  0103               	movlb	3	; () banked
  2453  0015D0  5188               	movf	(modbus_write_multiple_coils_rsp@start_address+1)& (0+255),w,b
  2454  0015D2  ECBF  F00C         	call	_modbus_serial_putc
  2455                           
  2456                           ;../modbus/modbus_app_layer_slave.c: 387:    modbus_serial_putc((uint8_t)(start_address)
      +                          );
  2457  0015D6  0103               	movlb	3	; () banked
  2458  0015D8  5187               	movf	modbus_write_multiple_coils_rsp@start_address& (0+255),w,b
  2459  0015DA  ECBF  F00C         	call	_modbus_serial_putc
  2460                           
  2461                           ;../modbus/modbus_app_layer_slave.c: 389:    modbus_serial_putc((uint8_t)(quantity>>8));
  2462  0015DE  0103               	movlb	3	; () banked
  2463  0015E0  518A               	movf	(modbus_write_multiple_coils_rsp@quantity+1)& (0+255),w,b
  2464  0015E2  ECBF  F00C         	call	_modbus_serial_putc
  2465                           
  2466                           ;../modbus/modbus_app_layer_slave.c: 390:    modbus_serial_putc((uint8_t)(quantity));
  2467  0015E6  0103               	movlb	3	; () banked
  2468  0015E8  5189               	movf	modbus_write_multiple_coils_rsp@quantity& (0+255),w,b
  2469  0015EA  ECBF  F00C         	call	_modbus_serial_putc
  2470                           
  2471                           ;../modbus/modbus_app_layer_slave.c: 392:    modbus_serial_send_stop();
  2472  0015EE  EC16  F007         	call	_modbus_serial_send_stop	;wreg free
  2473  0015F2  0012               	return		;funcret
  2474  0015F4                     __end_of_modbus_write_multiple_coils_rsp:
  2475                           	callstack 0
  2476                           
  2477 ;; *************** function _modbus_read_holding_registers_rsp *****************
  2478 ;; Defined at:
  2479 ;;		line 197 in file "../modbus/modbus_app_layer_slave.c"
  2480 ;; Parameters:    Size  Location     Type
  2481 ;;  address         1    wreg     unsigned char 
  2482 ;;  byte_count      1    6[BANK3 ] unsigned char 
  2483 ;;  reg_data        2    7[BANK3 ] PTR unsigned short 
  2484 ;;		 -> hold_regs(100), 
  2485 ;; Auto vars:     Size  Location     Type
  2486 ;;  address         1   11[BANK3 ] unsigned char 
  2487 ;;  i               1   12[BANK3 ] unsigned char 
  2488 ;; Return value:  Size  Location     Type
  2489 ;;                  1    wreg      void 
  2490 ;; Registers used:
  2491 ;;		wreg, fsr2l, fsr2h, status,2, status,0, tblptrl, tblptrh, tblptru, cstack
  2492 ;; Tracked objects:
  2493 ;;		On entry : 0/0
  2494 ;;		On exit  : 0/0
  2495 ;;		Unchanged: 0/0
  2496 ;; Data sizes:     COMRAM   BANK0   BANK1   BANK2   BANK3   BANK4   BANK5   BANK6   BANK7
  2497 ;;      Params:         0       0       0       0       3       0       0       0       0
  2498 ;;      Locals:         0       0       0       0       2       0       0       0       0
  2499 ;;      Temps:          0       0       0       0       2       0       0       0       0
  2500 ;;      Totals:         0       0       0       0       7       0       0       0       0
  2501 ;;Total ram usage:        7 bytes
  2502 ;; Hardware stack levels used: 1
  2503 ;; Hardware stack levels required when called: 20
  2504 ;; This function calls:
  2505 ;;		_modbus_serial_putc
  2506 ;;		_modbus_serial_send_start
  2507 ;;		_modbus_serial_send_stop
  2508 ;; This function is called by:
  2509 ;;		_main
  2510 ;; This function uses a non-reentrant model
  2511 ;;
  2512                           
  2513                           	psect	text6
  2514  000CAE                     __ptext6:
  2515                           	callstack 0
  2516  000CAE                     _modbus_read_holding_registers_rsp:
  2517                           	callstack 10
  2518                           
  2519                           ;incstack = 0
  2520                           ;modbus_read_holding_registers_rsp@address stored from wreg
  2521  000CAE  0103               	movlb	3	; () banked
  2522  000CB0  6F8B               	movwf	modbus_read_holding_registers_rsp@address& (0+255),b
  2523  000CB2                     
  2524                           ;../modbus/modbus_app_layer_slave.c: 197: void modbus_read_holding_registers_rsp(uint8_t
      +                           address, uint8_t byte_count,;../modbus/modbus_app_layer_slave.c: 198:                  
      +                                                 uint16_t *reg_data);../modbus/modbus_app_layer_slave.c: 199: {;..
      +                          /modbus/modbus_app_layer_slave.c: 200:     uint8_t i;;../modbus/modbus_app_layer_slave.c
      +                          : 202:     modbus_serial_send_start(address, FUNC_READ_HOLDING_REGISTERS);
  2525  000CB2  0E03               	movlw	3
  2526  000CB4  0102               	movlb	2	; () banked
  2527  000CB6  6FFD               	movwf	modbus_serial_send_start@func& (0+255),b
  2528  000CB8  0103               	movlb	3	; () banked
  2529  000CBA  518B               	movf	modbus_read_holding_registers_rsp@address& (0+255),w,b
  2530  000CBC  EC93  F00B         	call	_modbus_serial_send_start
  2531                           
  2532                           ;../modbus/modbus_app_layer_slave.c: 204:     modbus_serial_putc(byte_count);
  2533  000CC0  0103               	movlb	3	; () banked
  2534  000CC2  5186               	movf	modbus_read_holding_registers_rsp@byte_count& (0+255),w,b
  2535  000CC4  ECBF  F00C         	call	_modbus_serial_putc
  2536  000CC8                     
  2537                           ;../modbus/modbus_app_layer_slave.c: 206:     for(i=0; i < byte_count; i+=2)
  2538  000CC8  0E00               	movlw	0
  2539  000CCA  0103               	movlb	3	; () banked
  2540  000CCC  6F8C               	movwf	modbus_read_holding_registers_rsp@i& (0+255),b
  2541  000CCE  EF8B  F006         	goto	l7525
  2542  000CD2                     l7519:
  2543                           
  2544                           ; BSR set to: 3
  2545                           ;../modbus/modbus_app_layer_slave.c: 207:     {;../modbus/modbus_app_layer_slave.c: 208:
      +                                   modbus_serial_putc((uint8_t)(*reg_data>>8));
  2546  000CD2  0060  FE1F  FFD9   	movff	modbus_read_holding_registers_rsp@reg_data,fsr2l
  2547  000CD8  0060  FE23  FFDA   	movff	modbus_read_holding_registers_rsp@reg_data+1,fsr2h
  2548  000CDE  006F FF78  F389    	movff	postinc2,??_modbus_read_holding_registers_rsp
  2549  000CE4  006F FF74  F38A    	movff	postdec2,??_modbus_read_holding_registers_rsp+1
  2550  000CEA  C38A  F389         	movff	??_modbus_read_holding_registers_rsp+1,??_modbus_read_holding_registers_rsp
  2551  000CEE  6B8A               	clrf	(??_modbus_read_holding_registers_rsp+1)& (0+255),b
  2552  000CF0  5189               	movf	??_modbus_read_holding_registers_rsp& (0+255),w,b
  2553  000CF2  ECBF  F00C         	call	_modbus_serial_putc
  2554                           
  2555                           ;../modbus/modbus_app_layer_slave.c: 209:         modbus_serial_putc((uint8_t)(*reg_data
      +                          ));
  2556  000CF6  0060  FE1F  FFD9   	movff	modbus_read_holding_registers_rsp@reg_data,fsr2l
  2557  000CFC  0060  FE23  FFDA   	movff	modbus_read_holding_registers_rsp@reg_data+1,fsr2h
  2558  000D02  50DF               	movf	indf2,w,c
  2559  000D04  ECBF  F00C         	call	_modbus_serial_putc
  2560  000D08                     
  2561                           ;../modbus/modbus_app_layer_slave.c: 210:         reg_data++;
  2562  000D08  0E02               	movlw	2
  2563  000D0A  0103               	movlb	3	; () banked
  2564  000D0C  2787               	addwf	modbus_read_holding_registers_rsp@reg_data& (0+255),f,b
  2565  000D0E  0E00               	movlw	0
  2566  000D10  2388               	addwfc	(modbus_read_holding_registers_rsp@reg_data+1)& (0+255),f,b
  2567  000D12                     
  2568                           ; BSR set to: 3
  2569                           ;../modbus/modbus_app_layer_slave.c: 211:     }
  2570  000D12  0E02               	movlw	2
  2571  000D14  278C               	addwf	modbus_read_holding_registers_rsp@i& (0+255),f,b
  2572  000D16                     l7525:
  2573                           
  2574                           ; BSR set to: 3
  2575  000D16  5186               	movf	modbus_read_holding_registers_rsp@byte_count& (0+255),w,b
  2576  000D18  5D8C               	subwf	modbus_read_holding_registers_rsp@i& (0+255),w,b
  2577  000D1A  A0D8               	btfss	status,0,c
  2578  000D1C  EF92  F006         	goto	u3631
  2579  000D20  EF94  F006         	goto	u3630
  2580  000D24                     u3631:
  2581  000D24  EF69  F006         	goto	l7519
  2582  000D28                     u3630:
  2583  000D28                     
  2584                           ; BSR set to: 3
  2585                           ;../modbus/modbus_app_layer_slave.c: 213:     modbus_serial_send_stop();
  2586  000D28  EC16  F007         	call	_modbus_serial_send_stop	;wreg free
  2587  000D2C  0012               	return		;funcret
  2588  000D2E                     __end_of_modbus_read_holding_registers_rsp:
  2589                           	callstack 0
  2590                           
  2591 ;; *************** function _modbus_read_discrete_input_rsp *****************
  2592 ;; Defined at:
  2593 ;;		line 172 in file "../modbus/modbus_app_layer_slave.c"
  2594 ;; Parameters:    Size  Location     Type
  2595 ;;  address         1    wreg     unsigned char 
  2596 ;;  byte_count      1    6[BANK3 ] unsigned char 
  2597 ;;  input_data      2    7[BANK3 ] PTR unsigned char 
  2598 ;;		 -> data_read_coil(1), 
  2599 ;; Auto vars:     Size  Location     Type
  2600 ;;  address         1    9[BANK3 ] unsigned char 
  2601 ;;  i               1   10[BANK3 ] unsigned char 
  2602 ;; Return value:  Size  Location     Type
  2603 ;;                  1    wreg      void 
  2604 ;; Registers used:
  2605 ;;		wreg, fsr2l, fsr2h, status,2, status,0, tblptrl, tblptrh, tblptru, cstack
  2606 ;; Tracked objects:
  2607 ;;		On entry : 0/0
  2608 ;;		On exit  : 0/0
  2609 ;;		Unchanged: 0/0
  2610 ;; Data sizes:     COMRAM   BANK0   BANK1   BANK2   BANK3   BANK4   BANK5   BANK6   BANK7
  2611 ;;      Params:         0       0       0       0       3       0       0       0       0
  2612 ;;      Locals:         0       0       0       0       2       0       0       0       0
  2613 ;;      Temps:          0       0       0       0       0       0       0       0       0
  2614 ;;      Totals:         0       0       0       0       5       0       0       0       0
  2615 ;;Total ram usage:        5 bytes
  2616 ;; Hardware stack levels used: 1
  2617 ;; Hardware stack levels required when called: 20
  2618 ;; This function calls:
  2619 ;;		_modbus_serial_putc
  2620 ;;		_modbus_serial_send_start
  2621 ;;		_modbus_serial_send_stop
  2622 ;; This function is called by:
  2623 ;;		_main
  2624 ;; This function uses a non-reentrant model
  2625 ;;
  2626                           
  2627                           	psect	text7
  2628  00121C                     __ptext7:
  2629                           	callstack 0
  2630  00121C                     _modbus_read_discrete_input_rsp:
  2631                           	callstack 10
  2632                           
  2633                           ;incstack = 0
  2634                           ;modbus_read_discrete_input_rsp@address stored from wreg
  2635  00121C  0103               	movlb	3	; () banked
  2636  00121E  6F89               	movwf	modbus_read_discrete_input_rsp@address& (0+255),b
  2637  001220                     
  2638                           ;../modbus/modbus_app_layer_slave.c: 172: void modbus_read_discrete_input_rsp(uint8_t ad
      +                          dress, uint8_t byte_count,;../modbus/modbus_app_layer_slave.c: 173:                     
      +                                          uint8_t *input_data);../modbus/modbus_app_layer_slave.c: 174: {;../modbu
      +                          s/modbus_app_layer_slave.c: 175:     uint8_t i;;../modbus/modbus_app_layer_slave.c: 177:
      +                               modbus_serial_send_start(address, FUNC_READ_DISCRETE_INPUT);
  2639  001220  0E02               	movlw	2
  2640  001222  0102               	movlb	2	; () banked
  2641  001224  6FFD               	movwf	modbus_serial_send_start@func& (0+255),b
  2642  001226  0103               	movlb	3	; () banked
  2643  001228  5189               	movf	modbus_read_discrete_input_rsp@address& (0+255),w,b
  2644  00122A  EC93  F00B         	call	_modbus_serial_send_start
  2645                           
  2646                           ;../modbus/modbus_app_layer_slave.c: 179:     modbus_serial_putc(byte_count);
  2647  00122E  0103               	movlb	3	; () banked
  2648  001230  5186               	movf	modbus_read_discrete_input_rsp@byte_count& (0+255),w,b
  2649  001232  ECBF  F00C         	call	_modbus_serial_putc
  2650  001236                     
  2651                           ;../modbus/modbus_app_layer_slave.c: 181:     for(i=0; i < byte_count; ++i)
  2652  001236  0E00               	movlw	0
  2653  001238  0103               	movlb	3	; () banked
  2654  00123A  6F8A               	movwf	modbus_read_discrete_input_rsp@i& (0+255),b
  2655  00123C  EF2D  F009         	goto	l7511
  2656  001240                     l7505:
  2657                           
  2658                           ; BSR set to: 3
  2659                           ;../modbus/modbus_app_layer_slave.c: 182:     {;../modbus/modbus_app_layer_slave.c: 183:
      +                                   modbus_serial_putc(*input_data);
  2660  001240  0060  FE1F  FFD9   	movff	modbus_read_discrete_input_rsp@input_data,fsr2l
  2661  001246  0060  FE23  FFDA   	movff	modbus_read_discrete_input_rsp@input_data+1,fsr2h
  2662  00124C  50DF               	movf	indf2,w,c
  2663  00124E  ECBF  F00C         	call	_modbus_serial_putc
  2664  001252                     
  2665                           ;../modbus/modbus_app_layer_slave.c: 184:         input_data++;
  2666  001252  0103               	movlb	3	; () banked
  2667  001254  4B87               	infsnz	modbus_read_discrete_input_rsp@input_data& (0+255),f,b
  2668  001256  2B88               	incf	(modbus_read_discrete_input_rsp@input_data+1)& (0+255),f,b
  2669  001258                     
  2670                           ; BSR set to: 3
  2671                           ;../modbus/modbus_app_layer_slave.c: 185:     }
  2672  001258  2B8A               	incf	modbus_read_discrete_input_rsp@i& (0+255),f,b
  2673  00125A                     l7511:
  2674                           
  2675                           ; BSR set to: 3
  2676  00125A  5186               	movf	modbus_read_discrete_input_rsp@byte_count& (0+255),w,b
  2677  00125C  5D8A               	subwf	modbus_read_discrete_input_rsp@i& (0+255),w,b
  2678  00125E  A0D8               	btfss	status,0,c
  2679  001260  EF34  F009         	goto	u3621
  2680  001264  EF36  F009         	goto	u3620
  2681  001268                     u3621:
  2682  001268  EF20  F009         	goto	l7505
  2683  00126C                     u3620:
  2684  00126C                     
  2685                           ; BSR set to: 3
  2686                           ;../modbus/modbus_app_layer_slave.c: 187:     modbus_serial_send_stop();
  2687  00126C  EC16  F007         	call	_modbus_serial_send_stop	;wreg free
  2688  001270  0012               	return		;funcret
  2689  001272                     __end_of_modbus_read_discrete_input_rsp:
  2690                           	callstack 0
  2691                           
  2692 ;; *************** function _modbus_read_coils_rsp *****************
  2693 ;; Defined at:
  2694 ;;		line 149 in file "../modbus/modbus_app_layer_slave.c"
  2695 ;; Parameters:    Size  Location     Type
  2696 ;;  address         1    wreg     unsigned char 
  2697 ;;  byte_count      1    6[BANK3 ] unsigned char 
  2698 ;;  coil_data       2    7[BANK3 ] PTR unsigned char 
  2699 ;;		 -> data_read_coil(1), 
  2700 ;; Auto vars:     Size  Location     Type
  2701 ;;  address         1    9[BANK3 ] unsigned char 
  2702 ;;  i               1   10[BANK3 ] unsigned char 
  2703 ;; Return value:  Size  Location     Type
  2704 ;;                  1    wreg      void 
  2705 ;; Registers used:
  2706 ;;		wreg, fsr2l, fsr2h, status,2, status,0, tblptrl, tblptrh, tblptru, cstack
  2707 ;; Tracked objects:
  2708 ;;		On entry : 0/0
  2709 ;;		On exit  : 0/0
  2710 ;;		Unchanged: 0/0
  2711 ;; Data sizes:     COMRAM   BANK0   BANK1   BANK2   BANK3   BANK4   BANK5   BANK6   BANK7
  2712 ;;      Params:         0       0       0       0       3       0       0       0       0
  2713 ;;      Locals:         0       0       0       0       2       0       0       0       0
  2714 ;;      Temps:          0       0       0       0       0       0       0       0       0
  2715 ;;      Totals:         0       0       0       0       5       0       0       0       0
  2716 ;;Total ram usage:        5 bytes
  2717 ;; Hardware stack levels used: 1
  2718 ;; Hardware stack levels required when called: 20
  2719 ;; This function calls:
  2720 ;;		_modbus_serial_putc
  2721 ;;		_modbus_serial_send_start
  2722 ;;		_modbus_serial_send_stop
  2723 ;; This function is called by:
  2724 ;;		_main
  2725 ;; This function uses a non-reentrant model
  2726 ;;
  2727                           
  2728                           	psect	text8
  2729  001272                     __ptext8:
  2730                           	callstack 0
  2731  001272                     _modbus_read_coils_rsp:
  2732                           	callstack 10
  2733                           
  2734                           ;incstack = 0
  2735                           ;modbus_read_coils_rsp@address stored from wreg
  2736  001272  0103               	movlb	3	; () banked
  2737  001274  6F89               	movwf	modbus_read_coils_rsp@address& (0+255),b
  2738  001276                     
  2739                           ;../modbus/modbus_app_layer_slave.c: 149: void modbus_read_coils_rsp(uint8_t address, ui
      +                          nt8_t byte_count, uint8_t* coil_data);../modbus/modbus_app_layer_slave.c: 150: {;../modb
      +                          us/modbus_app_layer_slave.c: 151:     uint8_t i;;../modbus/modbus_app_layer_slave.c: 152
      +                          :     modbus_serial_send_start(address, FUNC_READ_COILS);
  2740  001276  0E01               	movlw	1
  2741  001278  0102               	movlb	2	; () banked
  2742  00127A  6FFD               	movwf	modbus_serial_send_start@func& (0+255),b
  2743  00127C  0103               	movlb	3	; () banked
  2744  00127E  5189               	movf	modbus_read_coils_rsp@address& (0+255),w,b
  2745  001280  EC93  F00B         	call	_modbus_serial_send_start
  2746                           
  2747                           ;../modbus/modbus_app_layer_slave.c: 154:     modbus_serial_putc(byte_count);
  2748  001284  0103               	movlb	3	; () banked
  2749  001286  5186               	movf	modbus_read_coils_rsp@byte_count& (0+255),w,b
  2750  001288  ECBF  F00C         	call	_modbus_serial_putc
  2751  00128C                     
  2752                           ;../modbus/modbus_app_layer_slave.c: 156:     for(i=0; i < byte_count; ++i)
  2753  00128C  0E00               	movlw	0
  2754  00128E  0103               	movlb	3	; () banked
  2755  001290  6F8A               	movwf	modbus_read_coils_rsp@i& (0+255),b
  2756  001292  EF58  F009         	goto	l7497
  2757  001296                     l7491:
  2758                           
  2759                           ; BSR set to: 3
  2760                           ;../modbus/modbus_app_layer_slave.c: 157:     {;../modbus/modbus_app_layer_slave.c: 158:
      +                                   modbus_serial_putc(*coil_data);
  2761  001296  0060  FE1F  FFD9   	movff	modbus_read_coils_rsp@coil_data,fsr2l
  2762  00129C  0060  FE23  FFDA   	movff	modbus_read_coils_rsp@coil_data+1,fsr2h
  2763  0012A2  50DF               	movf	indf2,w,c
  2764  0012A4  ECBF  F00C         	call	_modbus_serial_putc
  2765  0012A8                     
  2766                           ;../modbus/modbus_app_layer_slave.c: 159:         coil_data++;
  2767  0012A8  0103               	movlb	3	; () banked
  2768  0012AA  4B87               	infsnz	modbus_read_coils_rsp@coil_data& (0+255),f,b
  2769  0012AC  2B88               	incf	(modbus_read_coils_rsp@coil_data+1)& (0+255),f,b
  2770  0012AE                     
  2771                           ; BSR set to: 3
  2772                           ;../modbus/modbus_app_layer_slave.c: 160:     }
  2773  0012AE  2B8A               	incf	modbus_read_coils_rsp@i& (0+255),f,b
  2774  0012B0                     l7497:
  2775                           
  2776                           ; BSR set to: 3
  2777  0012B0  5186               	movf	modbus_read_coils_rsp@byte_count& (0+255),w,b
  2778  0012B2  5D8A               	subwf	modbus_read_coils_rsp@i& (0+255),w,b
  2779  0012B4  A0D8               	btfss	status,0,c
  2780  0012B6  EF5F  F009         	goto	u3611
  2781  0012BA  EF61  F009         	goto	u3610
  2782  0012BE                     u3611:
  2783  0012BE  EF4B  F009         	goto	l7491
  2784  0012C2                     u3610:
  2785  0012C2                     
  2786                           ; BSR set to: 3
  2787                           ;../modbus/modbus_app_layer_slave.c: 162:     modbus_serial_send_stop();
  2788  0012C2  EC16  F007         	call	_modbus_serial_send_stop	;wreg free
  2789  0012C6  0012               	return		;funcret
  2790  0012C8                     __end_of_modbus_read_coils_rsp:
  2791                           	callstack 0
  2792                           
  2793 ;; *************** function _modbus_kbhit *****************
  2794 ;; Defined at:
  2795 ;;		line 96 in file "../modbus/modbus_app_layer_slave.c"
  2796 ;; Parameters:    Size  Location     Type
  2797 ;;		None
  2798 ;; Auto vars:     Size  Location     Type
  2799 ;;		None
  2800 ;; Return value:  Size  Location     Type
  2801 ;;                  1    wreg      enum E16047
  2802 ;; Registers used:
  2803 ;;		wreg, fsr2l, fsr2h, status,2, status,0, cstack
  2804 ;; Tracked objects:
  2805 ;;		On entry : 0/0
  2806 ;;		On exit  : 0/0
  2807 ;;		Unchanged: 0/0
  2808 ;; Data sizes:     COMRAM   BANK0   BANK1   BANK2   BANK3   BANK4   BANK5   BANK6   BANK7
  2809 ;;      Params:         0       0       0       0       0       0       0       0       0
  2810 ;;      Locals:         0       0       0       0       0       0       0       0       0
  2811 ;;      Temps:          0       0       0       0       0       0       0       0       0
  2812 ;;      Totals:         0       0       0       0       0       0       0       0       0
  2813 ;;Total ram usage:        0 bytes
  2814 ;; Hardware stack levels used: 1
  2815 ;; Hardware stack levels required when called: 19
  2816 ;; This function calls:
  2817 ;;		_modbus_check_timeout
  2818 ;; This function is called by:
  2819 ;;		_main
  2820 ;; This function uses a non-reentrant model
  2821 ;;
  2822                           
  2823                           	psect	text9
  2824  0013C0                     __ptext9:
  2825                           	callstack 0
  2826  0013C0                     _modbus_kbhit:
  2827                           	callstack 11
  2828  0013C0                     
  2829                           ;../modbus/modbus_app_layer_slave.c: 99:  modbus_check_timeout();
  2830  0013C0  EC2B  F00A         	call	_modbus_check_timeout	;wreg free
  2831  0013C4                     
  2832                           ;../modbus/modbus_app_layer_slave.c: 101:     if (!modbus_serial_new)
  2833  0013C4  0100               	movlb	0	; () banked
  2834  0013C6  51FB               	movf	_modbus_serial_new& (0+255),w,b
  2835  0013C8  A4D8               	btfss	status,2,c
  2836  0013CA  EFE9  F009         	goto	u3591
  2837  0013CE  EFEB  F009         	goto	u3590
  2838  0013D2                     u3591:
  2839  0013D2  EFEE  F009         	goto	l7477
  2840  0013D6                     u3590:
  2841  0013D6                     
  2842                           ; BSR set to: 0
  2843                           ;../modbus/modbus_app_layer_slave.c: 102:     {;../modbus/modbus_app_layer_slave.c: 103:
      +                                   return FALSE;
  2844  0013D6  0E00               	movlw	0
  2845  0013D8  EF05  F00A         	goto	l839
  2846  0013DC                     l7477:
  2847                           
  2848                           ; BSR set to: 0
  2849  0013DC  EE21  F200         	lfsr	2,_modbus_rx+2
  2850  0013E0  AEDF               	btfss	indf2,7,c
  2851  0013E2  EFF5  F009         	goto	u3601
  2852  0013E6  EFF7  F009         	goto	u3600
  2853  0013EA                     u3601:
  2854  0013EA  EFFE  F009         	goto	l7481
  2855  0013EE                     u3600:
  2856  0013EE                     
  2857                           ; BSR set to: 0
  2858                           ;../modbus/modbus_app_layer_slave.c: 106:     {;../modbus/modbus_app_layer_slave.c: 107:
      +                                 modbus_rx.error = modbus_rx.data[0];
  2859  0013EE  0061  F808  F601   	movff	_modbus_rx+4,_modbus_rx+3
  2860                           
  2861                           ;../modbus/modbus_app_layer_slave.c: 108:       modbus_rx.len = 1;
  2862  0013F4  0E01               	movlw	1
  2863  0013F6  006F FFA0  F5FF    	movff	wreg,_modbus_rx+1
  2864  0013FC                     l7481:
  2865                           
  2866                           ; BSR set to: 0
  2867                           ;../modbus/modbus_app_layer_slave.c: 110:     modbus_serial_new = FALSE;
  2868  0013FC  0E00               	movlw	0
  2869  0013FE  6FFB               	movwf	_modbus_serial_new& (0+255),b
  2870                           
  2871                           ;../modbus/modbus_app_layer_slave.c: 111:     finish = 1;
  2872  001400  0E01               	movlw	1
  2873  001402  6E4B               	movwf	_finish^0,c
  2874                           
  2875                           ;../modbus/modbus_app_layer_slave.c: 112:     count = 0;
  2876  001404  0E00               	movlw	0
  2877  001406  6E21               	movwf	_count^0,c
  2878  001408                     
  2879                           ; BSR set to: 0
  2880                           ;../modbus/modbus_app_layer_slave.c: 113:     return TRUE;
  2881  001408  0E01               	movlw	1
  2882  00140A                     l839:
  2883                           
  2884                           ; BSR set to: 0
  2885  00140A  0012               	return		;funcret
  2886  00140C                     __end_of_modbus_kbhit:
  2887                           	callstack 0
  2888                           
  2889 ;; *************** function _modbus_check_timeout *****************
  2890 ;; Defined at:
  2891 ;;		line 175 in file "../modbus/modbus_phy_layer_rtu_slave.c"
  2892 ;; Parameters:    Size  Location     Type
  2893 ;;		None
  2894 ;; Auto vars:     Size  Location     Type
  2895 ;;		None
  2896 ;; Return value:  Size  Location     Type
  2897 ;;                  1    wreg      void 
  2898 ;; Registers used:
  2899 ;;		wreg, status,2, status,0, cstack
  2900 ;; Tracked objects:
  2901 ;;		On entry : 0/0
  2902 ;;		On exit  : 0/0
  2903 ;;		Unchanged: 0/0
  2904 ;; Data sizes:     COMRAM   BANK0   BANK1   BANK2   BANK3   BANK4   BANK5   BANK6   BANK7
  2905 ;;      Params:         0       0       0       0       0       0       0       0       0
  2906 ;;      Locals:         0       0       0       0       0       0       0       0       0
  2907 ;;      Temps:          0       0       0       0       0       0       0       0       0
  2908 ;;      Totals:         0       0       0       0       0       0       0       0       0
  2909 ;;Total ram usage:        0 bytes
  2910 ;; Hardware stack levels used: 1
  2911 ;; Hardware stack levels required when called: 18
  2912 ;; This function calls:
  2913 ;;		_modbus_timeout_now
  2914 ;; This function is called by:
  2915 ;;		_modbus_kbhit
  2916 ;; This function uses a non-reentrant model
  2917 ;;
  2918                           
  2919                           	psect	text10
  2920  001456                     __ptext10:
  2921                           	callstack 0
  2922  001456                     _modbus_check_timeout:
  2923                           	callstack 11
  2924  001456                     
  2925                           ;../modbus/modbus_phy_layer_rtu_slave.c: 176:     if (flag_has_data == 1) {
  2926  001456  0407               	decf	_flag_has_data^0,w,c
  2927  001458  A4D8               	btfss	status,2,c
  2928  00145A  EF31  F00A         	goto	u3521
  2929  00145E  EF33  F00A         	goto	u3520
  2930  001462                     u3521:
  2931  001462  EF4C  F00A         	goto	l1060
  2932  001466                     u3520:
  2933  001466                     
  2934                           ;../modbus/modbus_phy_layer_rtu_slave.c: 177:         if (modbus_timeout_enabled && (tim
      +                          er_modbus >=10)) {
  2935  001466  501C               	movf	_modbus_timeout_enabled^0,w,c
  2936  001468  B4D8               	btfsc	status,2,c
  2937  00146A  EF39  F00A         	goto	u3531
  2938  00146E  EF3B  F00A         	goto	u3530
  2939  001472                     u3531:
  2940  001472  EF4C  F00A         	goto	l1060
  2941  001476                     u3530:
  2942  001476  5004               	movf	(_timer_modbus+1)^0,w,c	;volatile
  2943  001478  E109               	bnz	u3540
  2944  00147A  0E0A               	movlw	10
  2945  00147C  5C03               	subwf	_timer_modbus^0,w,c	;volatile
  2946  00147E  A0D8               	btfss	status,0,c
  2947  001480  EF44  F00A         	goto	u3541
  2948  001484  EF46  F00A         	goto	u3540
  2949  001488                     u3541:
  2950  001488  EF4C  F00A         	goto	l1060
  2951  00148C                     u3540:
  2952  00148C                     
  2953                           ;../modbus/modbus_phy_layer_rtu_slave.c: 178:             flag_has_data = 0;
  2954  00148C  0E00               	movlw	0
  2955  00148E  6E07               	movwf	_flag_has_data^0,c
  2956  001490                     
  2957                           ;../modbus/modbus_phy_layer_rtu_slave.c: 180:             modbus_timeout_now();
  2958  001490  ECA9  F008         	call	_modbus_timeout_now	;wreg free
  2959  001494                     
  2960                           ;../modbus/modbus_phy_layer_rtu_slave.c: 181:             next_flag = 0;
  2961  001494  0E00               	movlw	0
  2962  001496  6E15               	movwf	_next_flag^0,c
  2963  001498                     l1060:
  2964  001498  0012               	return		;funcret
  2965  00149A                     __end_of_modbus_check_timeout:
  2966                           	callstack 0
  2967                           
  2968 ;; *************** function _modbus_timeout_now *****************
  2969 ;; Defined at:
  2970 ;;		line 158 in file "../modbus/modbus_phy_layer_rtu_slave.c"
  2971 ;; Parameters:    Size  Location     Type
  2972 ;;		None
  2973 ;; Auto vars:     Size  Location     Type
  2974 ;;		None
  2975 ;; Return value:  Size  Location     Type
  2976 ;;                  1    wreg      void 
  2977 ;; Registers used:
  2978 ;;		wreg, status,2, status,0, cstack
  2979 ;; Tracked objects:
  2980 ;;		On entry : 0/0
  2981 ;;		On exit  : 0/0
  2982 ;;		Unchanged: 0/0
  2983 ;; Data sizes:     COMRAM   BANK0   BANK1   BANK2   BANK3   BANK4   BANK5   BANK6   BANK7
  2984 ;;      Params:         0       0       0       0       0       0       0       0       0
  2985 ;;      Locals:         0       0       0       0       0       0       0       0       0
  2986 ;;      Temps:          0       0       0       0       0       0       0       0       0
  2987 ;;      Totals:         0       0       0       0       0       0       0       0       0
  2988 ;;Total ram usage:        0 bytes
  2989 ;; Hardware stack levels used: 1
  2990 ;; Hardware stack levels required when called: 17
  2991 ;; This function calls:
  2992 ;;		_RCV_ON
  2993 ;;		_modbus_enable_timeout
  2994 ;; This function is called by:
  2995 ;;		_modbus_check_timeout
  2996 ;; This function uses a non-reentrant model
  2997 ;;
  2998                           
  2999                           	psect	text11
  3000  001152                     __ptext11:
  3001                           	callstack 0
  3002  001152                     _modbus_timeout_now:
  3003                           	callstack 11
  3004  001152                     
  3005                           ;../modbus/modbus_phy_layer_rtu_slave.c: 159:     if ((modbus_serial_state == MODBUS_GET
      +                          DATA) && (!modbus_serial_new) && (modbus_serial_crc.d == 0x0000)) {
  3006  001152  0E02               	movlw	2
  3007  001154  0100               	movlb	0	; () banked
  3008  001156  19FA               	xorwf	_modbus_serial_state& (0+255),w,b
  3009  001158  A4D8               	btfss	status,2,c
  3010  00115A  EFB1  F008         	goto	u3491
  3011  00115E  EFB3  F008         	goto	u3490
  3012  001162                     u3491:
  3013  001162  EFCF  F008         	goto	l7247
  3014  001166                     u3490:
  3015  001166                     
  3016                           ; BSR set to: 0
  3017  001166  51FB               	movf	_modbus_serial_new& (0+255),w,b
  3018  001168  A4D8               	btfss	status,2,c
  3019  00116A  EFB9  F008         	goto	u3501
  3020  00116E  EFBB  F008         	goto	u3500
  3021  001172                     u3501:
  3022  001172  EFCF  F008         	goto	l7247
  3023  001176                     u3500:
  3024  001176                     
  3025                           ; BSR set to: 0
  3026  001176  5001               	movf	_modbus_serial_crc^0,w,c
  3027  001178  1002               	iorwf	(_modbus_serial_crc+1)^0,w,c
  3028  00117A  A4D8               	btfss	status,2,c
  3029  00117C  EFC2  F008         	goto	u3511
  3030  001180  EFC4  F008         	goto	u3510
  3031  001184                     u3511:
  3032  001184  EFCF  F008         	goto	l7247
  3033  001188                     u3510:
  3034  001188                     
  3035                           ; BSR set to: 0
  3036                           ;../modbus/modbus_phy_layer_rtu_slave.c: 160:         modbus_rx.len -= 2;
  3037  001188  0061  F7FF  FFE8   	movff	_modbus_rx+1,wreg
  3038  00118E  0FFE               	addlw	-2
  3039  001190  006F FFA0  F5FF    	movff	wreg,_modbus_rx+1
  3040  001196                     
  3041                           ; BSR set to: 0
  3042                           ;../modbus/modbus_phy_layer_rtu_slave.c: 161:         modbus_serial_new = TRUE;
  3043  001196  0E01               	movlw	1
  3044  001198  6FFB               	movwf	_modbus_serial_new& (0+255),b
  3045                           
  3046                           ;../modbus/modbus_phy_layer_rtu_slave.c: 162:     }
  3047  00119A  EFD1  F008         	goto	l1054
  3048  00119E                     l7247:
  3049                           
  3050                           ; BSR set to: 0
  3051                           ;../modbus/modbus_phy_layer_rtu_slave.c: 164:         modbus_serial_new = FALSE;
  3052  00119E  0E00               	movlw	0
  3053  0011A0  6FFB               	movwf	_modbus_serial_new& (0+255),b
  3054  0011A2                     l1054:
  3055                           
  3056                           ; BSR set to: 0
  3057                           ;../modbus/modbus_phy_layer_rtu_slave.c: 166:     next_flag = 0;
  3058  0011A2  0E00               	movlw	0
  3059  0011A4  6E15               	movwf	_next_flag^0,c
  3060  0011A6                     
  3061                           ; BSR set to: 0
  3062                           ;../modbus/modbus_phy_layer_rtu_slave.c: 167:     modbus_serial_crc.d = 0xFFFF;
  3063  0011A6  6801               	setf	_modbus_serial_crc^0,c
  3064  0011A8  6802               	setf	(_modbus_serial_crc+1)^0,c
  3065                           
  3066                           ;../modbus/modbus_phy_layer_rtu_slave.c: 168:     modbus_serial_state = MODBUS_GETADDY;
  3067  0011AA  0E00               	movlw	0
  3068  0011AC  6FFA               	movwf	_modbus_serial_state& (0+255),b
  3069  0011AE                     
  3070                           ; BSR set to: 0
  3071                           ;../modbus/modbus_phy_layer_rtu_slave.c: 169:     modbus_enable_timeout(FALSE);
  3072  0011AE  0E00               	movlw	0
  3073  0011B0  EC4A  F00C         	call	_modbus_enable_timeout
  3074                           
  3075                           ;../modbus/modbus_phy_layer_rtu_slave.c: 170:     RCV_ON();
  3076  0011B4  EC3B  F00E         	call	_RCV_ON	;wreg free
  3077  0011B8  0012               	return		;funcret
  3078  0011BA                     __end_of_modbus_timeout_now:
  3079                           	callstack 0
  3080                           
  3081 ;; *************** function _modbus_enable_timeout *****************
  3082 ;; Defined at:
  3083 ;;		line 152 in file "../modbus/modbus_phy_layer_rtu_slave.c"
  3084 ;; Parameters:    Size  Location     Type
  3085 ;;  enable          1    wreg     enum E16047
  3086 ;; Auto vars:     Size  Location     Type
  3087 ;;  enable          1    0[BANK0 ] enum E16047
  3088 ;; Return value:  Size  Location     Type
  3089 ;;                  1    wreg      void 
  3090 ;; Registers used:
  3091 ;;		wreg, status,2
  3092 ;; Tracked objects:
  3093 ;;		On entry : 0/0
  3094 ;;		On exit  : 0/0
  3095 ;;		Unchanged: 0/0
  3096 ;; Data sizes:     COMRAM   BANK0   BANK1   BANK2   BANK3   BANK4   BANK5   BANK6   BANK7
  3097 ;;      Params:         0       0       0       0       0       0       0       0       0
  3098 ;;      Locals:         0       1       0       0       0       0       0       0       0
  3099 ;;      Temps:          0       0       0       0       0       0       0       0       0
  3100 ;;      Totals:         0       1       0       0       0       0       0       0       0
  3101 ;;Total ram usage:        1 bytes
  3102 ;; Hardware stack levels used: 1
  3103 ;; Hardware stack levels required when called: 16
  3104 ;; This function calls:
  3105 ;;		Nothing
  3106 ;; This function is called by:
  3107 ;;		_modbus_timeout_now
  3108 ;; This function uses a non-reentrant model
  3109 ;;
  3110                           
  3111                           	psect	text12
  3112  001894                     __ptext12:
  3113                           	callstack 0
  3114  001894                     _modbus_enable_timeout:
  3115                           	callstack 11
  3116                           
  3117                           ;incstack = 0
  3118                           ;modbus_enable_timeout@enable stored from wreg
  3119  001894  0100               	movlb	0	; () banked
  3120  001896  6FFF               	movwf	modbus_enable_timeout@enable& (0+255),b
  3121  001898                     
  3122                           ;../modbus/modbus_phy_layer_rtu_slave.c: 153:     modbus_timeout_enabled = enable;
  3123  001898  0100               	movlb	0	; () banked
  3124  00189A  51FF               	movf	modbus_enable_timeout@enable& (0+255),w,b
  3125  00189C  A4D8               	btfss	status,2,c
  3126  00189E  EF53  F00C         	goto	u3471
  3127  0018A2  EF56  F00C         	goto	u3470
  3128  0018A6                     u3471:
  3129  0018A6  0E01               	movlw	1
  3130  0018A8  EF57  F00C         	goto	u3480
  3131  0018AC                     u3470:
  3132  0018AC  0E00               	movlw	0
  3133  0018AE                     u3480:
  3134  0018AE  6E1C               	movwf	_modbus_timeout_enabled^0,c
  3135  0018B0                     
  3136                           ; BSR set to: 0
  3137  0018B0  0012               	return		;funcret
  3138  0018B2                     __end_of_modbus_enable_timeout:
  3139                           	callstack 0
  3140                           
  3141 ;; *************** function _modbus_init *****************
  3142 ;; Defined at:
  3143 ;;		line 64 in file "../modbus/modbus_app_layer_slave.c"
  3144 ;; Parameters:    Size  Location     Type
  3145 ;;		None
  3146 ;; Auto vars:     Size  Location     Type
  3147 ;;		None
  3148 ;; Return value:  Size  Location     Type
  3149 ;;                  1    wreg      void 
  3150 ;; Registers used:
  3151 ;;		wreg, status,2, cstack
  3152 ;; Tracked objects:
  3153 ;;		On entry : 0/0
  3154 ;;		On exit  : 0/0
  3155 ;;		Unchanged: 0/0
  3156 ;; Data sizes:     COMRAM   BANK0   BANK1   BANK2   BANK3   BANK4   BANK5   BANK6   BANK7
  3157 ;;      Params:         0       0       0       0       0       0       0       0       0
  3158 ;;      Locals:         0       0       0       0       0       0       0       0       0
  3159 ;;      Temps:          0       0       0       0       0       0       0       0       0
  3160 ;;      Totals:         0       0       0       0       0       0       0       0       0
  3161 ;;Total ram usage:        0 bytes
  3162 ;; Hardware stack levels used: 1
  3163 ;; Hardware stack levels required when called: 17
  3164 ;; This function calls:
  3165 ;;		_RCV_ON
  3166 ;; This function is called by:
  3167 ;;		_main
  3168 ;; This function uses a non-reentrant model
  3169 ;;
  3170                           
  3171                           	psect	text13
  3172  001854                     __ptext13:
  3173                           	callstack 0
  3174  001854                     _modbus_init:
  3175                           	callstack 13
  3176  001854                     
  3177                           ;../modbus/modbus_app_layer_slave.c: 69:    RCV_ON();
  3178  001854  EC3B  F00E         	call	_RCV_ON	;wreg free
  3179  001858  98BD               	bcf	189,4,c	;volatile
  3180  00185A                     
  3181                           ;../modbus/modbus_app_layer_slave.c: 73:    modbus_serial_new = FALSE;
  3182  00185A  0E00               	movlw	0
  3183  00185C  0100               	movlb	0	; () banked
  3184  00185E  6FFB               	movwf	_modbus_serial_new& (0+255),b
  3185  001860                     
  3186                           ; BSR set to: 0
  3187                           ;../modbus/modbus_app_layer_slave.c: 74:    modbus_serial_state = MODBUS_GETADDY;
  3188  001860  0E00               	movlw	0
  3189  001862  6FFA               	movwf	_modbus_serial_state& (0+255),b
  3190  001864                     
  3191                           ; BSR set to: 0
  3192                           ;../modbus/modbus_app_layer_slave.c: 75:    modbus_serial_crc.d=0xFFFF;
  3193  001864  6801               	setf	_modbus_serial_crc^0,c
  3194  001866  6802               	setf	(_modbus_serial_crc+1)^0,c
  3195  001868                     
  3196                           ; BSR set to: 0
  3197                           ;../modbus/modbus_app_layer_slave.c: 76:    PIR3bits.U1RXIF = 0;
  3198  001868  0139               	movlb	57	; () banked
  3199  00186A  97A3               	bcf	163,3,b	;volatile
  3200  00186C                     
  3201                           ; BSR set to: 57
  3202                           ;../modbus/modbus_app_layer_slave.c: 78:     PIE3bits.U1RXIE = 1;
  3203  00186C  8793               	bsf	147,3,b	;volatile
  3204  00186E                     
  3205                           ; BSR set to: 57
  3206                           ;../modbus/modbus_app_layer_slave.c: 80:     PIR6bits.U2RXIF = 0;
  3207  00186E  95A6               	bcf	166,2,b	;volatile
  3208  001870                     
  3209                           ; BSR set to: 57
  3210                           ;../modbus/modbus_app_layer_slave.c: 82:     PIE6bits.U2RXIE = 1;
  3211  001870  8596               	bsf	150,2,b	;volatile
  3212  001872                     
  3213                           ; BSR set to: 57
  3214  001872  0012               	return		;funcret
  3215  001874                     __end_of_modbus_init:
  3216                           	callstack 0
  3217                           
  3218 ;; *************** function _modbus_exception_rsp *****************
  3219 ;; Defined at:
  3220 ;;		line 607 in file "../modbus/modbus_app_layer_slave.c"
  3221 ;; Parameters:    Size  Location     Type
  3222 ;;  address         1    wreg     unsigned char 
  3223 ;;  func            2    6[BANK3 ] unsigned short 
  3224 ;;  error           1    8[BANK3 ] enum E2
  3225 ;; Auto vars:     Size  Location     Type
  3226 ;;  address         1    9[BANK3 ] unsigned char 
  3227 ;; Return value:  Size  Location     Type
  3228 ;;                  1    wreg      void 
  3229 ;; Registers used:
  3230 ;;		wreg, status,2, status,0, tblptrl, tblptrh, tblptru, cstack
  3231 ;; Tracked objects:
  3232 ;;		On entry : 0/0
  3233 ;;		On exit  : 0/0
  3234 ;;		Unchanged: 0/0
  3235 ;; Data sizes:     COMRAM   BANK0   BANK1   BANK2   BANK3   BANK4   BANK5   BANK6   BANK7
  3236 ;;      Params:         0       0       0       0       3       0       0       0       0
  3237 ;;      Locals:         0       0       0       0       1       0       0       0       0
  3238 ;;      Temps:          0       0       0       0       0       0       0       0       0
  3239 ;;      Totals:         0       0       0       0       4       0       0       0       0
  3240 ;;Total ram usage:        4 bytes
  3241 ;; Hardware stack levels used: 1
  3242 ;; Hardware stack levels required when called: 20
  3243 ;; This function calls:
  3244 ;;		_modbus_serial_putc
  3245 ;;		_modbus_serial_send_start
  3246 ;;		_modbus_serial_send_stop
  3247 ;; This function is called by:
  3248 ;;		_main
  3249 ;; This function uses a non-reentrant model
  3250 ;;
  3251                           
  3252                           	psect	text14
  3253  0017C8                     __ptext14:
  3254                           	callstack 0
  3255  0017C8                     _modbus_exception_rsp:
  3256                           	callstack 10
  3257                           
  3258                           ; BSR set to: 57
  3259                           ;incstack = 0
  3260                           ;modbus_exception_rsp@address stored from wreg
  3261  0017C8  0103               	movlb	3	; () banked
  3262  0017CA  6F89               	movwf	modbus_exception_rsp@address& (0+255),b
  3263  0017CC                     
  3264                           ;../modbus/modbus_app_layer_slave.c: 607: void modbus_exception_rsp(uint8_t address, uin
      +                          t16_t func, exception error);../modbus/modbus_app_layer_slave.c: 608: {;../modbus/modbus
      +                          _app_layer_slave.c: 609:    modbus_serial_send_start(address, func|0x80);
  3265  0017CC  0103               	movlb	3	; () banked
  3266  0017CE  5186               	movf	modbus_exception_rsp@func& (0+255),w,b
  3267  0017D0  0980               	iorlw	128
  3268  0017D2  0102               	movlb	2	; () banked
  3269  0017D4  6FFD               	movwf	modbus_serial_send_start@func& (0+255),b
  3270  0017D6  0103               	movlb	3	; () banked
  3271  0017D8  5189               	movf	modbus_exception_rsp@address& (0+255),w,b
  3272  0017DA  EC93  F00B         	call	_modbus_serial_send_start
  3273                           
  3274                           ;../modbus/modbus_app_layer_slave.c: 610:    modbus_serial_putc(error);
  3275  0017DE  0103               	movlb	3	; () banked
  3276  0017E0  5188               	movf	modbus_exception_rsp@error& (0+255),w,b
  3277  0017E2  ECBF  F00C         	call	_modbus_serial_putc
  3278                           
  3279                           ;../modbus/modbus_app_layer_slave.c: 611:    modbus_serial_send_stop();
  3280  0017E6  EC16  F007         	call	_modbus_serial_send_stop	;wreg free
  3281  0017EA  0012               	return		;funcret
  3282  0017EC                     __end_of_modbus_exception_rsp:
  3283                           	callstack 0
  3284                           
  3285 ;; *************** function _modbus_serial_send_stop *****************
  3286 ;; Defined at:
  3287 ;;		line 220 in file "../modbus/modbus_phy_layer_rtu_slave.c"
  3288 ;; Parameters:    Size  Location     Type
  3289 ;;		None
  3290 ;; Auto vars:     Size  Location     Type
  3291 ;;  j               4    0[BANK3 ] unsigned long 
  3292 ;;  crc_high        1    5[BANK3 ] unsigned char 
  3293 ;;  crc_low         1    4[BANK3 ] unsigned char 
  3294 ;; Return value:  Size  Location     Type
  3295 ;;                  1    wreg      void 
  3296 ;; Registers used:
  3297 ;;		wreg, status,2, status,0, tblptrl, tblptrh, tblptru, cstack
  3298 ;; Tracked objects:
  3299 ;;		On entry : 0/0
  3300 ;;		On exit  : 0/0
  3301 ;;		Unchanged: 0/0
  3302 ;; Data sizes:     COMRAM   BANK0   BANK1   BANK2   BANK3   BANK4   BANK5   BANK6   BANK7
  3303 ;;      Params:         0       0       0       0       0       0       0       0       0
  3304 ;;      Locals:         0       0       0       0       6       0       0       0       0
  3305 ;;      Temps:          0       0       0       0       0       0       0       0       0
  3306 ;;      Totals:         0       0       0       0       6       0       0       0       0
  3307 ;;Total ram usage:        6 bytes
  3308 ;; Hardware stack levels used: 1
  3309 ;; Hardware stack levels required when called: 19
  3310 ;; This function calls:
  3311 ;;		_RCV_ON
  3312 ;;		_UART1_is_tx_done
  3313 ;;		_modbus_serial_putc
  3314 ;; This function is called by:
  3315 ;;		_modbus_read_coils_rsp
  3316 ;;		_modbus_read_discrete_input_rsp
  3317 ;;		_modbus_read_holding_registers_rsp
  3318 ;;		_modbus_write_single_coil_rsp
  3319 ;;		_modbus_write_single_register_rsp
  3320 ;;		_modbus_write_multiple_coils_rsp
  3321 ;;		_modbus_write_multiple_registers_rsp
  3322 ;;		_modbus_exception_rsp
  3323 ;;		_modbus_read_holding_registers
  3324 ;;		_modbus_read_input_registers_rsp
  3325 ;;		_modbus_read_exception_status_rsp
  3326 ;;		_modbus_diagnostics_rsp
  3327 ;;		_modbus_get_comm_event_counter_rsp
  3328 ;;		_modbus_get_comm_event_log_rsp
  3329 ;;		_modbus_report_slave_id_rsp
  3330 ;;		_modbus_read_file_record_rsp
  3331 ;;		_modbus_write_file_record_rsp
  3332 ;;		_modbus_mask_write_register_rsp
  3333 ;;		_modbus_read_write_multiple_registers_rsp
  3334 ;;		_modbus_read_FIFO_queue_rsp
  3335 ;; This function uses a non-reentrant model
  3336 ;;
  3337                           
  3338                           	psect	text15
  3339  000E2C                     __ptext15:
  3340                           	callstack 0
  3341  000E2C                     _modbus_serial_send_stop:
  3342                           	callstack 10
  3343  000E2C                     
  3344                           ;../modbus/modbus_phy_layer_rtu_slave.c: 221:     uint8_t crc_low, crc_high;;../modbus/m
      +                          odbus_phy_layer_rtu_slave.c: 222:     uint32_t j;;../modbus/modbus_phy_layer_rtu_slave.c
      +                          : 223:     j = 0;
  3345  000E2C  0E00               	movlw	0
  3346  000E2E  0103               	movlb	3	; () banked
  3347  000E30  6F80               	movwf	modbus_serial_send_stop@j& (0+255),b
  3348  000E32  0E00               	movlw	0
  3349  000E34  6F81               	movwf	(modbus_serial_send_stop@j+1)& (0+255),b
  3350  000E36  0E00               	movlw	0
  3351  000E38  6F82               	movwf	(modbus_serial_send_stop@j+2)& (0+255),b
  3352  000E3A  0E00               	movlw	0
  3353  000E3C  6F83               	movwf	(modbus_serial_send_stop@j+3)& (0+255),b
  3354  000E3E                     
  3355                           ; BSR set to: 3
  3356                           ;../modbus/modbus_phy_layer_rtu_slave.c: 224:     crc_high = modbus_serial_crc.b[1];
  3357  000E3E  C002  F385         	movff	_modbus_serial_crc+1,modbus_serial_send_stop@crc_high
  3358  000E42                     
  3359                           ; BSR set to: 3
  3360                           ;../modbus/modbus_phy_layer_rtu_slave.c: 225:     crc_low = modbus_serial_crc.b[0];
  3361  000E42  C001  F384         	movff	_modbus_serial_crc,modbus_serial_send_stop@crc_low
  3362  000E46                     
  3363                           ; BSR set to: 3
  3364                           ;../modbus/modbus_phy_layer_rtu_slave.c: 226:     modbus_serial_putc(crc_high);
  3365  000E46  5185               	movf	modbus_serial_send_stop@crc_high& (0+255),w,b
  3366  000E48  ECBF  F00C         	call	_modbus_serial_putc
  3367  000E4C                     
  3368                           ;../modbus/modbus_phy_layer_rtu_slave.c: 227:     modbus_serial_putc(crc_low);
  3369  000E4C  0103               	movlb	3	; () banked
  3370  000E4E  5184               	movf	modbus_serial_send_stop@crc_low& (0+255),w,b
  3371  000E50  ECBF  F00C         	call	_modbus_serial_putc
  3372                           
  3373                           ;../modbus/modbus_phy_layer_rtu_slave.c: 229:     while (!UART1_is_tx_done()) {
  3374  000E54  EF44  F007         	goto	l7417
  3375  000E58                     l7413:
  3376                           
  3377                           ;../modbus/modbus_phy_layer_rtu_slave.c: 230:         j++;
  3378  000E58  0E01               	movlw	1
  3379  000E5A  0103               	movlb	3	; () banked
  3380  000E5C  2780               	addwf	modbus_serial_send_stop@j& (0+255),f,b
  3381  000E5E  0E00               	movlw	0
  3382  000E60  2381               	addwfc	(modbus_serial_send_stop@j+1)& (0+255),f,b
  3383  000E62  2382               	addwfc	(modbus_serial_send_stop@j+2)& (0+255),f,b
  3384  000E64  2383               	addwfc	(modbus_serial_send_stop@j+3)& (0+255),f,b
  3385                           
  3386                           ;../modbus/modbus_phy_layer_rtu_slave.c: 231:         if (j > 100000)
  3387  000E66  5183               	movf	(modbus_serial_send_stop@j+3)& (0+255),w,b
  3388  000E68  E10D               	bnz	u3550
  3389  000E6A  0EA1               	movlw	161
  3390  000E6C  5D80               	subwf	modbus_serial_send_stop@j& (0+255),w,b
  3391  000E6E  0E86               	movlw	134
  3392  000E70  5981               	subwfb	(modbus_serial_send_stop@j+1)& (0+255),w,b
  3393  000E72  0E01               	movlw	1
  3394  000E74  5982               	subwfb	(modbus_serial_send_stop@j+2)& (0+255),w,b
  3395  000E76  A0D8               	btfss	status,0,c
  3396  000E78  EF40  F007         	goto	u3551
  3397  000E7C  EF42  F007         	goto	u3550
  3398  000E80                     u3551:
  3399  000E80  EF44  F007         	goto	l7417
  3400  000E84                     u3550:
  3401  000E84  EF4E  F007         	goto	l7419
  3402  000E88                     l7417:
  3403                           
  3404                           ;../modbus/modbus_phy_layer_rtu_slave.c: 229:     while (!UART1_is_tx_done()) {
  3405  000E88  ECCA  F00C         	call	_UART1_is_tx_done	;wreg free
  3406  000E8C  0900               	iorlw	0
  3407  000E8E  B4D8               	btfsc	status,2,c
  3408  000E90  EF4C  F007         	goto	u3561
  3409  000E94  EF4E  F007         	goto	u3560
  3410  000E98                     u3561:
  3411  000E98  EF2C  F007         	goto	l7413
  3412  000E9C                     u3560:
  3413  000E9C                     l7419:
  3414                           
  3415                           ;../modbus/modbus_phy_layer_rtu_slave.c: 234:     RCV_ON();
  3416  000E9C  EC3B  F00E         	call	_RCV_ON	;wreg free
  3417  000EA0  98BD               	bcf	189,4,c	;volatile
  3418  000EA2                     
  3419                           ;../modbus/modbus_phy_layer_rtu_slave.c: 242:     modbus_serial_crc.d = 0xFFFF;
  3420  000EA2  6801               	setf	_modbus_serial_crc^0,c
  3421  000EA4  6802               	setf	(_modbus_serial_crc+1)^0,c
  3422  000EA6  0012               	return		;funcret
  3423  000EA8                     __end_of_modbus_serial_send_stop:
  3424                           	callstack 0
  3425                           
  3426 ;; *************** function _RCV_ON *****************
  3427 ;; Defined at:
  3428 ;;		line 143 in file "../modbus/modbus_phy_layer_rtu_slave.c"
  3429 ;; Parameters:    Size  Location     Type
  3430 ;;		None
  3431 ;; Auto vars:     Size  Location     Type
  3432 ;;		None
  3433 ;; Return value:  Size  Location     Type
  3434 ;;                  1    wreg      void 
  3435 ;; Registers used:
  3436 ;;		None
  3437 ;; Tracked objects:
  3438 ;;		On entry : 0/0
  3439 ;;		On exit  : 0/0
  3440 ;;		Unchanged: 0/0
  3441 ;; Data sizes:     COMRAM   BANK0   BANK1   BANK2   BANK3   BANK4   BANK5   BANK6   BANK7
  3442 ;;      Params:         0       0       0       0       0       0       0       0       0
  3443 ;;      Locals:         0       0       0       0       0       0       0       0       0
  3444 ;;      Temps:          0       0       0       0       0       0       0       0       0
  3445 ;;      Totals:         0       0       0       0       0       0       0       0       0
  3446 ;;Total ram usage:        0 bytes
  3447 ;; Hardware stack levels used: 1
  3448 ;; Hardware stack levels required when called: 16
  3449 ;; This function calls:
  3450 ;;		Nothing
  3451 ;; This function is called by:
  3452 ;;		_modbus_init
  3453 ;;		_modbus_timeout_now
  3454 ;;		_modbus_serial_send_stop
  3455 ;; This function uses a non-reentrant model
  3456 ;;
  3457                           
  3458                           	psect	text16
  3459  001C76                     __ptext16:
  3460                           	callstack 0
  3461  001C76                     _RCV_ON:
  3462                           	callstack 12
  3463  001C76                     
  3464                           ;../modbus/modbus_phy_layer_rtu_slave.c: 145:     PIR3bits.U1EIF = 0;
  3465  001C76  0139               	movlb	57	; () banked
  3466  001C78  9BA3               	bcf	163,5,b	;volatile
  3467                           
  3468                           ;../modbus/modbus_phy_layer_rtu_slave.c: 147:     PIE3bits.U1RXIE = 1;
  3469  001C7A  8793               	bsf	147,3,b	;volatile
  3470  001C7C                     
  3471                           ; BSR set to: 57
  3472  001C7C  0012               	return		;funcret
  3473  001C7E                     __end_of_RCV_ON:
  3474                           	callstack 0
  3475                           
  3476 ;; *************** function _modbus_serial_send_start *****************
  3477 ;; Defined at:
  3478 ;;		line 208 in file "../modbus/modbus_phy_layer_rtu_slave.c"
  3479 ;; Parameters:    Size  Location     Type
  3480 ;;  to              1    wreg     unsigned char 
  3481 ;;  func            1    3[BANK2 ] unsigned char 
  3482 ;; Auto vars:     Size  Location     Type
  3483 ;;  to              1    0[BANK3 ] unsigned char 
  3484 ;; Return value:  Size  Location     Type
  3485 ;;                  1    wreg      void 
  3486 ;; Registers used:
  3487 ;;		wreg, status,2, status,0, tblptrl, tblptrh, tblptru, cstack
  3488 ;; Tracked objects:
  3489 ;;		On entry : 0/0
  3490 ;;		On exit  : 0/0
  3491 ;;		Unchanged: 0/0
  3492 ;; Data sizes:     COMRAM   BANK0   BANK1   BANK2   BANK3   BANK4   BANK5   BANK6   BANK7
  3493 ;;      Params:         0       0       0       1       0       0       0       0       0
  3494 ;;      Locals:         0       0       0       0       1       0       0       0       0
  3495 ;;      Temps:          0       0       0       0       0       0       0       0       0
  3496 ;;      Totals:         0       0       0       1       1       0       0       0       0
  3497 ;;Total ram usage:        2 bytes
  3498 ;; Hardware stack levels used: 1
  3499 ;; Hardware stack levels required when called: 19
  3500 ;; This function calls:
  3501 ;;		_RCV_OFF
  3502 ;;		_modbus_serial_putc
  3503 ;; This function is called by:
  3504 ;;		_modbus_read_coils_rsp
  3505 ;;		_modbus_read_discrete_input_rsp
  3506 ;;		_modbus_read_holding_registers_rsp
  3507 ;;		_modbus_write_single_coil_rsp
  3508 ;;		_modbus_write_single_register_rsp
  3509 ;;		_modbus_write_multiple_coils_rsp
  3510 ;;		_modbus_write_multiple_registers_rsp
  3511 ;;		_modbus_exception_rsp
  3512 ;;		_modbus_read_holding_registers
  3513 ;;		_modbus_read_input_registers_rsp
  3514 ;;		_modbus_read_exception_status_rsp
  3515 ;;		_modbus_diagnostics_rsp
  3516 ;;		_modbus_get_comm_event_counter_rsp
  3517 ;;		_modbus_get_comm_event_log_rsp
  3518 ;;		_modbus_report_slave_id_rsp
  3519 ;;		_modbus_read_file_record_rsp
  3520 ;;		_modbus_write_file_record_rsp
  3521 ;;		_modbus_mask_write_register_rsp
  3522 ;;		_modbus_read_write_multiple_registers_rsp
  3523 ;;		_modbus_read_FIFO_queue_rsp
  3524 ;; This function uses a non-reentrant model
  3525 ;;
  3526                           
  3527                           	psect	text17
  3528  001726                     __ptext17:
  3529                           	callstack 0
  3530  001726                     _modbus_serial_send_start:
  3531                           	callstack 10
  3532                           
  3533                           ; BSR set to: 57
  3534                           ;incstack = 0
  3535                           ;modbus_serial_send_start@to stored from wreg
  3536  001726  0103               	movlb	3	; () banked
  3537  001728  6F80               	movwf	modbus_serial_send_start@to& (0+255),b
  3538  00172A                     
  3539                           ;../modbus/modbus_phy_layer_rtu_slave.c: 209:     modbus_serial_crc.d = 0xFFFF;
  3540  00172A  6801               	setf	_modbus_serial_crc^0,c
  3541  00172C  6802               	setf	(_modbus_serial_crc+1)^0,c
  3542  00172E                     
  3543                           ;../modbus/modbus_phy_layer_rtu_slave.c: 210:     modbus_serial_new = FALSE;
  3544  00172E  0E00               	movlw	0
  3545  001730  0100               	movlb	0	; () banked
  3546  001732  6FFB               	movwf	_modbus_serial_new& (0+255),b
  3547  001734                     
  3548                           ; BSR set to: 0
  3549                           ;../modbus/modbus_phy_layer_rtu_slave.c: 211:     RCV_OFF();
  3550  001734  EC3F  F00E         	call	_RCV_OFF	;wreg free
  3551  001738  88BD               	bsf	189,4,c	;volatile
  3552  00173A                     
  3553                           ;../modbus/modbus_phy_layer_rtu_slave.c: 213:     index_putc = 0;
  3554  00173A  0E00               	movlw	0
  3555  00173C  6E19               	movwf	_index_putc^0,c
  3556  00173E                     
  3557                           ;../modbus/modbus_phy_layer_rtu_slave.c: 214:     modbus_serial_putc(to);
  3558  00173E  0103               	movlb	3	; () banked
  3559  001740  5180               	movf	modbus_serial_send_start@to& (0+255),w,b
  3560  001742  ECBF  F00C         	call	_modbus_serial_putc
  3561  001746                     
  3562                           ;../modbus/modbus_phy_layer_rtu_slave.c: 215:     modbus_serial_putc(func);
  3563  001746  0102               	movlb	2	; () banked
  3564  001748  51FD               	movf	modbus_serial_send_start@func& (0+255),w,b
  3565  00174A  ECBF  F00C         	call	_modbus_serial_putc
  3566  00174E  0012               	return		;funcret
  3567  001750                     __end_of_modbus_serial_send_start:
  3568                           	callstack 0
  3569                           
  3570 ;; *************** function _modbus_serial_putc *****************
  3571 ;; Defined at:
  3572 ;;		line 198 in file "../modbus/modbus_phy_layer_rtu_slave.c"
  3573 ;; Parameters:    Size  Location     Type
  3574 ;;  c               1    wreg     unsigned char 
  3575 ;; Auto vars:     Size  Location     Type
  3576 ;;  c               1    0[BANK0 ] unsigned char 
  3577 ;; Return value:  Size  Location     Type
  3578 ;;                  1    wreg      void 
  3579 ;; Registers used:
  3580 ;;		wreg, status,2, status,0, tblptrl, tblptrh, tblptru, cstack
  3581 ;; Tracked objects:
  3582 ;;		On entry : 0/0
  3583 ;;		On exit  : 0/0
  3584 ;;		Unchanged: 0/0
  3585 ;; Data sizes:     COMRAM   BANK0   BANK1   BANK2   BANK3   BANK4   BANK5   BANK6   BANK7
  3586 ;;      Params:         0       0       0       0       0       0       0       0       0
  3587 ;;      Locals:         0       1       0       0       0       0       0       0       0
  3588 ;;      Temps:          0       0       0       0       0       0       0       0       0
  3589 ;;      Totals:         0       1       0       0       0       0       0       0       0
  3590 ;;Total ram usage:        1 bytes
  3591 ;; Hardware stack levels used: 1
  3592 ;; Hardware stack levels required when called: 18
  3593 ;; This function calls:
  3594 ;;		_UART1_Write
  3595 ;;		_modbus_calc_crc
  3596 ;; This function is called by:
  3597 ;;		_modbus_read_coils_rsp
  3598 ;;		_modbus_read_discrete_input_rsp
  3599 ;;		_modbus_read_holding_registers_rsp
  3600 ;;		_modbus_write_single_coil_rsp
  3601 ;;		_modbus_write_single_register_rsp
  3602 ;;		_modbus_write_multiple_coils_rsp
  3603 ;;		_modbus_write_multiple_registers_rsp
  3604 ;;		_modbus_exception_rsp
  3605 ;;		_modbus_serial_send_start
  3606 ;;		_modbus_serial_send_stop
  3607 ;;		_modbus_read_holding_registers
  3608 ;;		_modbus_read_input_registers_rsp
  3609 ;;		_modbus_diagnostics_rsp
  3610 ;;		_modbus_get_comm_event_counter_rsp
  3611 ;;		_modbus_get_comm_event_log_rsp
  3612 ;;		_modbus_report_slave_id_rsp
  3613 ;;		_modbus_read_file_record_rsp
  3614 ;;		_modbus_write_file_record_rsp
  3615 ;;		_modbus_mask_write_register_rsp
  3616 ;;		_modbus_read_write_multiple_registers_rsp
  3617 ;;		_modbus_read_FIFO_queue_rsp
  3618 ;; This function uses a non-reentrant model
  3619 ;;
  3620                           
  3621                           	psect	text18
  3622  00197E                     __ptext18:
  3623                           	callstack 0
  3624  00197E                     _modbus_serial_putc:
  3625                           	callstack 10
  3626                           
  3627                           ;incstack = 0
  3628                           ;modbus_serial_putc@c stored from wreg
  3629  00197E  0100               	movlb	0	; () banked
  3630  001980  6FFF               	movwf	modbus_serial_putc@c& (0+255),b
  3631  001982                     
  3632                           ;../modbus/modbus_phy_layer_rtu_slave.c: 200:         UART1_Write(c);
  3633  001982  0100               	movlb	0	; () banked
  3634  001984  51FF               	movf	modbus_serial_putc@c& (0+255),w,b
  3635  001986  ECDD  F008         	call	_UART1_Write
  3636  00198A                     
  3637                           ;../modbus/modbus_phy_layer_rtu_slave.c: 203:     modbus_calc_crc(c);
  3638  00198A  0100               	movlb	0	; () banked
  3639  00198C  51FF               	movf	modbus_serial_putc@c& (0+255),w,b
  3640  00198E  EC16  F00B         	call	_modbus_calc_crc
  3641  001992  0012               	return		;funcret
  3642  001994                     __end_of_modbus_serial_putc:
  3643                           	callstack 0
  3644                           
  3645 ;; *************** function _modbus_calc_crc *****************
  3646 ;; Defined at:
  3647 ;;		line 188 in file "../modbus/modbus_phy_layer_rtu_slave.c"
  3648 ;; Parameters:    Size  Location     Type
  3649 ;;  data            1    wreg     unsigned char 
  3650 ;; Auto vars:     Size  Location     Type
  3651 ;;  data            1    0[BANK2 ] unsigned char 
  3652 ;;  uIndex          1    1[BANK2 ] unsigned char 
  3653 ;; Return value:  Size  Location     Type
  3654 ;;                  1    wreg      void 
  3655 ;; Registers used:
  3656 ;;		wreg, status,2, status,0, tblptrl, tblptrh, tblptru
  3657 ;; Tracked objects:
  3658 ;;		On entry : 0/0
  3659 ;;		On exit  : 0/0
  3660 ;;		Unchanged: 0/0
  3661 ;; Data sizes:     COMRAM   BANK0   BANK1   BANK2   BANK3   BANK4   BANK5   BANK6   BANK7
  3662 ;;      Params:         0       0       0       0       0       0       0       0       0
  3663 ;;      Locals:         0       0       0       2       0       0       0       0       0
  3664 ;;      Temps:          0       0       0       0       0       0       0       0       0
  3665 ;;      Totals:         0       0       0       2       0       0       0       0       0
  3666 ;;Total ram usage:        2 bytes
  3667 ;; Hardware stack levels used: 1
  3668 ;; Hardware stack levels required when called: 16
  3669 ;; This function calls:
  3670 ;;		Nothing
  3671 ;; This function is called by:
  3672 ;;		_modbus_serial_putc
  3673 ;; This function uses a non-reentrant model
  3674 ;;
  3675                           
  3676                           	psect	text19
  3677  00162C                     __ptext19:
  3678                           	callstack 0
  3679  00162C                     _modbus_calc_crc:
  3680                           	callstack 11
  3681                           
  3682                           ;incstack = 0
  3683                           ;modbus_calc_crc@data stored from wreg
  3684  00162C  0102               	movlb	2	; () banked
  3685  00162E  6FFA               	movwf	modbus_calc_crc@data& (0+255),b
  3686  001630                     
  3687                           ;../modbus/modbus_phy_layer_rtu_slave.c: 189:     unsigned char uIndex;;../modbus/modbus
      +                          _phy_layer_rtu_slave.c: 191:     uIndex = (uint8_t) (modbus_serial_crc.b[1]) ^ data;
  3688  001630  5002               	movf	(_modbus_serial_crc+1)^0,w,c
  3689  001632  0102               	movlb	2	; () banked
  3690  001634  19FA               	xorwf	modbus_calc_crc@data& (0+255),w,b
  3691  001636  6FFB               	movwf	modbus_calc_crc@uIndex& (0+255),b
  3692  001638                     
  3693                           ; BSR set to: 2
  3694                           ;../modbus/modbus_phy_layer_rtu_slave.c: 192:     modbus_serial_crc.b[1] = (uint8_t) ((m
      +                          odbus_serial_crc.b[0]) ^ modbus_auchCRCHi[uIndex]);
  3695  001638  0EBF               	movlw	low _modbus_auchCRCHi
  3696  00163A  25FB               	addwf	modbus_calc_crc@uIndex& (0+255),w,b
  3697  00163C  6EF6               	movwf	tblptrl,c
  3698  00163E  6AF7               	clrf	tblptrh,c
  3699  001640  0E7E               	movlw	high _modbus_auchCRCHi
  3700  001642  22F7               	addwfc	tblptrh,f,c
  3701  001644                     	if	0	;There are less than 3 active tblptr bytes
  3702  001644                     	endif
  3703  001644  0008               	tblrd		*
  3704  001646  50F5               	movf	tablat,w,c
  3705  001648  1801               	xorwf	_modbus_serial_crc^0,w,c
  3706  00164A  6E02               	movwf	(_modbus_serial_crc+1)^0,c
  3707  00164C                     
  3708                           ; BSR set to: 2
  3709                           ;../modbus/modbus_phy_layer_rtu_slave.c: 193:     modbus_serial_crc.b[0] = modbus_auchCR
      +                          CLo[uIndex];
  3710  00164C  0EBF               	movlw	low _modbus_auchCRCLo
  3711  00164E  25FB               	addwf	modbus_calc_crc@uIndex& (0+255),w,b
  3712  001650  6EF6               	movwf	tblptrl,c
  3713  001652  6AF7               	clrf	tblptrh,c
  3714  001654  0E7D               	movlw	high _modbus_auchCRCLo
  3715  001656  22F7               	addwfc	tblptrh,f,c
  3716  001658                     	if	0	;There are less than 3 active tblptr bytes
  3717  001658                     	endif
  3718  001658  0008               	tblrd		*
  3719  00165A  006F FFD4  F001    	movff	tablat,_modbus_serial_crc
  3720  001660                     
  3721                           ; BSR set to: 2
  3722  001660  0012               	return		;funcret
  3723  001662                     __end_of_modbus_calc_crc:
  3724                           	callstack 0
  3725                           
  3726 ;; *************** function _UART1_Write *****************
  3727 ;; Defined at:
  3728 ;;		line 195 in file "mcc_generated_files/uart1.c"
  3729 ;; Parameters:    Size  Location     Type
  3730 ;;  txData          1    wreg     unsigned char 
  3731 ;; Auto vars:     Size  Location     Type
  3732 ;;  txData          1    0[BANK2 ] unsigned char 
  3733 ;;  t               2    1[BANK2 ] unsigned short 
  3734 ;; Return value:  Size  Location     Type
  3735 ;;                  1    wreg      void 
  3736 ;; Registers used:
  3737 ;;		wreg, status,2, status,0, cstack
  3738 ;; Tracked objects:
  3739 ;;		On entry : 0/0
  3740 ;;		On exit  : 0/0
  3741 ;;		Unchanged: 0/0
  3742 ;; Data sizes:     COMRAM   BANK0   BANK1   BANK2   BANK3   BANK4   BANK5   BANK6   BANK7
  3743 ;;      Params:         0       0       0       0       0       0       0       0       0
  3744 ;;      Locals:         0       0       0       3       0       0       0       0       0
  3745 ;;      Temps:          0       0       0       0       0       0       0       0       0
  3746 ;;      Totals:         0       0       0       3       0       0       0       0       0
  3747 ;;Total ram usage:        3 bytes
  3748 ;; Hardware stack levels used: 1
  3749 ;; Hardware stack levels required when called: 17
  3750 ;; This function calls:
  3751 ;;		_UART1_is_tx_done
  3752 ;; This function is called by:
  3753 ;;		_modbus_serial_putc
  3754 ;;		_main
  3755 ;;		_UART1_Write_String
  3756 ;; This function uses a non-reentrant model
  3757 ;;
  3758                           
  3759                           	psect	text20
  3760  0011BA                     __ptext20:
  3761                           	callstack 0
  3762  0011BA                     _UART1_Write:
  3763                           	callstack 10
  3764                           
  3765                           ; BSR set to: 2
  3766                           ;incstack = 0
  3767                           ;UART1_Write@txData stored from wreg
  3768  0011BA  0102               	movlb	2	; () banked
  3769  0011BC  6FFA               	movwf	UART1_Write@txData& (0+255),b
  3770  0011BE  88BD               	bsf	189,4,c	;volatile
  3771  0011C0                     
  3772                           ;mcc_generated_files/uart1.c: 198:      uint16_t t=0;
  3773  0011C0  0E00               	movlw	0
  3774  0011C2  0102               	movlb	2	; () banked
  3775  0011C4  6FFC               	movwf	(UART1_Write@t+1)& (0+255),b
  3776  0011C6  0E00               	movlw	0
  3777  0011C8  6FFB               	movwf	UART1_Write@t& (0+255),b
  3778                           
  3779                           ;mcc_generated_files/uart1.c: 199:     while(0 == PIR3bits.U1TXIF && t<10000)
  3780  0011CA  EFEB  F008         	goto	l7197
  3781  0011CE                     l410:
  3782                           
  3783                           ; BSR set to: 2
  3784  0011CE  0004               	clrwdt		;# 
  3785  0011D0                     
  3786                           ;mcc_generated_files/uart1.c: 202:         t++;
  3787  0011D0  0102               	movlb	2	; () banked
  3788  0011D2  4BFB               	infsnz	UART1_Write@t& (0+255),f,b
  3789  0011D4  2BFC               	incf	(UART1_Write@t+1)& (0+255),f,b
  3790  0011D6                     l7197:
  3791                           
  3792                           ; BSR set to: 2
  3793                           ;mcc_generated_files/uart1.c: 199:     while(0 == PIR3bits.U1TXIF && t<10000)
  3794  0011D6  0139               	movlb	57	; () banked
  3795  0011D8  B9A3               	btfsc	163,4,b	;volatile
  3796  0011DA  EFF1  F008         	goto	u3441
  3797  0011DE  EFF3  F008         	goto	u3440
  3798  0011E2                     u3441:
  3799  0011E2  EFFF  F008         	goto	l413
  3800  0011E6                     u3440:
  3801  0011E6                     
  3802                           ; BSR set to: 57
  3803  0011E6  0E10               	movlw	16
  3804  0011E8  0102               	movlb	2	; () banked
  3805  0011EA  5DFB               	subwf	UART1_Write@t& (0+255),w,b
  3806  0011EC  0E27               	movlw	39
  3807  0011EE  59FC               	subwfb	(UART1_Write@t+1)& (0+255),w,b
  3808  0011F0  A0D8               	btfss	status,0,c
  3809  0011F2  EFFD  F008         	goto	u3451
  3810  0011F6  EFFF  F008         	goto	u3450
  3811  0011FA                     u3451:
  3812  0011FA  EFE7  F008         	goto	l410
  3813  0011FE                     u3450:
  3814  0011FE                     l413:
  3815                           
  3816                           ;mcc_generated_files/uart1.c: 205:     U1TXB = txData;
  3817  0011FE  0060  FBEB  FDEA   	movff	UART1_Write@txData,15850	;volatile
  3818  001204                     l7201:
  3819  001204  ECCA  F00C         	call	_UART1_is_tx_done	;wreg free
  3820  001208  0900               	iorlw	0
  3821  00120A  B4D8               	btfsc	status,2,c
  3822  00120C  EF0A  F009         	goto	u3461
  3823  001210  EF0C  F009         	goto	u3460
  3824  001214                     u3461:
  3825  001214  EF02  F009         	goto	l7201
  3826  001218                     u3460:
  3827  001218  98BD               	bcf	189,4,c	;volatile
  3828  00121A  0012               	return		;funcret
  3829  00121C                     __end_of_UART1_Write:
  3830                           	callstack 0
  3831                           
  3832 ;; *************** function _UART1_is_tx_done *****************
  3833 ;; Defined at:
  3834 ;;		line 162 in file "mcc_generated_files/uart1.c"
  3835 ;; Parameters:    Size  Location     Type
  3836 ;;		None
  3837 ;; Auto vars:     Size  Location     Type
  3838 ;;		None
  3839 ;; Return value:  Size  Location     Type
  3840 ;;                  1    wreg      _Bool 
  3841 ;; Registers used:
  3842 ;;		wreg
  3843 ;; Tracked objects:
  3844 ;;		On entry : 0/0
  3845 ;;		On exit  : 0/0
  3846 ;;		Unchanged: 0/0
  3847 ;; Data sizes:     COMRAM   BANK0   BANK1   BANK2   BANK3   BANK4   BANK5   BANK6   BANK7
  3848 ;;      Params:         0       0       0       0       0       0       0       0       0
  3849 ;;      Locals:         0       0       0       0       0       0       0       0       0
  3850 ;;      Temps:          0       0       0       0       0       0       0       0       0
  3851 ;;      Totals:         0       0       0       0       0       0       0       0       0
  3852 ;;Total ram usage:        0 bytes
  3853 ;; Hardware stack levels used: 1
  3854 ;; Hardware stack levels required when called: 16
  3855 ;; This function calls:
  3856 ;;		Nothing
  3857 ;; This function is called by:
  3858 ;;		_UART1_Write
  3859 ;;		_modbus_serial_send_stop
  3860 ;; This function uses a non-reentrant model
  3861 ;;
  3862                           
  3863                           	psect	text21
  3864  001994                     __ptext21:
  3865                           	callstack 0
  3866  001994                     _UART1_is_tx_done:
  3867                           	callstack 10
  3868  001994                     
  3869                           ;mcc_generated_files/uart1.c: 164:     return U1ERRIRbits.TXMTIF;
  3870  001994  013D               	movlb	61	; () banked
  3871  001996  BFF9               	btfsc	249,7,b	;volatile
  3872  001998  EFD0  F00C         	goto	u3431
  3873  00199C  EFD3  F00C         	goto	u3430
  3874  0019A0                     u3431:
  3875  0019A0  0E01               	movlw	1
  3876  0019A2  EFD4  F00C         	goto	u3436
  3877  0019A6                     u3430:
  3878  0019A6  0E00               	movlw	0
  3879  0019A8                     u3436:
  3880  0019A8                     
  3881                           ; BSR set to: 61
  3882  0019A8  0012               	return		;funcret
  3883  0019AA                     __end_of_UART1_is_tx_done:
  3884                           	callstack 0
  3885                           
  3886 ;; *************** function _RCV_OFF *****************
  3887 ;; Defined at:
  3888 ;;		line 135 in file "../modbus/modbus_phy_layer_rtu_slave.c"
  3889 ;; Parameters:    Size  Location     Type
  3890 ;;		None
  3891 ;; Auto vars:     Size  Location     Type
  3892 ;;		None
  3893 ;; Return value:  Size  Location     Type
  3894 ;;                  1    wreg      void 
  3895 ;; Registers used:
  3896 ;;		None
  3897 ;; Tracked objects:
  3898 ;;		On entry : 0/0
  3899 ;;		On exit  : 0/0
  3900 ;;		Unchanged: 0/0
  3901 ;; Data sizes:     COMRAM   BANK0   BANK1   BANK2   BANK3   BANK4   BANK5   BANK6   BANK7
  3902 ;;      Params:         0       0       0       0       0       0       0       0       0
  3903 ;;      Locals:         0       0       0       0       0       0       0       0       0
  3904 ;;      Temps:          0       0       0       0       0       0       0       0       0
  3905 ;;      Totals:         0       0       0       0       0       0       0       0       0
  3906 ;;Total ram usage:        0 bytes
  3907 ;; Hardware stack levels used: 1
  3908 ;; Hardware stack levels required when called: 16
  3909 ;; This function calls:
  3910 ;;		Nothing
  3911 ;; This function is called by:
  3912 ;;		_modbus_serial_send_start
  3913 ;; This function uses a non-reentrant model
  3914 ;;
  3915                           
  3916                           	psect	text22
  3917  001C7E                     __ptext22:
  3918                           	callstack 0
  3919  001C7E                     _RCV_OFF:
  3920                           	callstack 12
  3921  001C7E                     
  3922                           ;../modbus/modbus_phy_layer_rtu_slave.c: 136:     PIE3bits.U1RXIE = 0;
  3923  001C7E  0139               	movlb	57	; () banked
  3924  001C80  9793               	bcf	147,3,b	;volatile
  3925                           
  3926                           ;../modbus/modbus_phy_layer_rtu_slave.c: 137:     PIR3bits.U1RXIF = 0;
  3927  001C82  97A3               	bcf	163,3,b	;volatile
  3928  001C84                     
  3929                           ; BSR set to: 57
  3930  001C84  0012               	return		;funcret
  3931  001C86                     __end_of_RCV_OFF:
  3932                           	callstack 0
  3933                           
  3934 ;; *************** function _make16 *****************
  3935 ;; Defined at:
  3936 ;;		line 479 in file "main.c"
  3937 ;; Parameters:    Size  Location     Type
  3938 ;;  high            1    wreg     unsigned char 
  3939 ;;  low             1    0[BANK2 ] unsigned char 
  3940 ;; Auto vars:     Size  Location     Type
  3941 ;;  high            1    4[BANK3 ] unsigned char 
  3942 ;;  value           2    5[BANK3 ] unsigned short 
  3943 ;; Return value:  Size  Location     Type
  3944 ;;                  2    0[BANK2 ] unsigned short 
  3945 ;; Registers used:
  3946 ;;		wreg, status,2, status,0
  3947 ;; Tracked objects:
  3948 ;;		On entry : 0/0
  3949 ;;		On exit  : 0/0
  3950 ;;		Unchanged: 0/0
  3951 ;; Data sizes:     COMRAM   BANK0   BANK1   BANK2   BANK3   BANK4   BANK5   BANK6   BANK7
  3952 ;;      Params:         0       0       0       2       0       0       0       0       0
  3953 ;;      Locals:         0       0       0       0       3       0       0       0       0
  3954 ;;      Temps:          0       0       0       0       4       0       0       0       0
  3955 ;;      Totals:         0       0       0       2       7       0       0       0       0
  3956 ;;Total ram usage:        9 bytes
  3957 ;; Hardware stack levels used: 1
  3958 ;; Hardware stack levels required when called: 16
  3959 ;; This function calls:
  3960 ;;		Nothing
  3961 ;; This function is called by:
  3962 ;;		_main
  3963 ;; This function uses a non-reentrant model
  3964 ;;
  3965                           
  3966                           	psect	text23
  3967  0014DA                     __ptext23:
  3968                           	callstack 0
  3969  0014DA                     _make16:
  3970                           	callstack 14
  3971                           
  3972                           ; BSR set to: 57
  3973                           ;incstack = 0
  3974                           ;make16@high stored from wreg
  3975  0014DA  0103               	movlb	3	; () banked
  3976  0014DC  6F84               	movwf	make16@high& (0+255),b
  3977  0014DE                     
  3978                           ;main.c: 481:         value = (((uint16_t) high << 8)&0xFF00) + low;
  3979  0014DE  0E00               	movlw	0
  3980  0014E0  0103               	movlb	3	; () banked
  3981  0014E2  6F80               	movwf	??_make16& (0+255),b
  3982  0014E4  0EFF               	movlw	255
  3983  0014E6  6F81               	movwf	(??_make16+1)& (0+255),b
  3984  0014E8  5184               	movf	make16@high& (0+255),w,b
  3985  0014EA  6F83               	movwf	(??_make16+3)& (0+255),b
  3986  0014EC  6B82               	clrf	(??_make16+2)& (0+255),b
  3987  0014EE  5180               	movf	??_make16& (0+255),w,b
  3988  0014F0  1782               	andwf	(??_make16+2)& (0+255),f,b
  3989  0014F2  5181               	movf	(??_make16+1)& (0+255),w,b
  3990  0014F4  1783               	andwf	(??_make16+3)& (0+255),f,b
  3991  0014F6  0102               	movlb	2	; () banked
  3992  0014F8  51FA               	movf	make16@low& (0+255),w,b
  3993  0014FA  0103               	movlb	3	; () banked
  3994  0014FC  2582               	addwf	(??_make16+2)& (0+255),w,b
  3995  0014FE  6F85               	movwf	make16@value& (0+255),b
  3996  001500  0102               	movlb	2	; () banked
  3997  001502  0E00               	movlw	0
  3998  001504  0103               	movlb	3	; () banked
  3999  001506  2183               	addwfc	(??_make16+3)& (0+255),w,b
  4000  001508  6F86               	movwf	(make16@value+1)& (0+255),b
  4001  00150A                     
  4002                           ; BSR set to: 3
  4003                           ;main.c: 482:         return value;
  4004  00150A  C385  F2FA         	movff	make16@value,?_make16
  4005  00150E  C386  F2FB         	movff	make16@value+1,?_make16+1
  4006  001512                     
  4007                           ; BSR set to: 3
  4008  001512  0012               	return		;funcret
  4009  001514                     __end_of_make16:
  4010                           	callstack 0
  4011                           
  4012 ;; *************** function ___awdiv *****************
  4013 ;; Defined at:
  4014 ;;		line 7 in file "C:\Program Files\Microchip\xc8\v2.32\pic\sources\c99\common\awdiv.c"
  4015 ;; Parameters:    Size  Location     Type
  4016 ;;  dividend        2    0[BANK2 ] int 
  4017 ;;  divisor         2    2[BANK2 ] int 
  4018 ;; Auto vars:     Size  Location     Type
  4019 ;;  quotient        2    2[BANK3 ] int 
  4020 ;;  sign            1    1[BANK3 ] unsigned char 
  4021 ;;  counter         1    0[BANK3 ] unsigned char 
  4022 ;; Return value:  Size  Location     Type
  4023 ;;                  2    0[BANK2 ] int 
  4024 ;; Registers used:
  4025 ;;		wreg, status,2, status,0
  4026 ;; Tracked objects:
  4027 ;;		On entry : 0/0
  4028 ;;		On exit  : 0/0
  4029 ;;		Unchanged: 0/0
  4030 ;; Data sizes:     COMRAM   BANK0   BANK1   BANK2   BANK3   BANK4   BANK5   BANK6   BANK7
  4031 ;;      Params:         0       0       0       4       0       0       0       0       0
  4032 ;;      Locals:         0       0       0       0       4       0       0       0       0
  4033 ;;      Temps:          0       0       0       0       0       0       0       0       0
  4034 ;;      Totals:         0       0       0       4       4       0       0       0       0
  4035 ;;Total ram usage:        8 bytes
  4036 ;; Hardware stack levels used: 1
  4037 ;; Hardware stack levels required when called: 16
  4038 ;; This function calls:
  4039 ;;		Nothing
  4040 ;; This function is called by:
  4041 ;;		_main
  4042 ;; This function uses a non-reentrant model
  4043 ;;
  4044                           
  4045                           	psect	text24
  4046  00053C                     __ptext24:
  4047                           	callstack 0
  4048  00053C                     ___awdiv:
  4049                           	callstack 14
  4050  00053C  0E00               	movlw	0
  4051  00053E  0103               	movlb	3	; () banked
  4052  000540  6F81               	movwf	___awdiv@sign& (0+255),b
  4053  000542                     
  4054                           ; BSR set to: 3
  4055  000542  0102               	movlb	2	; () banked
  4056  000544  BFFD               	btfsc	(___awdiv@divisor+1)& (0+255),7,b
  4057  000546  EFA9  F002         	goto	u3640
  4058  00054A  EFA7  F002         	goto	u3641
  4059  00054E                     u3641:
  4060  00054E  EFB0  F002         	goto	l7555
  4061  000552                     u3640:
  4062  000552                     
  4063                           ; BSR set to: 2
  4064  000552  6DFC               	negf	___awdiv@divisor& (0+255),b
  4065  000554  1FFD               	comf	(___awdiv@divisor+1)& (0+255),f,b
  4066  000556  B0D8               	btfsc	status,0,c
  4067  000558  2BFD               	incf	(___awdiv@divisor+1)& (0+255),f,b
  4068  00055A                     
  4069                           ; BSR set to: 2
  4070  00055A  0E01               	movlw	1
  4071  00055C  0103               	movlb	3	; () banked
  4072  00055E  6F81               	movwf	___awdiv@sign& (0+255),b
  4073  000560                     l7555:
  4074  000560  0102               	movlb	2	; () banked
  4075  000562  BFFB               	btfsc	(___awdiv@dividend+1)& (0+255),7,b
  4076  000564  EFB8  F002         	goto	u3650
  4077  000568  EFB6  F002         	goto	u3651
  4078  00056C                     u3651:
  4079  00056C  EFBF  F002         	goto	l7561
  4080  000570                     u3650:
  4081  000570                     
  4082                           ; BSR set to: 2
  4083  000570  6DFA               	negf	___awdiv@dividend& (0+255),b
  4084  000572  1FFB               	comf	(___awdiv@dividend+1)& (0+255),f,b
  4085  000574  B0D8               	btfsc	status,0,c
  4086  000576  2BFB               	incf	(___awdiv@dividend+1)& (0+255),f,b
  4087  000578                     
  4088                           ; BSR set to: 2
  4089  000578  0E01               	movlw	1
  4090  00057A  0103               	movlb	3	; () banked
  4091  00057C  1B81               	xorwf	___awdiv@sign& (0+255),f,b
  4092  00057E                     l7561:
  4093  00057E  0E00               	movlw	0
  4094  000580  0103               	movlb	3	; () banked
  4095  000582  6F83               	movwf	(___awdiv@quotient+1)& (0+255),b
  4096  000584  0E00               	movlw	0
  4097  000586  6F82               	movwf	___awdiv@quotient& (0+255),b
  4098  000588                     
  4099                           ; BSR set to: 3
  4100  000588  0102               	movlb	2	; () banked
  4101  00058A  51FC               	movf	___awdiv@divisor& (0+255),w,b
  4102  00058C  11FD               	iorwf	(___awdiv@divisor+1)& (0+255),w,b
  4103  00058E  B4D8               	btfsc	status,2,c
  4104  000590  EFCC  F002         	goto	u3661
  4105  000594  EFCE  F002         	goto	u3660
  4106  000598                     u3661:
  4107  000598  EFFE  F002         	goto	l7583
  4108  00059C                     u3660:
  4109  00059C                     
  4110                           ; BSR set to: 2
  4111  00059C  0E01               	movlw	1
  4112  00059E  0103               	movlb	3	; () banked
  4113  0005A0  6F80               	movwf	___awdiv@counter& (0+255),b
  4114  0005A2  EFD8  F002         	goto	l7569
  4115  0005A6                     l7567:
  4116                           
  4117                           ; BSR set to: 2
  4118  0005A6  90D8               	bcf	status,0,c
  4119  0005A8  37FC               	rlcf	___awdiv@divisor& (0+255),f,b
  4120  0005AA  37FD               	rlcf	(___awdiv@divisor+1)& (0+255),f,b
  4121  0005AC  0103               	movlb	3	; () banked
  4122  0005AE  2B80               	incf	___awdiv@counter& (0+255),f,b
  4123  0005B0                     l7569:
  4124                           
  4125                           ; BSR set to: 3
  4126  0005B0  0102               	movlb	2	; () banked
  4127  0005B2  AFFD               	btfss	(___awdiv@divisor+1)& (0+255),7,b
  4128  0005B4  EFDE  F002         	goto	u3671
  4129  0005B8  EFE0  F002         	goto	u3670
  4130  0005BC                     u3671:
  4131  0005BC  EFD3  F002         	goto	l7567
  4132  0005C0                     u3670:
  4133  0005C0                     l7571:
  4134  0005C0  0103               	movlb	3	; () banked
  4135  0005C2  90D8               	bcf	status,0,c
  4136  0005C4  3782               	rlcf	___awdiv@quotient& (0+255),f,b
  4137  0005C6  3783               	rlcf	(___awdiv@quotient+1)& (0+255),f,b
  4138  0005C8                     
  4139                           ; BSR set to: 3
  4140  0005C8  0102               	movlb	2	; () banked
  4141  0005CA  51FC               	movf	___awdiv@divisor& (0+255),w,b
  4142  0005CC  5DFA               	subwf	___awdiv@dividend& (0+255),w,b
  4143  0005CE  51FD               	movf	(___awdiv@divisor+1)& (0+255),w,b
  4144  0005D0  59FB               	subwfb	(___awdiv@dividend+1)& (0+255),w,b
  4145  0005D2  A0D8               	btfss	status,0,c
  4146  0005D4  EFEE  F002         	goto	u3681
  4147  0005D8  EFF0  F002         	goto	u3680
  4148  0005DC                     u3681:
  4149  0005DC  EFF6  F002         	goto	l7579
  4150  0005E0                     u3680:
  4151  0005E0                     
  4152                           ; BSR set to: 2
  4153  0005E0  51FC               	movf	___awdiv@divisor& (0+255),w,b
  4154  0005E2  5FFA               	subwf	___awdiv@dividend& (0+255),f,b
  4155  0005E4  51FD               	movf	(___awdiv@divisor+1)& (0+255),w,b
  4156  0005E6  5BFB               	subwfb	(___awdiv@dividend+1)& (0+255),f,b
  4157  0005E8                     
  4158                           ; BSR set to: 2
  4159  0005E8  0103               	movlb	3	; () banked
  4160  0005EA  8182               	bsf	___awdiv@quotient& (0+255),0,b
  4161  0005EC                     l7579:
  4162  0005EC  0102               	movlb	2	; () banked
  4163  0005EE  90D8               	bcf	status,0,c
  4164  0005F0  33FD               	rrcf	(___awdiv@divisor+1)& (0+255),f,b
  4165  0005F2  33FC               	rrcf	___awdiv@divisor& (0+255),f,b
  4166  0005F4                     
  4167                           ; BSR set to: 2
  4168  0005F4  0103               	movlb	3	; () banked
  4169  0005F6  2F80               	decfsz	___awdiv@counter& (0+255),f,b
  4170  0005F8  EFE0  F002         	goto	l7571
  4171  0005FC                     l7583:
  4172  0005FC  0103               	movlb	3	; () banked
  4173  0005FE  5181               	movf	___awdiv@sign& (0+255),w,b
  4174  000600  B4D8               	btfsc	status,2,c
  4175  000602  EF05  F003         	goto	u3691
  4176  000606  EF07  F003         	goto	u3690
  4177  00060A                     u3691:
  4178  00060A  EF0B  F003         	goto	l7587
  4179  00060E                     u3690:
  4180  00060E                     
  4181                           ; BSR set to: 3
  4182  00060E  6D82               	negf	___awdiv@quotient& (0+255),b
  4183  000610  1F83               	comf	(___awdiv@quotient+1)& (0+255),f,b
  4184  000612  B0D8               	btfsc	status,0,c
  4185  000614  2B83               	incf	(___awdiv@quotient+1)& (0+255),f,b
  4186  000616                     l7587:
  4187                           
  4188                           ; BSR set to: 3
  4189  000616  C382  F2FA         	movff	___awdiv@quotient,?___awdiv
  4190  00061A  C383  F2FB         	movff	___awdiv@quotient+1,?___awdiv+1
  4191  00061E                     
  4192                           ; BSR set to: 3
  4193  00061E  0012               	return		;funcret
  4194  000620                     __end_of___awdiv:
  4195                           	callstack 0
  4196                           
  4197 ;; *************** function _UART2_Write *****************
  4198 ;; Defined at:
  4199 ;;		line 186 in file "mcc_generated_files/uart2.c"
  4200 ;; Parameters:    Size  Location     Type
  4201 ;;  txData          1    wreg     unsigned char 
  4202 ;; Auto vars:     Size  Location     Type
  4203 ;;  txData          1    0[BANK2 ] unsigned char 
  4204 ;;  t               2    1[BANK2 ] unsigned short 
  4205 ;; Return value:  Size  Location     Type
  4206 ;;                  1    wreg      void 
  4207 ;; Registers used:
  4208 ;;		wreg, status,2, status,0
  4209 ;; Tracked objects:
  4210 ;;		On entry : 0/0
  4211 ;;		On exit  : 0/0
  4212 ;;		Unchanged: 0/0
  4213 ;; Data sizes:     COMRAM   BANK0   BANK1   BANK2   BANK3   BANK4   BANK5   BANK6   BANK7
  4214 ;;      Params:         0       0       0       0       0       0       0       0       0
  4215 ;;      Locals:         0       0       0       3       0       0       0       0       0
  4216 ;;      Temps:          0       0       0       0       0       0       0       0       0
  4217 ;;      Totals:         0       0       0       3       0       0       0       0       0
  4218 ;;Total ram usage:        3 bytes
  4219 ;; Hardware stack levels used: 1
  4220 ;; Hardware stack levels required when called: 16
  4221 ;; This function calls:
  4222 ;;		Nothing
  4223 ;; This function is called by:
  4224 ;;		_main
  4225 ;;		_configlora
  4226 ;; This function uses a non-reentrant model
  4227 ;;
  4228                           
  4229                           	psect	text25
  4230  00140C                     __ptext25:
  4231                           	callstack 0
  4232  00140C                     _UART2_Write:
  4233                           	callstack 14
  4234                           
  4235                           ; BSR set to: 3
  4236                           ;incstack = 0
  4237                           ;UART2_Write@txData stored from wreg
  4238  00140C  0102               	movlb	2	; () banked
  4239  00140E  6FFA               	movwf	UART2_Write@txData& (0+255),b
  4240  001410                     
  4241                           ;mcc_generated_files/uart2.c: 186: void UART2_Write(uint8_t txData);mcc_generated_files/
      +                          uart2.c: 187: {;mcc_generated_files/uart2.c: 188:      uint16_t t=0;
  4242  001410  0E00               	movlw	0
  4243  001412  0102               	movlb	2	; () banked
  4244  001414  6FFC               	movwf	(UART2_Write@t+1)& (0+255),b
  4245  001416  0E00               	movlw	0
  4246  001418  6FFB               	movwf	UART2_Write@t& (0+255),b
  4247                           
  4248                           ;mcc_generated_files/uart2.c: 189:     while(0 == PIR6bits.U2TXIF && t<10000)
  4249  00141A  EF13  F00A         	goto	l7445
  4250  00141E                     l621:
  4251                           
  4252                           ; BSR set to: 2
  4253  00141E  0004               	clrwdt		;# 
  4254  001420                     
  4255                           ;mcc_generated_files/uart2.c: 192:         t++;
  4256  001420  0102               	movlb	2	; () banked
  4257  001422  4BFB               	infsnz	UART2_Write@t& (0+255),f,b
  4258  001424  2BFC               	incf	(UART2_Write@t+1)& (0+255),f,b
  4259  001426                     l7445:
  4260                           
  4261                           ; BSR set to: 2
  4262                           ;mcc_generated_files/uart2.c: 189:     while(0 == PIR6bits.U2TXIF && t<10000)
  4263  001426  0139               	movlb	57	; () banked
  4264  001428  B7A6               	btfsc	166,3,b	;volatile
  4265  00142A  EF19  F00A         	goto	u3571
  4266  00142E  EF1B  F00A         	goto	u3570
  4267  001432                     u3571:
  4268  001432  EF27  F00A         	goto	l624
  4269  001436                     u3570:
  4270  001436                     
  4271                           ; BSR set to: 57
  4272  001436  0E10               	movlw	16
  4273  001438  0102               	movlb	2	; () banked
  4274  00143A  5DFB               	subwf	UART2_Write@t& (0+255),w,b
  4275  00143C  0E27               	movlw	39
  4276  00143E  59FC               	subwfb	(UART2_Write@t+1)& (0+255),w,b
  4277  001440  A0D8               	btfss	status,0,c
  4278  001442  EF25  F00A         	goto	u3581
  4279  001446  EF27  F00A         	goto	u3580
  4280  00144A                     u3581:
  4281  00144A  EF0F  F00A         	goto	l621
  4282  00144E                     u3580:
  4283  00144E                     l624:
  4284                           
  4285                           ;mcc_generated_files/uart2.c: 195:     U2TXB = txData;
  4286  00144E  0060  FBEB  FDD2   	movff	UART2_Write@txData,15826	;volatile
  4287  001454  0012               	return		;funcret
  4288  001456                     __end_of_UART2_Write:
  4289                           	callstack 0
  4290                           
  4291 ;; *************** function _SYSTEM_Initialize *****************
  4292 ;; Defined at:
  4293 ;;		line 50 in file "mcc_generated_files/mcc.c"
  4294 ;; Parameters:    Size  Location     Type
  4295 ;;		None
  4296 ;; Auto vars:     Size  Location     Type
  4297 ;;		None
  4298 ;; Return value:  Size  Location     Type
  4299 ;;                  1    wreg      void 
  4300 ;; Registers used:
  4301 ;;		wreg, status,2, status,0, cstack
  4302 ;; Tracked objects:
  4303 ;;		On entry : 0/0
  4304 ;;		On exit  : 0/0
  4305 ;;		Unchanged: 0/0
  4306 ;; Data sizes:     COMRAM   BANK0   BANK1   BANK2   BANK3   BANK4   BANK5   BANK6   BANK7
  4307 ;;      Params:         0       0       0       0       0       0       0       0       0
  4308 ;;      Locals:         0       0       0       0       0       0       0       0       0
  4309 ;;      Temps:          0       0       0       0       0       0       0       0       0
  4310 ;;      Totals:         0       0       0       0       0       0       0       0       0
  4311 ;;Total ram usage:        0 bytes
  4312 ;; Hardware stack levels used: 1
  4313 ;; Hardware stack levels required when called: 18
  4314 ;; This function calls:
  4315 ;;		_I2C2_Initialize
  4316 ;;		_INTERRUPT_Initialize
  4317 ;;		_OSCILLATOR_Initialize
  4318 ;;		_PIN_MANAGER_Initialize
  4319 ;;		_PMD_Initialize
  4320 ;;		_TMR0_Initialize
  4321 ;;		_UART1_Initialize
  4322 ;;		_UART2_Initialize
  4323 ;; This function is called by:
  4324 ;;		_main
  4325 ;; This function uses a non-reentrant model
  4326 ;;
  4327                           
  4328                           	psect	text26
  4329  001810                     __ptext26:
  4330                           	callstack 0
  4331  001810                     _SYSTEM_Initialize:
  4332                           	callstack 12
  4333  001810                     
  4334                           ;mcc_generated_files/mcc.c: 52:     INTERRUPT_Initialize();
  4335  001810  EC6F  F00D         	call	_INTERRUPT_Initialize	;wreg free
  4336  001814                     
  4337                           ;mcc_generated_files/mcc.c: 53:     PMD_Initialize();
  4338  001814  ECF6  F00B         	call	_PMD_Initialize	;wreg free
  4339  001818                     
  4340                           ;mcc_generated_files/mcc.c: 54:     PIN_MANAGER_Initialize();
  4341  001818  ECE2  F003         	call	_PIN_MANAGER_Initialize	;wreg free
  4342  00181C                     
  4343                           ;mcc_generated_files/mcc.c: 55:     OSCILLATOR_Initialize();
  4344  00181C  EC9B  F00C         	call	_OSCILLATOR_Initialize	;wreg free
  4345  001820                     
  4346                           ;mcc_generated_files/mcc.c: 56:     TMR0_Initialize();
  4347  001820  EC4D  F00A         	call	_TMR0_Initialize	;wreg free
  4348  001824                     
  4349                           ;mcc_generated_files/mcc.c: 57:     UART2_Initialize();
  4350  001824  EC15  F006         	call	_UART2_Initialize	;wreg free
  4351  001828                     
  4352                           ;mcc_generated_files/mcc.c: 58:     UART1_Initialize();
  4353  001828  EC89  F005         	call	_UART1_Initialize	;wreg free
  4354  00182C                     
  4355                           ;mcc_generated_files/mcc.c: 59:     I2C2_Initialize();
  4356  00182C  EC19  F00C         	call	_I2C2_Initialize	;wreg free
  4357  001830  0012               	return		;funcret
  4358  001832                     __end_of_SYSTEM_Initialize:
  4359                           	callstack 0
  4360                           
  4361 ;; *************** function _UART2_Initialize *****************
  4362 ;; Defined at:
  4363 ;;		line 84 in file "mcc_generated_files/uart2.c"
  4364 ;; Parameters:    Size  Location     Type
  4365 ;;		None
  4366 ;; Auto vars:     Size  Location     Type
  4367 ;;		None
  4368 ;; Return value:  Size  Location     Type
  4369 ;;                  1    wreg      void 
  4370 ;; Registers used:
  4371 ;;		wreg, status,2, status,0, cstack
  4372 ;; Tracked objects:
  4373 ;;		On entry : 0/0
  4374 ;;		On exit  : 0/0
  4375 ;;		Unchanged: 0/0
  4376 ;; Data sizes:     COMRAM   BANK0   BANK1   BANK2   BANK3   BANK4   BANK5   BANK6   BANK7
  4377 ;;      Params:         0       0       0       0       0       0       0       0       0
  4378 ;;      Locals:         0       0       0       0       0       0       0       0       0
  4379 ;;      Temps:          0       0       0       0       0       0       0       0       0
  4380 ;;      Totals:         0       0       0       0       0       0       0       0       0
  4381 ;;Total ram usage:        0 bytes
  4382 ;; Hardware stack levels used: 1
  4383 ;; Hardware stack levels required when called: 17
  4384 ;; This function calls:
  4385 ;;		_UART2_SetErrorHandler
  4386 ;;		_UART2_SetFramingErrorHandler
  4387 ;;		_UART2_SetOverrunErrorHandler
  4388 ;;		_UART2_SetRxInterruptHandler
  4389 ;; This function is called by:
  4390 ;;		_SYSTEM_Initialize
  4391 ;; This function uses a non-reentrant model
  4392 ;;
  4393                           
  4394                           	psect	text27
  4395  000C2A                     __ptext27:
  4396                           	callstack 0
  4397  000C2A                     _UART2_Initialize:
  4398                           	callstack 12
  4399  000C2A                     
  4400                           ;mcc_generated_files/uart2.c: 87:     PIE6bits.U2RXIE = 0;
  4401  000C2A  0139               	movlb	57	; () banked
  4402  000C2C  9596               	bcf	150,2,b	;volatile
  4403  000C2E                     
  4404                           ; BSR set to: 57
  4405                           ;mcc_generated_files/uart2.c: 88:     UART2_SetRxInterruptHandler(UART2_Receive_ISR);
  4406  000C2E  0E50               	movlw	low _UART2_Receive_ISR
  4407  000C30  0102               	movlb	2	; () banked
  4408  000C32  6FFA               	movwf	UART2_SetRxInterruptHandler@InterruptHandler& (0+255),b
  4409  000C34  0E17               	movlw	high _UART2_Receive_ISR
  4410  000C36  6FFB               	movwf	(UART2_SetRxInterruptHandler@InterruptHandler+1)& (0+255),b
  4411  000C38  ECE6  F00D         	call	_UART2_SetRxInterruptHandler	;wreg free
  4412  000C3C                     
  4413                           ;mcc_generated_files/uart2.c: 93:     U2P1L = 0x00;
  4414  000C3C  0E00               	movlw	0
  4415  000C3E  013D               	movlb	61	; () banked
  4416  000C40  6FD4               	movwf	212,b	;volatile
  4417  000C42                     
  4418                           ; BSR set to: 61
  4419                           ;mcc_generated_files/uart2.c: 96:     U2P2L = 0x00;
  4420  000C42  0E00               	movlw	0
  4421  000C44  6FD6               	movwf	214,b	;volatile
  4422  000C46                     
  4423                           ; BSR set to: 61
  4424                           ;mcc_generated_files/uart2.c: 99:     U2P3L = 0x00;
  4425  000C46  0E00               	movlw	0
  4426  000C48  6FD8               	movwf	216,b	;volatile
  4427  000C4A                     
  4428                           ; BSR set to: 61
  4429                           ;mcc_generated_files/uart2.c: 102:     U2CON0 = 0xB0;
  4430  000C4A  0EB0               	movlw	176
  4431  000C4C  6FDA               	movwf	218,b	;volatile
  4432  000C4E                     
  4433                           ; BSR set to: 61
  4434                           ;mcc_generated_files/uart2.c: 105:     U2CON1 = 0x80;
  4435  000C4E  0E80               	movlw	128
  4436  000C50  6FDB               	movwf	219,b	;volatile
  4437  000C52                     
  4438                           ; BSR set to: 61
  4439                           ;mcc_generated_files/uart2.c: 108:     U2CON2 = 0x00;
  4440  000C52  0E00               	movlw	0
  4441  000C54  6FDC               	movwf	220,b	;volatile
  4442  000C56                     
  4443                           ; BSR set to: 61
  4444                           ;mcc_generated_files/uart2.c: 111:     U2BRGL = 0x08;
  4445  000C56  0E08               	movlw	8
  4446  000C58  6FDD               	movwf	221,b	;volatile
  4447  000C5A                     
  4448                           ; BSR set to: 61
  4449                           ;mcc_generated_files/uart2.c: 114:     U2BRGH = 0x02;
  4450  000C5A  0E02               	movlw	2
  4451  000C5C  6FDE               	movwf	222,b	;volatile
  4452  000C5E                     
  4453                           ; BSR set to: 61
  4454                           ;mcc_generated_files/uart2.c: 117:     U2FIFO = 0x00;
  4455  000C5E  0E00               	movlw	0
  4456  000C60  6FDF               	movwf	223,b	;volatile
  4457  000C62                     
  4458                           ; BSR set to: 61
  4459                           ;mcc_generated_files/uart2.c: 120:     U2UIR = 0x00;
  4460  000C62  0E00               	movlw	0
  4461  000C64  6FE0               	movwf	224,b	;volatile
  4462  000C66                     
  4463                           ; BSR set to: 61
  4464                           ;mcc_generated_files/uart2.c: 123:     U2ERRIR = 0x00;
  4465  000C66  0E00               	movlw	0
  4466  000C68  6FE1               	movwf	225,b	;volatile
  4467  000C6A                     
  4468                           ; BSR set to: 61
  4469                           ;mcc_generated_files/uart2.c: 126:     U2ERRIE = 0x00;
  4470  000C6A  0E00               	movlw	0
  4471  000C6C  6FE2               	movwf	226,b	;volatile
  4472                           
  4473                           ;mcc_generated_files/uart2.c: 129:     UART2_SetFramingErrorHandler(UART2_DefaultFraming
      +                          ErrorHandler);
  4474  000C6E  0E00               	movlw	0
  4475  000C70  0102               	movlb	2	; () banked
  4476  000C72  6FFA               	movwf	UART2_SetFramingErrorHandler@interruptHandler& (0+255),b
  4477  000C74  0E00               	movlw	0
  4478  000C76  6FFB               	movwf	(UART2_SetFramingErrorHandler@interruptHandler+1)& (0+255),b
  4479  000C78  ECF0  F00D         	call	_UART2_SetFramingErrorHandler	;wreg free
  4480                           
  4481                           ;mcc_generated_files/uart2.c: 130:     UART2_SetOverrunErrorHandler(UART2_DefaultOverrun
      +                          ErrorHandler);
  4482  000C7C  0E00               	movlw	0
  4483  000C7E  0102               	movlb	2	; () banked
  4484  000C80  6FFA               	movwf	UART2_SetOverrunErrorHandler@interruptHandler& (0+255),b
  4485  000C82  0E00               	movlw	0
  4486  000C84  6FFB               	movwf	(UART2_SetOverrunErrorHandler@interruptHandler+1)& (0+255),b
  4487  000C86  ECEB  F00D         	call	_UART2_SetOverrunErrorHandler	;wreg free
  4488                           
  4489                           ;mcc_generated_files/uart2.c: 131:     UART2_SetErrorHandler(UART2_DefaultErrorHandler);
  4490  000C8A  0E00               	movlw	0
  4491  000C8C  0102               	movlb	2	; () banked
  4492  000C8E  6FFA               	movwf	UART2_SetErrorHandler@interruptHandler& (0+255),b
  4493  000C90  0E00               	movlw	0
  4494  000C92  6FFB               	movwf	(UART2_SetErrorHandler@interruptHandler+1)& (0+255),b
  4495  000C94  ECF5  F00D         	call	_UART2_SetErrorHandler	;wreg free
  4496  000C98                     
  4497                           ;mcc_generated_files/uart2.c: 133:     uart2RxLastError.status = 0;
  4498  000C98  0E00               	movlw	0
  4499  000C9A  6E24               	movwf	_uart2RxLastError^0,c	;volatile
  4500  000C9C                     
  4501                           ;mcc_generated_files/uart2.c: 135:     uart2RxHead = 0;
  4502  000C9C  0E00               	movlw	0
  4503  000C9E  6E27               	movwf	_uart2RxHead^0,c	;volatile
  4504  000CA0                     
  4505                           ;mcc_generated_files/uart2.c: 136:     uart2RxTail = 0;
  4506  000CA0  0E00               	movlw	0
  4507  000CA2  6E26               	movwf	_uart2RxTail^0,c	;volatile
  4508  000CA4                     
  4509                           ;mcc_generated_files/uart2.c: 137:     uart2RxCount = 0;
  4510  000CA4  0E00               	movlw	0
  4511  000CA6  6E25               	movwf	_uart2RxCount^0,c	;volatile
  4512  000CA8                     
  4513                           ;mcc_generated_files/uart2.c: 140:     PIE6bits.U2RXIE = 1;
  4514  000CA8  0139               	movlb	57	; () banked
  4515  000CAA  8596               	bsf	150,2,b	;volatile
  4516  000CAC                     
  4517                           ; BSR set to: 57
  4518  000CAC  0012               	return		;funcret
  4519  000CAE                     __end_of_UART2_Initialize:
  4520                           	callstack 0
  4521                           
  4522 ;; *************** function _UART2_SetRxInterruptHandler *****************
  4523 ;; Defined at:
  4524 ;;		line 293 in file "mcc_generated_files/uart2.c"
  4525 ;; Parameters:    Size  Location     Type
  4526 ;;  InterruptHan    2    0[BANK2 ] PTR FTN()void 
  4527 ;;		 -> UART2_Receive_ISR(1), 
  4528 ;; Auto vars:     Size  Location     Type
  4529 ;;		None
  4530 ;; Return value:  Size  Location     Type
  4531 ;;                  1    wreg      void 
  4532 ;; Registers used:
  4533 ;;		wreg, status,2, status,0
  4534 ;; Tracked objects:
  4535 ;;		On entry : 0/0
  4536 ;;		On exit  : 0/0
  4537 ;;		Unchanged: 0/0
  4538 ;; Data sizes:     COMRAM   BANK0   BANK1   BANK2   BANK3   BANK4   BANK5   BANK6   BANK7
  4539 ;;      Params:         0       0       0       2       0       0       0       0       0
  4540 ;;      Locals:         0       0       0       0       0       0       0       0       0
  4541 ;;      Temps:          0       0       0       0       0       0       0       0       0
  4542 ;;      Totals:         0       0       0       2       0       0       0       0       0
  4543 ;;Total ram usage:        2 bytes
  4544 ;; Hardware stack levels used: 1
  4545 ;; Hardware stack levels required when called: 16
  4546 ;; This function calls:
  4547 ;;		Nothing
  4548 ;; This function is called by:
  4549 ;;		_UART2_Initialize
  4550 ;; This function uses a non-reentrant model
  4551 ;;
  4552                           
  4553                           	psect	text28
  4554  001BCC                     __ptext28:
  4555                           	callstack 0
  4556  001BCC                     _UART2_SetRxInterruptHandler:
  4557                           	callstack 12
  4558  001BCC                     
  4559                           ;mcc_generated_files/uart2.c: 294:     UART2_RxInterruptHandler = InterruptHandler;
  4560  001BCC  C2FA  F0F8         	movff	UART2_SetRxInterruptHandler@InterruptHandler,_UART2_RxInterruptHandler
  4561  001BD0  C2FB  F0F9         	movff	UART2_SetRxInterruptHandler@InterruptHandler+1,_UART2_RxInterruptHandler+1
  4562  001BD4  0012               	return		;funcret
  4563  001BD6                     __end_of_UART2_SetRxInterruptHandler:
  4564                           	callstack 0
  4565                           
  4566 ;; *************** function _UART2_SetOverrunErrorHandler *****************
  4567 ;; Defined at:
  4568 ;;		line 283 in file "mcc_generated_files/uart2.c"
  4569 ;; Parameters:    Size  Location     Type
  4570 ;;  interruptHan    2    0[BANK2 ] PTR FTN()void 
  4571 ;;		 -> UART2_DefaultOverrunErrorHandler(1), 
  4572 ;; Auto vars:     Size  Location     Type
  4573 ;;		None
  4574 ;; Return value:  Size  Location     Type
  4575 ;;                  1    wreg      void 
  4576 ;; Registers used:
  4577 ;;		wreg, status,2, status,0
  4578 ;; Tracked objects:
  4579 ;;		On entry : 0/0
  4580 ;;		On exit  : 0/0
  4581 ;;		Unchanged: 0/0
  4582 ;; Data sizes:     COMRAM   BANK0   BANK1   BANK2   BANK3   BANK4   BANK5   BANK6   BANK7
  4583 ;;      Params:         0       0       0       2       0       0       0       0       0
  4584 ;;      Locals:         0       0       0       0       0       0       0       0       0
  4585 ;;      Temps:          0       0       0       0       0       0       0       0       0
  4586 ;;      Totals:         0       0       0       2       0       0       0       0       0
  4587 ;;Total ram usage:        2 bytes
  4588 ;; Hardware stack levels used: 1
  4589 ;; Hardware stack levels required when called: 16
  4590 ;; This function calls:
  4591 ;;		Nothing
  4592 ;; This function is called by:
  4593 ;;		_UART2_Initialize
  4594 ;; This function uses a non-reentrant model
  4595 ;;
  4596                           
  4597                           	psect	text29
  4598  001BD6                     __ptext29:
  4599                           	callstack 0
  4600  001BD6                     _UART2_SetOverrunErrorHandler:
  4601                           	callstack 12
  4602  001BD6                     
  4603                           ;mcc_generated_files/uart2.c: 284:     UART2_OverrunErrorHandler = interruptHandler;
  4604  001BD6  C2FA  F1F8         	movff	UART2_SetOverrunErrorHandler@interruptHandler,_UART2_OverrunErrorHandler
  4605  001BDA  C2FB  F1F9         	movff	UART2_SetOverrunErrorHandler@interruptHandler+1,_UART2_OverrunErrorHandler+1
  4606  001BDE  0012               	return		;funcret
  4607  001BE0                     __end_of_UART2_SetOverrunErrorHandler:
  4608                           	callstack 0
  4609                           
  4610 ;; *************** function _UART2_SetFramingErrorHandler *****************
  4611 ;; Defined at:
  4612 ;;		line 279 in file "mcc_generated_files/uart2.c"
  4613 ;; Parameters:    Size  Location     Type
  4614 ;;  interruptHan    2    0[BANK2 ] PTR FTN()void 
  4615 ;;		 -> UART2_DefaultFramingErrorHandler(1), 
  4616 ;; Auto vars:     Size  Location     Type
  4617 ;;		None
  4618 ;; Return value:  Size  Location     Type
  4619 ;;                  1    wreg      void 
  4620 ;; Registers used:
  4621 ;;		wreg, status,2, status,0
  4622 ;; Tracked objects:
  4623 ;;		On entry : 0/0
  4624 ;;		On exit  : 0/0
  4625 ;;		Unchanged: 0/0
  4626 ;; Data sizes:     COMRAM   BANK0   BANK1   BANK2   BANK3   BANK4   BANK5   BANK6   BANK7
  4627 ;;      Params:         0       0       0       2       0       0       0       0       0
  4628 ;;      Locals:         0       0       0       0       0       0       0       0       0
  4629 ;;      Temps:          0       0       0       0       0       0       0       0       0
  4630 ;;      Totals:         0       0       0       2       0       0       0       0       0
  4631 ;;Total ram usage:        2 bytes
  4632 ;; Hardware stack levels used: 1
  4633 ;; Hardware stack levels required when called: 16
  4634 ;; This function calls:
  4635 ;;		Nothing
  4636 ;; This function is called by:
  4637 ;;		_UART2_Initialize
  4638 ;; This function uses a non-reentrant model
  4639 ;;
  4640                           
  4641                           	psect	text30
  4642  001BE0                     __ptext30:
  4643                           	callstack 0
  4644  001BE0                     _UART2_SetFramingErrorHandler:
  4645                           	callstack 12
  4646  001BE0                     
  4647                           ;mcc_generated_files/uart2.c: 280:     UART2_FramingErrorHandler = interruptHandler;
  4648  001BE0  C2FA  F1FA         	movff	UART2_SetFramingErrorHandler@interruptHandler,_UART2_FramingErrorHandler
  4649  001BE4  C2FB  F1FB         	movff	UART2_SetFramingErrorHandler@interruptHandler+1,_UART2_FramingErrorHandler+1
  4650  001BE8  0012               	return		;funcret
  4651  001BEA                     __end_of_UART2_SetFramingErrorHandler:
  4652                           	callstack 0
  4653                           
  4654 ;; *************** function _UART2_SetErrorHandler *****************
  4655 ;; Defined at:
  4656 ;;		line 287 in file "mcc_generated_files/uart2.c"
  4657 ;; Parameters:    Size  Location     Type
  4658 ;;  interruptHan    2    0[BANK2 ] PTR FTN()void 
  4659 ;;		 -> UART2_DefaultErrorHandler(1), 
  4660 ;; Auto vars:     Size  Location     Type
  4661 ;;		None
  4662 ;; Return value:  Size  Location     Type
  4663 ;;                  1    wreg      void 
  4664 ;; Registers used:
  4665 ;;		wreg, status,2, status,0
  4666 ;; Tracked objects:
  4667 ;;		On entry : 0/0
  4668 ;;		On exit  : 0/0
  4669 ;;		Unchanged: 0/0
  4670 ;; Data sizes:     COMRAM   BANK0   BANK1   BANK2   BANK3   BANK4   BANK5   BANK6   BANK7
  4671 ;;      Params:         0       0       0       2       0       0       0       0       0
  4672 ;;      Locals:         0       0       0       0       0       0       0       0       0
  4673 ;;      Temps:          0       0       0       0       0       0       0       0       0
  4674 ;;      Totals:         0       0       0       2       0       0       0       0       0
  4675 ;;Total ram usage:        2 bytes
  4676 ;; Hardware stack levels used: 1
  4677 ;; Hardware stack levels required when called: 16
  4678 ;; This function calls:
  4679 ;;		Nothing
  4680 ;; This function is called by:
  4681 ;;		_UART2_Initialize
  4682 ;; This function uses a non-reentrant model
  4683 ;;
  4684                           
  4685                           	psect	text31
  4686  001BEA                     __ptext31:
  4687                           	callstack 0
  4688  001BEA                     _UART2_SetErrorHandler:
  4689                           	callstack 12
  4690  001BEA                     
  4691                           ;mcc_generated_files/uart2.c: 288:     UART2_ErrorHandler = interruptHandler;
  4692  001BEA  C2FA  F2FE         	movff	UART2_SetErrorHandler@interruptHandler,_UART2_ErrorHandler
  4693  001BEE  C2FB  F2FF         	movff	UART2_SetErrorHandler@interruptHandler+1,_UART2_ErrorHandler+1
  4694  001BF2  0012               	return		;funcret
  4695  001BF4                     __end_of_UART2_SetErrorHandler:
  4696                           	callstack 0
  4697                           
  4698 ;; *************** function _UART1_Initialize *****************
  4699 ;; Defined at:
  4700 ;;		line 84 in file "mcc_generated_files/uart1.c"
  4701 ;; Parameters:    Size  Location     Type
  4702 ;;		None
  4703 ;; Auto vars:     Size  Location     Type
  4704 ;;		None
  4705 ;; Return value:  Size  Location     Type
  4706 ;;                  1    wreg      void 
  4707 ;; Registers used:
  4708 ;;		wreg, status,2, status,0, cstack
  4709 ;; Tracked objects:
  4710 ;;		On entry : 0/0
  4711 ;;		On exit  : 0/0
  4712 ;;		Unchanged: 0/0
  4713 ;; Data sizes:     COMRAM   BANK0   BANK1   BANK2   BANK3   BANK4   BANK5   BANK6   BANK7
  4714 ;;      Params:         0       0       0       0       0       0       0       0       0
  4715 ;;      Locals:         0       0       0       0       0       0       0       0       0
  4716 ;;      Temps:          0       0       0       0       0       0       0       0       0
  4717 ;;      Totals:         0       0       0       0       0       0       0       0       0
  4718 ;;Total ram usage:        0 bytes
  4719 ;; Hardware stack levels used: 1
  4720 ;; Hardware stack levels required when called: 17
  4721 ;; This function calls:
  4722 ;;		_UART1_SetErrorHandler
  4723 ;;		_UART1_SetFramingErrorHandler
  4724 ;;		_UART1_SetOverrunErrorHandler
  4725 ;;		_UART1_SetRxInterruptHandler
  4726 ;; This function is called by:
  4727 ;;		_SYSTEM_Initialize
  4728 ;; This function uses a non-reentrant model
  4729 ;;
  4730                           
  4731                           	psect	text32
  4732  000B12                     __ptext32:
  4733                           	callstack 0
  4734  000B12                     _UART1_Initialize:
  4735                           	callstack 12
  4736  000B12                     
  4737                           ;mcc_generated_files/uart1.c: 87:     PIE3bits.U1RXIE = 0;
  4738  000B12  0139               	movlb	57	; () banked
  4739  000B14  9793               	bcf	147,3,b	;volatile
  4740  000B16                     
  4741                           ; BSR set to: 57
  4742                           ;mcc_generated_files/uart1.c: 88:     UART1_SetRxInterruptHandler(UART1_Receive_ISR);
  4743  000B16  0EA0               	movlw	low _UART1_Receive_ISR
  4744  000B18  0102               	movlb	2	; () banked
  4745  000B1A  6FFA               	movwf	UART1_SetRxInterruptHandler@InterruptHandler& (0+255),b
  4746  000B1C  0E17               	movlw	high _UART1_Receive_ISR
  4747  000B1E  6FFB               	movwf	(UART1_SetRxInterruptHandler@InterruptHandler+1)& (0+255),b
  4748  000B20  ECFA  F00D         	call	_UART1_SetRxInterruptHandler	;wreg free
  4749  000B24                     
  4750                           ;mcc_generated_files/uart1.c: 93:     U1P1L = 0x00;
  4751  000B24  0E00               	movlw	0
  4752  000B26  013D               	movlb	61	; () banked
  4753  000B28  6FEC               	movwf	236,b	;volatile
  4754  000B2A                     
  4755                           ; BSR set to: 61
  4756                           ;mcc_generated_files/uart1.c: 96:     U1P1H = 0x00;
  4757  000B2A  0E00               	movlw	0
  4758  000B2C  6FED               	movwf	237,b	;volatile
  4759  000B2E                     
  4760                           ; BSR set to: 61
  4761                           ;mcc_generated_files/uart1.c: 99:     U1P2L = 0x00;
  4762  000B2E  0E00               	movlw	0
  4763  000B30  6FEE               	movwf	238,b	;volatile
  4764  000B32                     
  4765                           ; BSR set to: 61
  4766                           ;mcc_generated_files/uart1.c: 102:     U1P2H = 0x00;
  4767  000B32  0E00               	movlw	0
  4768  000B34  6FEF               	movwf	239,b	;volatile
  4769  000B36                     
  4770                           ; BSR set to: 61
  4771                           ;mcc_generated_files/uart1.c: 105:     U1P3L = 0x00;
  4772  000B36  0E00               	movlw	0
  4773  000B38  6FF0               	movwf	240,b	;volatile
  4774  000B3A                     
  4775                           ; BSR set to: 61
  4776                           ;mcc_generated_files/uart1.c: 108:     U1P3H = 0x00;
  4777  000B3A  0E00               	movlw	0
  4778  000B3C  6FF1               	movwf	241,b	;volatile
  4779  000B3E                     
  4780                           ; BSR set to: 61
  4781                           ;mcc_generated_files/uart1.c: 111:     U1CON0 = 0xB0;
  4782  000B3E  0EB0               	movlw	176
  4783  000B40  6FF2               	movwf	242,b	;volatile
  4784  000B42                     
  4785                           ; BSR set to: 61
  4786                           ;mcc_generated_files/uart1.c: 114:     U1CON1 = 0x80;
  4787  000B42  0E80               	movlw	128
  4788  000B44  6FF3               	movwf	243,b	;volatile
  4789  000B46                     
  4790                           ; BSR set to: 61
  4791                           ;mcc_generated_files/uart1.c: 117:     U1CON2 = 0x00;
  4792  000B46  0E00               	movlw	0
  4793  000B48  6FF4               	movwf	244,b	;volatile
  4794  000B4A                     
  4795                           ; BSR set to: 61
  4796                           ;mcc_generated_files/uart1.c: 120:     U1BRGL = 0x08;
  4797  000B4A  0E08               	movlw	8
  4798  000B4C  6FF5               	movwf	245,b	;volatile
  4799  000B4E                     
  4800                           ; BSR set to: 61
  4801                           ;mcc_generated_files/uart1.c: 123:     U1BRGH = 0x02;
  4802  000B4E  0E02               	movlw	2
  4803  000B50  6FF6               	movwf	246,b	;volatile
  4804  000B52                     
  4805                           ; BSR set to: 61
  4806                           ;mcc_generated_files/uart1.c: 126:     U1FIFO = 0x00;
  4807  000B52  0E00               	movlw	0
  4808  000B54  6FF7               	movwf	247,b	;volatile
  4809  000B56                     
  4810                           ; BSR set to: 61
  4811                           ;mcc_generated_files/uart1.c: 129:     U1UIR = 0x00;
  4812  000B56  0E00               	movlw	0
  4813  000B58  6FF8               	movwf	248,b	;volatile
  4814  000B5A                     
  4815                           ; BSR set to: 61
  4816                           ;mcc_generated_files/uart1.c: 132:     U1ERRIR = 0x00;
  4817  000B5A  0E00               	movlw	0
  4818  000B5C  6FF9               	movwf	249,b	;volatile
  4819  000B5E                     
  4820                           ; BSR set to: 61
  4821                           ;mcc_generated_files/uart1.c: 135:     U1ERRIE = 0x00;
  4822  000B5E  0E00               	movlw	0
  4823  000B60  6FFA               	movwf	250,b	;volatile
  4824  000B62                     
  4825                           ; BSR set to: 61
  4826                           ;mcc_generated_files/uart1.c: 138:     UART1_SetFramingErrorHandler(UART1_DefaultFraming
      +                          ErrorHandler);
  4827  000B62  0E00               	movlw	0
  4828  000B64  0102               	movlb	2	; () banked
  4829  000B66  6FFA               	movwf	UART1_SetFramingErrorHandler@interruptHandler& (0+255),b
  4830  000B68  0E00               	movlw	0
  4831  000B6A  6FFB               	movwf	(UART1_SetFramingErrorHandler@interruptHandler+1)& (0+255),b
  4832  000B6C  EC04  F00E         	call	_UART1_SetFramingErrorHandler	;wreg free
  4833  000B70                     
  4834                           ;mcc_generated_files/uart1.c: 139:     UART1_SetOverrunErrorHandler(UART1_DefaultOverrun
      +                          ErrorHandler);
  4835  000B70  0E00               	movlw	0
  4836  000B72  0102               	movlb	2	; () banked
  4837  000B74  6FFA               	movwf	UART1_SetOverrunErrorHandler@interruptHandler& (0+255),b
  4838  000B76  0E00               	movlw	0
  4839  000B78  6FFB               	movwf	(UART1_SetOverrunErrorHandler@interruptHandler+1)& (0+255),b
  4840  000B7A  ECFF  F00D         	call	_UART1_SetOverrunErrorHandler	;wreg free
  4841  000B7E                     
  4842                           ;mcc_generated_files/uart1.c: 140:     UART1_SetErrorHandler(UART1_DefaultErrorHandler);
  4843  000B7E  0E00               	movlw	0
  4844  000B80  0102               	movlb	2	; () banked
  4845  000B82  6FFA               	movwf	UART1_SetErrorHandler@interruptHandler& (0+255),b
  4846  000B84  0E00               	movlw	0
  4847  000B86  6FFB               	movwf	(UART1_SetErrorHandler@interruptHandler+1)& (0+255),b
  4848  000B88  EC09  F00E         	call	_UART1_SetErrorHandler	;wreg free
  4849                           
  4850                           ;mcc_generated_files/uart1.c: 142:     uart1RxLastError.status = 0;
  4851  000B8C  0E00               	movlw	0
  4852  000B8E  6E28               	movwf	_uart1RxLastError^0,c	;volatile
  4853                           
  4854                           ;mcc_generated_files/uart1.c: 144:     uart1RxHead = 0;
  4855  000B90  0E00               	movlw	0
  4856  000B92  6E2B               	movwf	_uart1RxHead^0,c	;volatile
  4857                           
  4858                           ;mcc_generated_files/uart1.c: 145:     uart1RxTail = 0;
  4859  000B94  0E00               	movlw	0
  4860  000B96  6E2A               	movwf	_uart1RxTail^0,c	;volatile
  4861                           
  4862                           ;mcc_generated_files/uart1.c: 146:     uart1RxCount = 0;
  4863  000B98  0E00               	movlw	0
  4864  000B9A  6E29               	movwf	_uart1RxCount^0,c	;volatile
  4865  000B9C                     
  4866                           ;mcc_generated_files/uart1.c: 149:     PIE3bits.U1RXIE = 1;
  4867  000B9C  0139               	movlb	57	; () banked
  4868  000B9E  8793               	bsf	147,3,b	;volatile
  4869  000BA0                     
  4870                           ; BSR set to: 57
  4871  000BA0  0012               	return		;funcret
  4872  000BA2                     __end_of_UART1_Initialize:
  4873                           	callstack 0
  4874                           
  4875 ;; *************** function _UART1_SetRxInterruptHandler *****************
  4876 ;; Defined at:
  4877 ;;		line 299 in file "mcc_generated_files/uart1.c"
  4878 ;; Parameters:    Size  Location     Type
  4879 ;;  InterruptHan    2    0[BANK2 ] PTR FTN()void 
  4880 ;;		 -> UART1_Receive_ISR(1), 
  4881 ;; Auto vars:     Size  Location     Type
  4882 ;;		None
  4883 ;; Return value:  Size  Location     Type
  4884 ;;                  1    wreg      void 
  4885 ;; Registers used:
  4886 ;;		wreg, status,2, status,0
  4887 ;; Tracked objects:
  4888 ;;		On entry : 0/0
  4889 ;;		On exit  : 0/0
  4890 ;;		Unchanged: 0/0
  4891 ;; Data sizes:     COMRAM   BANK0   BANK1   BANK2   BANK3   BANK4   BANK5   BANK6   BANK7
  4892 ;;      Params:         0       0       0       2       0       0       0       0       0
  4893 ;;      Locals:         0       0       0       0       0       0       0       0       0
  4894 ;;      Temps:          0       0       0       0       0       0       0       0       0
  4895 ;;      Totals:         0       0       0       2       0       0       0       0       0
  4896 ;;Total ram usage:        2 bytes
  4897 ;; Hardware stack levels used: 1
  4898 ;; Hardware stack levels required when called: 16
  4899 ;; This function calls:
  4900 ;;		Nothing
  4901 ;; This function is called by:
  4902 ;;		_UART1_Initialize
  4903 ;; This function uses a non-reentrant model
  4904 ;;
  4905                           
  4906                           	psect	text33
  4907  001BF4                     __ptext33:
  4908                           	callstack 0
  4909  001BF4                     _UART1_SetRxInterruptHandler:
  4910                           	callstack 12
  4911  001BF4                     
  4912                           ;mcc_generated_files/uart1.c: 300:     UART1_RxInterruptHandler = InterruptHandler;
  4913  001BF4  C2FA  F0F6         	movff	UART1_SetRxInterruptHandler@InterruptHandler,_UART1_RxInterruptHandler
  4914  001BF8  C2FB  F0F7         	movff	UART1_SetRxInterruptHandler@InterruptHandler+1,_UART1_RxInterruptHandler+1
  4915  001BFC  0012               	return		;funcret
  4916  001BFE                     __end_of_UART1_SetRxInterruptHandler:
  4917                           	callstack 0
  4918                           
  4919 ;; *************** function _UART1_SetOverrunErrorHandler *****************
  4920 ;; Defined at:
  4921 ;;		line 289 in file "mcc_generated_files/uart1.c"
  4922 ;; Parameters:    Size  Location     Type
  4923 ;;  interruptHan    2    0[BANK2 ] PTR FTN()void 
  4924 ;;		 -> UART1_DefaultOverrunErrorHandler(1), 
  4925 ;; Auto vars:     Size  Location     Type
  4926 ;;		None
  4927 ;; Return value:  Size  Location     Type
  4928 ;;                  1    wreg      void 
  4929 ;; Registers used:
  4930 ;;		wreg, status,2, status,0
  4931 ;; Tracked objects:
  4932 ;;		On entry : 0/0
  4933 ;;		On exit  : 0/0
  4934 ;;		Unchanged: 0/0
  4935 ;; Data sizes:     COMRAM   BANK0   BANK1   BANK2   BANK3   BANK4   BANK5   BANK6   BANK7
  4936 ;;      Params:         0       0       0       2       0       0       0       0       0
  4937 ;;      Locals:         0       0       0       0       0       0       0       0       0
  4938 ;;      Temps:          0       0       0       0       0       0       0       0       0
  4939 ;;      Totals:         0       0       0       2       0       0       0       0       0
  4940 ;;Total ram usage:        2 bytes
  4941 ;; Hardware stack levels used: 1
  4942 ;; Hardware stack levels required when called: 16
  4943 ;; This function calls:
  4944 ;;		Nothing
  4945 ;; This function is called by:
  4946 ;;		_UART1_Initialize
  4947 ;; This function uses a non-reentrant model
  4948 ;;
  4949                           
  4950                           	psect	text34
  4951  001BFE                     __ptext34:
  4952                           	callstack 0
  4953  001BFE                     _UART1_SetOverrunErrorHandler:
  4954                           	callstack 12
  4955  001BFE                     
  4956                           ;mcc_generated_files/uart1.c: 290:     UART1_OverrunErrorHandler = interruptHandler;
  4957  001BFE  C2FA  F1FE         	movff	UART1_SetOverrunErrorHandler@interruptHandler,_UART1_OverrunErrorHandler
  4958  001C02  C2FB  F1FF         	movff	UART1_SetOverrunErrorHandler@interruptHandler+1,_UART1_OverrunErrorHandler+1
  4959  001C06  0012               	return		;funcret
  4960  001C08                     __end_of_UART1_SetOverrunErrorHandler:
  4961                           	callstack 0
  4962                           
  4963 ;; *************** function _UART1_SetFramingErrorHandler *****************
  4964 ;; Defined at:
  4965 ;;		line 285 in file "mcc_generated_files/uart1.c"
  4966 ;; Parameters:    Size  Location     Type
  4967 ;;  interruptHan    2    0[BANK2 ] PTR FTN()void 
  4968 ;;		 -> UART1_DefaultFramingErrorHandler(1), 
  4969 ;; Auto vars:     Size  Location     Type
  4970 ;;		None
  4971 ;; Return value:  Size  Location     Type
  4972 ;;                  1    wreg      void 
  4973 ;; Registers used:
  4974 ;;		wreg, status,2, status,0
  4975 ;; Tracked objects:
  4976 ;;		On entry : 0/0
  4977 ;;		On exit  : 0/0
  4978 ;;		Unchanged: 0/0
  4979 ;; Data sizes:     COMRAM   BANK0   BANK1   BANK2   BANK3   BANK4   BANK5   BANK6   BANK7
  4980 ;;      Params:         0       0       0       2       0       0       0       0       0
  4981 ;;      Locals:         0       0       0       0       0       0       0       0       0
  4982 ;;      Temps:          0       0       0       0       0       0       0       0       0
  4983 ;;      Totals:         0       0       0       2       0       0       0       0       0
  4984 ;;Total ram usage:        2 bytes
  4985 ;; Hardware stack levels used: 1
  4986 ;; Hardware stack levels required when called: 16
  4987 ;; This function calls:
  4988 ;;		Nothing
  4989 ;; This function is called by:
  4990 ;;		_UART1_Initialize
  4991 ;; This function uses a non-reentrant model
  4992 ;;
  4993                           
  4994                           	psect	text35
  4995  001C08                     __ptext35:
  4996                           	callstack 0
  4997  001C08                     _UART1_SetFramingErrorHandler:
  4998                           	callstack 12
  4999  001C08                     
  5000                           ;mcc_generated_files/uart1.c: 286:     UART1_FramingErrorHandler = interruptHandler;
  5001  001C08  C2FA  F0F2         	movff	UART1_SetFramingErrorHandler@interruptHandler,_UART1_FramingErrorHandler
  5002  001C0C  C2FB  F0F3         	movff	UART1_SetFramingErrorHandler@interruptHandler+1,_UART1_FramingErrorHandler+1
  5003  001C10  0012               	return		;funcret
  5004  001C12                     __end_of_UART1_SetFramingErrorHandler:
  5005                           	callstack 0
  5006                           
  5007 ;; *************** function _UART1_SetErrorHandler *****************
  5008 ;; Defined at:
  5009 ;;		line 293 in file "mcc_generated_files/uart1.c"
  5010 ;; Parameters:    Size  Location     Type
  5011 ;;  interruptHan    2    0[BANK2 ] PTR FTN()void 
  5012 ;;		 -> UART1_DefaultErrorHandler(1), 
  5013 ;; Auto vars:     Size  Location     Type
  5014 ;;		None
  5015 ;; Return value:  Size  Location     Type
  5016 ;;                  1    wreg      void 
  5017 ;; Registers used:
  5018 ;;		wreg, status,2, status,0
  5019 ;; Tracked objects:
  5020 ;;		On entry : 0/0
  5021 ;;		On exit  : 0/0
  5022 ;;		Unchanged: 0/0
  5023 ;; Data sizes:     COMRAM   BANK0   BANK1   BANK2   BANK3   BANK4   BANK5   BANK6   BANK7
  5024 ;;      Params:         0       0       0       2       0       0       0       0       0
  5025 ;;      Locals:         0       0       0       0       0       0       0       0       0
  5026 ;;      Temps:          0       0       0       0       0       0       0       0       0
  5027 ;;      Totals:         0       0       0       2       0       0       0       0       0
  5028 ;;Total ram usage:        2 bytes
  5029 ;; Hardware stack levels used: 1
  5030 ;; Hardware stack levels required when called: 16
  5031 ;; This function calls:
  5032 ;;		Nothing
  5033 ;; This function is called by:
  5034 ;;		_UART1_Initialize
  5035 ;; This function uses a non-reentrant model
  5036 ;;
  5037                           
  5038                           	psect	text36
  5039  001C12                     __ptext36:
  5040                           	callstack 0
  5041  001C12                     _UART1_SetErrorHandler:
  5042                           	callstack 12
  5043  001C12                     
  5044                           ;mcc_generated_files/uart1.c: 294:     UART1_ErrorHandler = interruptHandler;
  5045  001C12  C2FA  F1FC         	movff	UART1_SetErrorHandler@interruptHandler,_UART1_ErrorHandler
  5046  001C16  C2FB  F1FD         	movff	UART1_SetErrorHandler@interruptHandler+1,_UART1_ErrorHandler+1
  5047  001C1A  0012               	return		;funcret
  5048  001C1C                     __end_of_UART1_SetErrorHandler:
  5049                           	callstack 0
  5050                           
  5051 ;; *************** function _TMR0_Initialize *****************
  5052 ;; Defined at:
  5053 ;;		line 71 in file "mcc_generated_files/tmr0.c"
  5054 ;; Parameters:    Size  Location     Type
  5055 ;;		None
  5056 ;; Auto vars:     Size  Location     Type
  5057 ;;		None
  5058 ;; Return value:  Size  Location     Type
  5059 ;;                  1    wreg      void 
  5060 ;; Registers used:
  5061 ;;		wreg, status,2, status,0, cstack
  5062 ;; Tracked objects:
  5063 ;;		On entry : 0/0
  5064 ;;		On exit  : 0/0
  5065 ;;		Unchanged: 0/0
  5066 ;; Data sizes:     COMRAM   BANK0   BANK1   BANK2   BANK3   BANK4   BANK5   BANK6   BANK7
  5067 ;;      Params:         0       0       0       0       0       0       0       0       0
  5068 ;;      Locals:         0       0       0       0       0       0       0       0       0
  5069 ;;      Temps:          0       0       0       2       0       0       0       0       0
  5070 ;;      Totals:         0       0       0       2       0       0       0       0       0
  5071 ;;Total ram usage:        2 bytes
  5072 ;; Hardware stack levels used: 1
  5073 ;; Hardware stack levels required when called: 17
  5074 ;; This function calls:
  5075 ;;		_TMR0_SetInterruptHandler
  5076 ;; This function is called by:
  5077 ;;		_SYSTEM_Initialize
  5078 ;; This function uses a non-reentrant model
  5079 ;;
  5080                           
  5081                           	psect	text37
  5082  00149A                     __ptext37:
  5083                           	callstack 0
  5084  00149A                     _TMR0_Initialize:
  5085                           	callstack 12
  5086  00149A                     
  5087                           ;mcc_generated_files/tmr0.c: 76:     T0CON1 = 0x40;
  5088  00149A  0E40               	movlw	64
  5089  00149C  6EB9               	movwf	185,c	;volatile
  5090                           
  5091                           ;mcc_generated_files/tmr0.c: 79:     TMR0H = 0x3C;
  5092  00149E  0E3C               	movlw	60
  5093  0014A0  6EB7               	movwf	183,c	;volatile
  5094                           
  5095                           ;mcc_generated_files/tmr0.c: 82:     TMR0L = 0xB0;
  5096  0014A2  0EB0               	movlw	176
  5097  0014A4  6EB6               	movwf	182,c	;volatile
  5098  0014A6                     
  5099                           ;mcc_generated_files/tmr0.c: 85:     timer0ReloadVal16bit = (TMR0H << 8) | TMR0L;
  5100  0014A6  50B6               	movf	182,w,c	;volatile
  5101  0014A8  006F FEDC  F2FC    	movff	16311,??_TMR0_Initialize	;volatile
  5102  0014AE  0102               	movlb	2	; () banked
  5103  0014B0  6BFD               	clrf	(??_TMR0_Initialize+1)& (0+255),b
  5104  0014B2  C2FC  F2FD         	movff	??_TMR0_Initialize,??_TMR0_Initialize+1
  5105  0014B6  6BFC               	clrf	??_TMR0_Initialize& (0+255),b
  5106  0014B8  11FC               	iorwf	??_TMR0_Initialize& (0+255),w,b
  5107  0014BA  6E49               	movwf	_timer0ReloadVal16bit^0,c	;volatile
  5108  0014BC  51FD               	movf	(??_TMR0_Initialize+1)& (0+255),w,b
  5109  0014BE  6E4A               	movwf	(_timer0ReloadVal16bit+1)^0,c	;volatile
  5110  0014C0                     
  5111                           ; BSR set to: 2
  5112                           ;mcc_generated_files/tmr0.c: 88:     PIR3bits.TMR0IF = 0;
  5113  0014C0  0139               	movlb	57	; () banked
  5114  0014C2  9FA3               	bcf	163,7,b	;volatile
  5115  0014C4                     
  5116                           ; BSR set to: 57
  5117                           ;mcc_generated_files/tmr0.c: 91:     PIE3bits.TMR0IE = 1;
  5118  0014C4  8F93               	bsf	147,7,b	;volatile
  5119  0014C6                     
  5120                           ; BSR set to: 57
  5121                           ;mcc_generated_files/tmr0.c: 94:     TMR0_SetInterruptHandler(TMR0_DefaultInterruptHandl
      +                          er);
  5122  0014C6  0E42               	movlw	low _TMR0_DefaultInterruptHandler
  5123  0014C8  0102               	movlb	2	; () banked
  5124  0014CA  6FFA               	movwf	TMR0_SetInterruptHandler@InterruptHandler& (0+255),b
  5125  0014CC  0E1D               	movlw	high _TMR0_DefaultInterruptHandler
  5126  0014CE  6FFB               	movwf	(TMR0_SetInterruptHandler@InterruptHandler+1)& (0+255),b
  5127  0014D0  EC0E  F00E         	call	_TMR0_SetInterruptHandler	;wreg free
  5128  0014D4                     
  5129                           ;mcc_generated_files/tmr0.c: 97:     T0CON0 = 0x90;
  5130  0014D4  0E90               	movlw	144
  5131  0014D6  6EB8               	movwf	184,c	;volatile
  5132  0014D8  0012               	return		;funcret
  5133  0014DA                     __end_of_TMR0_Initialize:
  5134                           	callstack 0
  5135                           
  5136 ;; *************** function _TMR0_SetInterruptHandler *****************
  5137 ;; Defined at:
  5138 ;;		line 167 in file "mcc_generated_files/tmr0.c"
  5139 ;; Parameters:    Size  Location     Type
  5140 ;;  InterruptHan    2    0[BANK2 ] PTR FTN()void 
  5141 ;;		 -> TMR0_DefaultInterruptHandler(1), 
  5142 ;; Auto vars:     Size  Location     Type
  5143 ;;		None
  5144 ;; Return value:  Size  Location     Type
  5145 ;;                  1    wreg      void 
  5146 ;; Registers used:
  5147 ;;		wreg, status,2, status,0
  5148 ;; Tracked objects:
  5149 ;;		On entry : 0/0
  5150 ;;		On exit  : 0/0
  5151 ;;		Unchanged: 0/0
  5152 ;; Data sizes:     COMRAM   BANK0   BANK1   BANK2   BANK3   BANK4   BANK5   BANK6   BANK7
  5153 ;;      Params:         0       0       0       2       0       0       0       0       0
  5154 ;;      Locals:         0       0       0       0       0       0       0       0       0
  5155 ;;      Temps:          0       0       0       0       0       0       0       0       0
  5156 ;;      Totals:         0       0       0       2       0       0       0       0       0
  5157 ;;Total ram usage:        2 bytes
  5158 ;; Hardware stack levels used: 1
  5159 ;; Hardware stack levels required when called: 16
  5160 ;; This function calls:
  5161 ;;		Nothing
  5162 ;; This function is called by:
  5163 ;;		_TMR0_Initialize
  5164 ;; This function uses a non-reentrant model
  5165 ;;
  5166                           
  5167                           	psect	text38
  5168  001C1C                     __ptext38:
  5169                           	callstack 0
  5170  001C1C                     _TMR0_SetInterruptHandler:
  5171                           	callstack 12
  5172  001C1C                     
  5173                           ;mcc_generated_files/tmr0.c: 168:     TMR0_InterruptHandler = InterruptHandler;
  5174  001C1C  C2FA  F0F4         	movff	TMR0_SetInterruptHandler@InterruptHandler,_TMR0_InterruptHandler
  5175  001C20  C2FB  F0F5         	movff	TMR0_SetInterruptHandler@InterruptHandler+1,_TMR0_InterruptHandler+1
  5176  001C24  0012               	return		;funcret
  5177  001C26                     __end_of_TMR0_SetInterruptHandler:
  5178                           	callstack 0
  5179                           
  5180 ;; *************** function _PMD_Initialize *****************
  5181 ;; Defined at:
  5182 ;;		line 76 in file "mcc_generated_files/mcc.c"
  5183 ;; Parameters:    Size  Location     Type
  5184 ;;		None
  5185 ;; Auto vars:     Size  Location     Type
  5186 ;;		None
  5187 ;; Return value:  Size  Location     Type
  5188 ;;                  1    wreg      void 
  5189 ;; Registers used:
  5190 ;;		wreg, status,2
  5191 ;; Tracked objects:
  5192 ;;		On entry : 0/0
  5193 ;;		On exit  : 0/0
  5194 ;;		Unchanged: 0/0
  5195 ;; Data sizes:     COMRAM   BANK0   BANK1   BANK2   BANK3   BANK4   BANK5   BANK6   BANK7
  5196 ;;      Params:         0       0       0       0       0       0       0       0       0
  5197 ;;      Locals:         0       0       0       0       0       0       0       0       0
  5198 ;;      Temps:          0       0       0       0       0       0       0       0       0
  5199 ;;      Totals:         0       0       0       0       0       0       0       0       0
  5200 ;;Total ram usage:        0 bytes
  5201 ;; Hardware stack levels used: 1
  5202 ;; Hardware stack levels required when called: 16
  5203 ;; This function calls:
  5204 ;;		Nothing
  5205 ;; This function is called by:
  5206 ;;		_SYSTEM_Initialize
  5207 ;; This function uses a non-reentrant model
  5208 ;;
  5209                           
  5210                           	psect	text39
  5211  0017EC                     __ptext39:
  5212                           	callstack 0
  5213  0017EC                     _PMD_Initialize:
  5214                           	callstack 13
  5215  0017EC                     
  5216                           ;mcc_generated_files/mcc.c: 79:     PMD0 = 0x00;
  5217  0017EC  0E00               	movlw	0
  5218  0017EE  0139               	movlb	57	; () banked
  5219  0017F0  6FC0               	movwf	192,b	;volatile
  5220                           
  5221                           ;mcc_generated_files/mcc.c: 81:     PMD1 = 0x00;
  5222  0017F2  0E00               	movlw	0
  5223  0017F4  6FC1               	movwf	193,b	;volatile
  5224                           
  5225                           ;mcc_generated_files/mcc.c: 83:     PMD2 = 0x00;
  5226  0017F6  0E00               	movlw	0
  5227  0017F8  6FC2               	movwf	194,b	;volatile
  5228                           
  5229                           ;mcc_generated_files/mcc.c: 85:     PMD3 = 0x00;
  5230  0017FA  0E00               	movlw	0
  5231  0017FC  6FC3               	movwf	195,b	;volatile
  5232                           
  5233                           ;mcc_generated_files/mcc.c: 87:     PMD4 = 0x00;
  5234  0017FE  0E00               	movlw	0
  5235  001800  6FC4               	movwf	196,b	;volatile
  5236                           
  5237                           ;mcc_generated_files/mcc.c: 89:     PMD5 = 0x00;
  5238  001802  0E00               	movlw	0
  5239  001804  6FC5               	movwf	197,b	;volatile
  5240                           
  5241                           ;mcc_generated_files/mcc.c: 91:     PMD6 = 0x00;
  5242  001806  0E00               	movlw	0
  5243  001808  6FC6               	movwf	198,b	;volatile
  5244                           
  5245                           ;mcc_generated_files/mcc.c: 93:     PMD7 = 0x00;
  5246  00180A  0E00               	movlw	0
  5247  00180C  6FC7               	movwf	199,b	;volatile
  5248  00180E                     
  5249                           ; BSR set to: 57
  5250  00180E  0012               	return		;funcret
  5251  001810                     __end_of_PMD_Initialize:
  5252                           	callstack 0
  5253                           
  5254 ;; *************** function _PIN_MANAGER_Initialize *****************
  5255 ;; Defined at:
  5256 ;;		line 51 in file "mcc_generated_files/pin_manager.c"
  5257 ;; Parameters:    Size  Location     Type
  5258 ;;		None
  5259 ;; Auto vars:     Size  Location     Type
  5260 ;;		None
  5261 ;; Return value:  Size  Location     Type
  5262 ;;                  1    wreg      void 
  5263 ;; Registers used:
  5264 ;;		wreg, status,2
  5265 ;; Tracked objects:
  5266 ;;		On entry : 0/0
  5267 ;;		On exit  : 0/0
  5268 ;;		Unchanged: 0/0
  5269 ;; Data sizes:     COMRAM   BANK0   BANK1   BANK2   BANK3   BANK4   BANK5   BANK6   BANK7
  5270 ;;      Params:         0       0       0       0       0       0       0       0       0
  5271 ;;      Locals:         0       0       0       0       0       0       0       0       0
  5272 ;;      Temps:          0       0       0       0       0       0       0       0       0
  5273 ;;      Totals:         0       0       0       0       0       0       0       0       0
  5274 ;;Total ram usage:        0 bytes
  5275 ;; Hardware stack levels used: 1
  5276 ;; Hardware stack levels required when called: 16
  5277 ;; This function calls:
  5278 ;;		Nothing
  5279 ;; This function is called by:
  5280 ;;		_SYSTEM_Initialize
  5281 ;; This function uses a non-reentrant model
  5282 ;;
  5283                           
  5284                           	psect	text40
  5285  0007C4                     __ptext40:
  5286                           	callstack 0
  5287  0007C4                     _PIN_MANAGER_Initialize:
  5288                           	callstack 13
  5289  0007C4                     
  5290                           ;mcc_generated_files/pin_manager.c: 55:     LATE = 0x00;
  5291  0007C4  0E00               	movlw	0
  5292  0007C6  6EBE               	movwf	190,c	;volatile
  5293                           
  5294                           ;mcc_generated_files/pin_manager.c: 56:     LATD = 0x00;
  5295  0007C8  0E00               	movlw	0
  5296  0007CA  6EBD               	movwf	189,c	;volatile
  5297                           
  5298                           ;mcc_generated_files/pin_manager.c: 57:     LATA = 0x00;
  5299  0007CC  0E00               	movlw	0
  5300  0007CE  6EBA               	movwf	186,c	;volatile
  5301                           
  5302                           ;mcc_generated_files/pin_manager.c: 58:     LATB = 0x00;
  5303  0007D0  0E00               	movlw	0
  5304  0007D2  6EBB               	movwf	187,c	;volatile
  5305                           
  5306                           ;mcc_generated_files/pin_manager.c: 59:     LATC = 0x00;
  5307  0007D4  0E00               	movlw	0
  5308  0007D6  6EBC               	movwf	188,c	;volatile
  5309                           
  5310                           ;mcc_generated_files/pin_manager.c: 64:     TRISE = 0x00;
  5311  0007D8  0E00               	movlw	0
  5312  0007DA  6EC6               	movwf	198,c	;volatile
  5313                           
  5314                           ;mcc_generated_files/pin_manager.c: 65:     TRISA = 0xDF;
  5315  0007DC  0EDF               	movlw	223
  5316  0007DE  6EC2               	movwf	194,c	;volatile
  5317                           
  5318                           ;mcc_generated_files/pin_manager.c: 66:     TRISB = 0x81;
  5319  0007E0  0E81               	movlw	129
  5320  0007E2  6EC3               	movwf	195,c	;volatile
  5321                           
  5322                           ;mcc_generated_files/pin_manager.c: 67:     TRISC = 0xBF;
  5323  0007E4  0EBF               	movlw	191
  5324  0007E6  6EC4               	movwf	196,c	;volatile
  5325  0007E8                     
  5326                           ;mcc_generated_files/pin_manager.c: 69:     TRISD4 = 0;
  5327  0007E8  98C5               	bcf	16325,4,c	;volatile
  5328                           
  5329                           ;mcc_generated_files/pin_manager.c: 73:     ANSELD = 0xEF;
  5330  0007EA  0EEF               	movlw	239
  5331  0007EC  013A               	movlb	58	; () banked
  5332  0007EE  6F70               	movwf	112,b	;volatile
  5333                           
  5334                           ;mcc_generated_files/pin_manager.c: 74:     ANSELC = 0x5F;
  5335  0007F0  0E5F               	movlw	95
  5336  0007F2  6F60               	movwf	96,b	;volatile
  5337                           
  5338                           ;mcc_generated_files/pin_manager.c: 75:     ANSELB = 0x79;
  5339  0007F4  0E79               	movlw	121
  5340  0007F6  6F50               	movwf	80,b	;volatile
  5341                           
  5342                           ;mcc_generated_files/pin_manager.c: 76:     ANSELE = 0x07;
  5343  0007F8  0E07               	movlw	7
  5344  0007FA  6F80               	movwf	128,b	;volatile
  5345                           
  5346                           ;mcc_generated_files/pin_manager.c: 77:     ANSELA = 0xFB;
  5347  0007FC  0EFB               	movlw	251
  5348  0007FE  6F40               	movwf	64,b	;volatile
  5349                           
  5350                           ;mcc_generated_files/pin_manager.c: 82:     WPUD = 0x00;
  5351  000800  0E00               	movlw	0
  5352  000802  6F71               	movwf	113,b	;volatile
  5353                           
  5354                           ;mcc_generated_files/pin_manager.c: 83:     WPUE = 0x00;
  5355  000804  0E00               	movlw	0
  5356  000806  6F81               	movwf	129,b	;volatile
  5357                           
  5358                           ;mcc_generated_files/pin_manager.c: 84:     WPUB = 0x00;
  5359  000808  0E00               	movlw	0
  5360  00080A  6F51               	movwf	81,b	;volatile
  5361                           
  5362                           ;mcc_generated_files/pin_manager.c: 85:     WPUA = 0x00;
  5363  00080C  0E00               	movlw	0
  5364  00080E  6F41               	movwf	65,b	;volatile
  5365                           
  5366                           ;mcc_generated_files/pin_manager.c: 86:     WPUC = 0x00;
  5367  000810  0E00               	movlw	0
  5368  000812  6F61               	movwf	97,b	;volatile
  5369                           
  5370                           ;mcc_generated_files/pin_manager.c: 91:     RB1I2C = 0x00;
  5371  000814  0E00               	movlw	0
  5372  000816  6F5A               	movwf	90,b	;volatile
  5373                           
  5374                           ;mcc_generated_files/pin_manager.c: 92:     RB2I2C = 0x00;
  5375  000818  0E00               	movlw	0
  5376  00081A  6F5B               	movwf	91,b	;volatile
  5377                           
  5378                           ;mcc_generated_files/pin_manager.c: 93:     RC3I2C = 0x00;
  5379  00081C  0E00               	movlw	0
  5380  00081E  6F6A               	movwf	106,b	;volatile
  5381                           
  5382                           ;mcc_generated_files/pin_manager.c: 94:     RC4I2C = 0x00;
  5383  000820  0E00               	movlw	0
  5384  000822  6F6B               	movwf	107,b	;volatile
  5385                           
  5386                           ;mcc_generated_files/pin_manager.c: 95:     RD0I2C = 0x00;
  5387  000824  0E00               	movlw	0
  5388  000826  6F7A               	movwf	122,b	;volatile
  5389                           
  5390                           ;mcc_generated_files/pin_manager.c: 96:     RD1I2C = 0x00;
  5391  000828  0E00               	movlw	0
  5392  00082A  6F7B               	movwf	123,b	;volatile
  5393                           
  5394                           ;mcc_generated_files/pin_manager.c: 101:     ODCONE = 0x00;
  5395  00082C  0E00               	movlw	0
  5396  00082E  6F82               	movwf	130,b	;volatile
  5397                           
  5398                           ;mcc_generated_files/pin_manager.c: 102:     ODCONA = 0x00;
  5399  000830  0E00               	movlw	0
  5400  000832  6F42               	movwf	66,b	;volatile
  5401                           
  5402                           ;mcc_generated_files/pin_manager.c: 103:     ODCONB = 0x06;
  5403  000834  0E06               	movlw	6
  5404  000836  6F52               	movwf	82,b	;volatile
  5405                           
  5406                           ;mcc_generated_files/pin_manager.c: 104:     ODCONC = 0x18;
  5407  000838  0E18               	movlw	24
  5408  00083A  6F62               	movwf	98,b	;volatile
  5409                           
  5410                           ;mcc_generated_files/pin_manager.c: 105:     ODCOND = 0x00;
  5411  00083C  0E00               	movlw	0
  5412  00083E  6F72               	movwf	114,b	;volatile
  5413  000840                     
  5414                           ; BSR set to: 58
  5415                           ;mcc_generated_files/pin_manager.c: 110:     SLRCONA = 0xFF;
  5416  000840  6943               	setf	67,b	;volatile
  5417  000842                     
  5418                           ; BSR set to: 58
  5419                           ;mcc_generated_files/pin_manager.c: 111:     SLRCONB = 0xFF;
  5420  000842  6953               	setf	83,b	;volatile
  5421  000844                     
  5422                           ; BSR set to: 58
  5423                           ;mcc_generated_files/pin_manager.c: 112:     SLRCONC = 0xFF;
  5424  000844  6963               	setf	99,b	;volatile
  5425  000846                     
  5426                           ; BSR set to: 58
  5427                           ;mcc_generated_files/pin_manager.c: 113:     SLRCOND = 0xFF;
  5428  000846  6973               	setf	115,b	;volatile
  5429                           
  5430                           ;mcc_generated_files/pin_manager.c: 114:     SLRCONE = 0x07;
  5431  000848  0E07               	movlw	7
  5432  00084A  6F83               	movwf	131,b	;volatile
  5433  00084C                     
  5434                           ; BSR set to: 58
  5435                           ;mcc_generated_files/pin_manager.c: 119:     INLVLA = 0xFF;
  5436  00084C  6944               	setf	68,b	;volatile
  5437  00084E                     
  5438                           ; BSR set to: 58
  5439                           ;mcc_generated_files/pin_manager.c: 120:     INLVLB = 0xFF;
  5440  00084E  6954               	setf	84,b	;volatile
  5441  000850                     
  5442                           ; BSR set to: 58
  5443                           ;mcc_generated_files/pin_manager.c: 121:     INLVLC = 0xFF;
  5444  000850  6964               	setf	100,b	;volatile
  5445  000852                     
  5446                           ; BSR set to: 58
  5447                           ;mcc_generated_files/pin_manager.c: 122:     INLVLD = 0xFF;
  5448  000852  6974               	setf	116,b	;volatile
  5449                           
  5450                           ;mcc_generated_files/pin_manager.c: 123:     INLVLE = 0x0F;
  5451  000854  0E0F               	movlw	15
  5452  000856  6F84               	movwf	132,b	;volatile
  5453                           
  5454                           ;mcc_generated_files/pin_manager.c: 126:     U2RXPPS = 0x0F;
  5455  000858  0E0F               	movlw	15
  5456  00085A  6FE8               	movwf	232,b	;volatile
  5457                           
  5458                           ;mcc_generated_files/pin_manager.c: 127:     RB6PPS = 0x16;
  5459  00085C  0E16               	movlw	22
  5460  00085E  6F0E               	movwf	14,b	;volatile
  5461                           
  5462                           ;mcc_generated_files/pin_manager.c: 128:     RC6PPS = 0x13;
  5463  000860  0E13               	movlw	19
  5464  000862  6F16               	movwf	22,b	;volatile
  5465                           
  5466                           ;mcc_generated_files/pin_manager.c: 129:     U1RXPPS = 0x17;
  5467  000864  0E17               	movlw	23
  5468  000866  6FE5               	movwf	229,b	;volatile
  5469                           
  5470                           ;mcc_generated_files/pin_manager.c: 130:     I2C2SCLPPS = 0x09;
  5471  000868  0E09               	movlw	9
  5472  00086A  6FE3               	movwf	227,b	;volatile
  5473                           
  5474                           ;mcc_generated_files/pin_manager.c: 131:     RB1PPS = 0x23;
  5475  00086C  0E23               	movlw	35
  5476  00086E  6F09               	movwf	9,b	;volatile
  5477                           
  5478                           ;mcc_generated_files/pin_manager.c: 132:     RB2PPS = 0x24;
  5479  000870  0E24               	movlw	36
  5480  000872  6F0A               	movwf	10,b	;volatile
  5481                           
  5482                           ;mcc_generated_files/pin_manager.c: 133:     I2C2SDAPPS = 0x0A;
  5483  000874  0E0A               	movlw	10
  5484  000876  6FE4               	movwf	228,b	;volatile
  5485  000878                     
  5486                           ; BSR set to: 58
  5487  000878  0012               	return		;funcret
  5488  00087A                     __end_of_PIN_MANAGER_Initialize:
  5489                           	callstack 0
  5490                           
  5491 ;; *************** function _OSCILLATOR_Initialize *****************
  5492 ;; Defined at:
  5493 ;;		line 62 in file "mcc_generated_files/mcc.c"
  5494 ;; Parameters:    Size  Location     Type
  5495 ;;		None
  5496 ;; Auto vars:     Size  Location     Type
  5497 ;;		None
  5498 ;; Return value:  Size  Location     Type
  5499 ;;                  1    wreg      void 
  5500 ;; Registers used:
  5501 ;;		wreg, status,2
  5502 ;; Tracked objects:
  5503 ;;		On entry : 0/0
  5504 ;;		On exit  : 0/0
  5505 ;;		Unchanged: 0/0
  5506 ;; Data sizes:     COMRAM   BANK0   BANK1   BANK2   BANK3   BANK4   BANK5   BANK6   BANK7
  5507 ;;      Params:         0       0       0       0       0       0       0       0       0
  5508 ;;      Locals:         0       0       0       0       0       0       0       0       0
  5509 ;;      Temps:          0       0       0       0       0       0       0       0       0
  5510 ;;      Totals:         0       0       0       0       0       0       0       0       0
  5511 ;;Total ram usage:        0 bytes
  5512 ;; Hardware stack levels used: 1
  5513 ;; Hardware stack levels required when called: 16
  5514 ;; This function calls:
  5515 ;;		Nothing
  5516 ;; This function is called by:
  5517 ;;		_SYSTEM_Initialize
  5518 ;; This function uses a non-reentrant model
  5519 ;;
  5520                           
  5521                           	psect	text41
  5522  001936                     __ptext41:
  5523                           	callstack 0
  5524  001936                     _OSCILLATOR_Initialize:
  5525                           	callstack 13
  5526  001936                     
  5527                           ;mcc_generated_files/mcc.c: 65:     OSCCON1 = 0x70;
  5528  001936  0E70               	movlw	112
  5529  001938  0139               	movlb	57	; () banked
  5530  00193A  6FD9               	movwf	217,b	;volatile
  5531                           
  5532                           ;mcc_generated_files/mcc.c: 67:     OSCCON3 = 0x00;
  5533  00193C  0E00               	movlw	0
  5534  00193E  6FDB               	movwf	219,b	;volatile
  5535                           
  5536                           ;mcc_generated_files/mcc.c: 69:     OSCEN = 0x00;
  5537  001940  0E00               	movlw	0
  5538  001942  6FDD               	movwf	221,b	;volatile
  5539                           
  5540                           ;mcc_generated_files/mcc.c: 71:     OSCFRQ = 0x02;
  5541  001944  0E02               	movlw	2
  5542  001946  6FDF               	movwf	223,b	;volatile
  5543                           
  5544                           ;mcc_generated_files/mcc.c: 73:     OSCTUNE = 0x00;
  5545  001948  0E00               	movlw	0
  5546  00194A  6FDE               	movwf	222,b	;volatile
  5547  00194C                     
  5548                           ; BSR set to: 57
  5549  00194C  0012               	return		;funcret
  5550  00194E                     __end_of_OSCILLATOR_Initialize:
  5551                           	callstack 0
  5552                           
  5553 ;; *************** function _INTERRUPT_Initialize *****************
  5554 ;; Defined at:
  5555 ;;		line 53 in file "mcc_generated_files/interrupt_manager.c"
  5556 ;; Parameters:    Size  Location     Type
  5557 ;;		None
  5558 ;; Auto vars:     Size  Location     Type
  5559 ;;		None
  5560 ;; Return value:  Size  Location     Type
  5561 ;;                  1    wreg      void 
  5562 ;; Registers used:
  5563 ;;		None
  5564 ;; Tracked objects:
  5565 ;;		On entry : 0/0
  5566 ;;		On exit  : 0/0
  5567 ;;		Unchanged: 0/0
  5568 ;; Data sizes:     COMRAM   BANK0   BANK1   BANK2   BANK3   BANK4   BANK5   BANK6   BANK7
  5569 ;;      Params:         0       0       0       0       0       0       0       0       0
  5570 ;;      Locals:         0       0       0       0       0       0       0       0       0
  5571 ;;      Temps:          0       0       0       0       0       0       0       0       0
  5572 ;;      Totals:         0       0       0       0       0       0       0       0       0
  5573 ;;Total ram usage:        0 bytes
  5574 ;; Hardware stack levels used: 1
  5575 ;; Hardware stack levels required when called: 16
  5576 ;; This function calls:
  5577 ;;		Nothing
  5578 ;; This function is called by:
  5579 ;;		_SYSTEM_Initialize
  5580 ;; This function uses a non-reentrant model
  5581 ;;
  5582                           
  5583                           	psect	text42
  5584  001ADE                     __ptext42:
  5585                           	callstack 0
  5586  001ADE                     _INTERRUPT_Initialize:
  5587                           	callstack 13
  5588  001ADE                     
  5589                           ;mcc_generated_files/interrupt_manager.c: 55:     INTCON0bits.IPEN = 1;
  5590  001ADE  8AD2               	bsf	210,5,c	;volatile
  5591                           
  5592                           ;mcc_generated_files/interrupt_manager.c: 59:     IPR3bits.U1RXIP = 1;
  5593  001AE0  0139               	movlb	57	; () banked
  5594  001AE2  8783               	bsf	131,3,b	;volatile
  5595                           
  5596                           ;mcc_generated_files/interrupt_manager.c: 62:     IPR6bits.U2RXIP = 0;
  5597  001AE4  9586               	bcf	134,2,b	;volatile
  5598                           
  5599                           ;mcc_generated_files/interrupt_manager.c: 65:     IPR3bits.TMR0IP = 0;
  5600  001AE6  9F83               	bcf	131,7,b	;volatile
  5601                           
  5602                           ;mcc_generated_files/interrupt_manager.c: 68:     IPR3bits.I2C1EIP = 1;
  5603  001AE8  8583               	bsf	131,2,b	;volatile
  5604                           
  5605                           ;mcc_generated_files/interrupt_manager.c: 71:     IPR2bits.I2C1RXIP = 1;
  5606  001AEA  8F82               	bsf	130,7,b	;volatile
  5607                           
  5608                           ;mcc_generated_files/interrupt_manager.c: 74:     IPR3bits.I2C1IP = 1;
  5609  001AEC  8383               	bsf	131,1,b	;volatile
  5610                           
  5611                           ;mcc_generated_files/interrupt_manager.c: 77:     IPR3bits.I2C1TXIP = 1;
  5612  001AEE  8183               	bsf	131,0,b	;volatile
  5613  001AF0                     
  5614                           ; BSR set to: 57
  5615  001AF0  0012               	return		;funcret
  5616  001AF2                     __end_of_INTERRUPT_Initialize:
  5617                           	callstack 0
  5618                           
  5619 ;; *************** function _I2C2_Initialize *****************
  5620 ;; Defined at:
  5621 ;;		line 186 in file "../modbus/i2c2_master.c"
  5622 ;; Parameters:    Size  Location     Type
  5623 ;;		None
  5624 ;; Auto vars:     Size  Location     Type
  5625 ;;		None
  5626 ;; Return value:  Size  Location     Type
  5627 ;;                  1    wreg      void 
  5628 ;; Registers used:
  5629 ;;		wreg, status,2
  5630 ;; Tracked objects:
  5631 ;;		On entry : 0/0
  5632 ;;		On exit  : 0/0
  5633 ;;		Unchanged: 0/0
  5634 ;; Data sizes:     COMRAM   BANK0   BANK1   BANK2   BANK3   BANK4   BANK5   BANK6   BANK7
  5635 ;;      Params:         0       0       0       0       0       0       0       0       0
  5636 ;;      Locals:         0       0       0       0       0       0       0       0       0
  5637 ;;      Temps:          0       0       0       0       0       0       0       0       0
  5638 ;;      Totals:         0       0       0       0       0       0       0       0       0
  5639 ;;Total ram usage:        0 bytes
  5640 ;; Hardware stack levels used: 1
  5641 ;; Hardware stack levels required when called: 16
  5642 ;; This function calls:
  5643 ;;		Nothing
  5644 ;; This function is called by:
  5645 ;;		_SYSTEM_Initialize
  5646 ;; This function uses a non-reentrant model
  5647 ;;
  5648                           
  5649                           	psect	text43
  5650  001832                     __ptext43:
  5651                           	callstack 0
  5652  001832                     _I2C2_Initialize:
  5653                           	callstack 13
  5654  001832                     
  5655                           ;../modbus/i2c2_master.c: 188:     I2C2CON0 = 0x04;
  5656  001832  0E04               	movlw	4
  5657  001834  013D               	movlb	61	; () banked
  5658  001836  6F5D               	movwf	93,b	;volatile
  5659                           
  5660                           ;../modbus/i2c2_master.c: 190:     I2C2CON1 = 0x80;
  5661  001838  0E80               	movlw	128
  5662  00183A  6F5E               	movwf	94,b	;volatile
  5663                           
  5664                           ;../modbus/i2c2_master.c: 192:     I2C2CON2 = 0x21;
  5665  00183C  0E21               	movlw	33
  5666  00183E  6F5F               	movwf	95,b	;volatile
  5667                           
  5668                           ;../modbus/i2c2_master.c: 194:     I2C2CLK = 0x03;
  5669  001840  0E03               	movlw	3
  5670  001842  6F65               	movwf	101,b	;volatile
  5671                           
  5672                           ;../modbus/i2c2_master.c: 196:     I2C2PIR = 0x00;
  5673  001844  0E00               	movlw	0
  5674  001846  6F63               	movwf	99,b	;volatile
  5675                           
  5676                           ;../modbus/i2c2_master.c: 198:     I2C2PIE = 0x00;
  5677  001848  0E00               	movlw	0
  5678  00184A  6F64               	movwf	100,b	;volatile
  5679                           
  5680                           ;../modbus/i2c2_master.c: 200:     I2C2ERR = 0x00;
  5681  00184C  0E00               	movlw	0
  5682  00184E  6F60               	movwf	96,b	;volatile
  5683  001850                     
  5684                           ; BSR set to: 61
  5685                           ;../modbus/i2c2_master.c: 202:     I2C2CNT = 0xFF;
  5686  001850  6956               	setf	86,b	;volatile
  5687  001852                     
  5688                           ; BSR set to: 61
  5689  001852  0012               	return		;funcret
  5690  001854                     __end_of_I2C2_Initialize:
  5691                           	callstack 0
  5692                           
  5693 ;; *************** function _INTERRUPT_InterruptManagerLow *****************
  5694 ;; Defined at:
  5695 ;;		line 96 in file "mcc_generated_files/interrupt_manager.c"
  5696 ;; Parameters:    Size  Location     Type
  5697 ;;		None
  5698 ;; Auto vars:     Size  Location     Type
  5699 ;;		None
  5700 ;; Return value:  Size  Location     Type
  5701 ;;                  1    wreg      void 
  5702 ;; Registers used:
  5703 ;;		wreg, fsr2l, fsr2h, status,2, status,0, pclath, tosl, tblptrl, tblptrh, tblptru, prodl, prodh, cstack
  5704 ;; Tracked objects:
  5705 ;;		On entry : 0/0
  5706 ;;		On exit  : 0/0
  5707 ;;		Unchanged: 0/0
  5708 ;; Data sizes:     COMRAM   BANK0   BANK1   BANK2   BANK3   BANK4   BANK5   BANK6   BANK7
  5709 ;;      Params:         0       0       0       0       0       0       0       0       0
  5710 ;;      Locals:         0       0       0       0       0       0       0       0       0
  5711 ;;      Temps:          5       0       0       0       0       0       0       0       0
  5712 ;;      Totals:         5       0       0       0       0       0       0       0       0
  5713 ;;Total ram usage:        5 bytes
  5714 ;; Hardware stack levels used: 1
  5715 ;; Hardware stack levels required when called: 15
  5716 ;; This function calls:
  5717 ;;		Absolute function
  5718 ;;		_I2C2_MasterIsr
  5719 ;;		_TMR0_ISR
  5720 ;;		_UART2_Receive_ISR
  5721 ;; This function is called by:
  5722 ;;		Interrupt level 1
  5723 ;; This function uses a non-reentrant model
  5724 ;;
  5725                           
  5726                           	psect	text44
  5727  000276                     __ptext44:
  5728                           	callstack 0
  5729  000276                     _INTERRUPT_InterruptManagerLow:
  5730                           	callstack 10
  5731                           
  5732                           ; BSR set to: 61
  5733                           ;incstack = 0
  5734  000276  006F FF60  F044    	movff	status,??_INTERRUPT_InterruptManagerLow
  5735  00027C  006F FFD8  F045    	movff	tblptrl,??_INTERRUPT_InterruptManagerLow+1
  5736  000282  006F FFDC  F046    	movff	tblptrh,??_INTERRUPT_InterruptManagerLow+2
  5737  000288  006F FFE0  F047    	movff	tblptru,??_INTERRUPT_InterruptManagerLow+3
  5738  00028E  006F FFD4  F048    	movff	tablat,??_INTERRUPT_InterruptManagerLow+4
  5739  000294                     
  5740                           ;mcc_generated_files/interrupt_manager.c: 99:     if (PIE6bits.U2RXIE == 1 && PIR6bits.U
      +                          2RXIF == 1) {
  5741  000294  0139               	movlb	57	; () banked
  5742  000296  A596               	btfss	150,2,b	;volatile
  5743  000298  EF50  F001         	goto	i1u304_21
  5744  00029C  EF52  F001         	goto	i1u304_20
  5745  0002A0                     i1u304_21:
  5746  0002A0  EF69  F001         	goto	i1l285
  5747  0002A4                     i1u304_20:
  5748  0002A4                     
  5749                           ; BSR set to: 57
  5750  0002A4  A5A6               	btfss	166,2,b	;volatile
  5751  0002A6  EF57  F001         	goto	i1u305_21
  5752  0002AA  EF59  F001         	goto	i1u305_20
  5753  0002AE                     i1u305_21:
  5754  0002AE  EF69  F001         	goto	i1l285
  5755  0002B2                     i1u305_20:
  5756  0002B2                     
  5757                           ; BSR set to: 57
  5758                           ;mcc_generated_files/interrupt_manager.c: 100:         UART2_RxInterruptHandler();
  5759  0002B2  D802               	call	i1u306_28
  5760  0002B4  EF67  F001         	goto	i1u306_29
  5761  0002B8                     i1u306_28:
  5762  0002B8  0005               	push	
  5763  0002BA  0100               	movlb	0	; () banked
  5764  0002BC  6EFA               	movwf	pclath,c
  5765  0002BE  51F8               	movf	_UART2_RxInterruptHandler& (0+255),w,b
  5766  0002C0  6EFD               	movwf	tosl,c
  5767  0002C2  51F9               	movf	(_UART2_RxInterruptHandler+1)& (0+255),w,b
  5768  0002C4  6EFE               	movwf	tosh,c
  5769  0002C6  50F8               	movf	tblptru,w,c
  5770  0002C8  6EFF               	movwf	tosu,c
  5771  0002CA  50FA               	movf	pclath,w,c
  5772  0002CC  0012               	return		;indir
  5773  0002CE                     i1u306_29:
  5774                           
  5775                           ;mcc_generated_files/interrupt_manager.c: 101:     } else if (PIE3bits.TMR0IE == 1 && PI
      +                          R3bits.TMR0IF == 1) {
  5776  0002CE  EF79  F001         	goto	i1l6397
  5777  0002D2                     i1l285:
  5778                           
  5779                           ; BSR set to: 57
  5780  0002D2  AF93               	btfss	147,7,b	;volatile
  5781  0002D4  EF6E  F001         	goto	i1u307_21
  5782  0002D8  EF70  F001         	goto	i1u307_20
  5783  0002DC                     i1u307_21:
  5784  0002DC  EF79  F001         	goto	i1l6397
  5785  0002E0                     i1u307_20:
  5786  0002E0                     
  5787                           ; BSR set to: 57
  5788  0002E0  AFA3               	btfss	163,7,b	;volatile
  5789  0002E2  EF75  F001         	goto	i1u308_21
  5790  0002E6  EF77  F001         	goto	i1u308_20
  5791  0002EA                     i1u308_21:
  5792  0002EA  EF79  F001         	goto	i1l6397
  5793  0002EE                     i1u308_20:
  5794  0002EE                     
  5795                           ; BSR set to: 57
  5796                           ;mcc_generated_files/interrupt_manager.c: 102:         TMR0_ISR();
  5797  0002EE  EC79  F00D         	call	_TMR0_ISR	;wreg free
  5798  0002F2                     i1l6397:
  5799                           
  5800                           ;mcc_generated_files/interrupt_manager.c: 104:     if (PIE6bits.I2C2IE == 1 && PIR6bits.
      +                          I2C2IF == 1) {
  5801  0002F2  0139               	movlb	57	; () banked
  5802  0002F4  A196               	btfss	150,0,b	;volatile
  5803  0002F6  EF7F  F001         	goto	i1u309_21
  5804  0002FA  EF81  F001         	goto	i1u309_20
  5805  0002FE                     i1u309_21:
  5806  0002FE  EF97  F001         	goto	i1l288
  5807  000302                     i1u309_20:
  5808  000302                     
  5809                           ; BSR set to: 57
  5810  000302  A1A6               	btfss	166,0,b	;volatile
  5811  000304  EF86  F001         	goto	i1u310_21
  5812  000308  EF88  F001         	goto	i1u310_20
  5813  00030C                     i1u310_21:
  5814  00030C  EF97  F001         	goto	i1l288
  5815  000310                     i1u310_20:
  5816  000310                     i1l6401:
  5817                           
  5818                           ; BSR set to: 57
  5819                           ;mcc_generated_files/interrupt_manager.c: 105:         I2C2_InterruptHandler();
  5820  000310  D802               	call	i1u311_28
  5821  000312  EF95  F001         	goto	i1u311_29
  5822  000316                     i1u311_28:
  5823  000316  0005               	push	
  5824  000318  6EFA               	movwf	pclath,c
  5825  00031A  5005               	movf	_I2C2_InterruptHandler^0,w,c
  5826  00031C  6EFD               	movwf	tosl,c
  5827  00031E  5006               	movf	(_I2C2_InterruptHandler+1)^0,w,c
  5828  000320  6EFE               	movwf	tosh,c
  5829  000322  50F8               	movf	tblptru,w,c
  5830  000324  6EFF               	movwf	tosu,c
  5831  000326  50FA               	movf	pclath,w,c
  5832  000328  0012               	return		;indir
  5833  00032A                     i1u311_29:
  5834                           
  5835                           ;mcc_generated_files/interrupt_manager.c: 106:     } else if (PIE6bits.I2C2EIE == 1 && P
      +                          IR6bits.I2C2EIF == 1) {
  5836  00032A  EFA7  F001         	goto	i1l292
  5837  00032E                     i1l288:
  5838                           
  5839                           ; BSR set to: 57
  5840  00032E  A396               	btfss	150,1,b	;volatile
  5841  000330  EF9C  F001         	goto	i1u312_21
  5842  000334  EF9E  F001         	goto	i1u312_20
  5843  000338                     i1u312_21:
  5844  000338  EFA7  F001         	goto	i1l292
  5845  00033C                     i1u312_20:
  5846  00033C                     
  5847                           ; BSR set to: 57
  5848  00033C  A3A6               	btfss	166,1,b	;volatile
  5849  00033E  EFA3  F001         	goto	i1u313_21
  5850  000342  EFA5  F001         	goto	i1u313_20
  5851  000346                     i1u313_21:
  5852  000346  EFA7  F001         	goto	i1l292
  5853  00034A                     i1u313_20:
  5854  00034A  EF88  F001         	goto	i1l6401
  5855  00034E                     i1l292:
  5856  00034E  0060  F123  FFF5   	movff	??_INTERRUPT_InterruptManagerLow+4,tablat
  5857  000354  0060  F11F  FFF8   	movff	??_INTERRUPT_InterruptManagerLow+3,tblptru
  5858  00035A  0060  F11B  FFF7   	movff	??_INTERRUPT_InterruptManagerLow+2,tblptrh
  5859  000360  0060  F117  FFF6   	movff	??_INTERRUPT_InterruptManagerLow+1,tblptrl
  5860  000366  0060  F113  FFD8   	movff	??_INTERRUPT_InterruptManagerLow,status
  5861  00036C  0011               	retfie		f
  5862  00036E                     __end_of_INTERRUPT_InterruptManagerLow:
  5863                           	callstack 0
  5864                           
  5865 ;; *************** function _UART2_Receive_ISR *****************
  5866 ;; Defined at:
  5867 ;;		line 202 in file "mcc_generated_files/uart2.c"
  5868 ;; Parameters:    Size  Location     Type
  5869 ;;		None
  5870 ;; Auto vars:     Size  Location     Type
  5871 ;;		None
  5872 ;; Return value:  Size  Location     Type
  5873 ;;                  1    wreg      void 
  5874 ;; Registers used:
  5875 ;;		wreg, fsr2l, fsr2h, status,2, status,0, tblptrl, tblptrh, tblptru, cstack
  5876 ;; Tracked objects:
  5877 ;;		On entry : 0/0
  5878 ;;		On exit  : 0/0
  5879 ;;		Unchanged: 0/0
  5880 ;; Data sizes:     COMRAM   BANK0   BANK1   BANK2   BANK3   BANK4   BANK5   BANK6   BANK7
  5881 ;;      Params:         0       0       0       0       0       0       0       0       0
  5882 ;;      Locals:         0       0       0       0       0       0       0       0       0
  5883 ;;      Temps:          0       0       0       0       0       0       0       0       0
  5884 ;;      Totals:         0       0       0       0       0       0       0       0       0
  5885 ;;Total ram usage:        0 bytes
  5886 ;; Hardware stack levels used: 1
  5887 ;; Hardware stack levels required when called: 11
  5888 ;; This function calls:
  5889 ;;		_UART2_RxDataHandler
  5890 ;; This function is called by:
  5891 ;;		_UART2_Initialize
  5892 ;;		_INTERRUPT_InterruptManagerLow
  5893 ;; This function uses a non-reentrant model
  5894 ;;
  5895                           
  5896                           	psect	text45
  5897  001750                     __ptext45:
  5898                           	callstack 0
  5899  001750                     _UART2_Receive_ISR:
  5900                           	callstack 13
  5901  001750                     
  5902                           ;mcc_generated_files/uart2.c: 207:      if(U2ERRIRbits.FERIF){
  5903  001750  013D               	movlb	61	; () banked
  5904  001752  A7E1               	btfss	225,3,b	;volatile
  5905  001754  EFAE  F00B         	goto	i1u275_21
  5906  001758  EFB0  F00B         	goto	i1u275_20
  5907  00175C                     i1u275_21:
  5908  00175C  EFB1  F00B         	goto	i1l628
  5909  001760                     i1u275_20:
  5910  001760                     
  5911                           ; BSR set to: 61
  5912                           ;mcc_generated_files/uart2.c: 210:          U2ERRIRbits.FERIF =0;
  5913  001760  97E1               	bcf	225,3,b	;volatile
  5914  001762                     i1l628:
  5915                           
  5916                           ; BSR set to: 61
  5917                           ;mcc_generated_files/uart2.c: 213:      if(U2ERRIRbits.RXFOIF){
  5918  001762  A3E1               	btfss	225,1,b	;volatile
  5919  001764  EFB6  F00B         	goto	i1u276_21
  5920  001768  EFB8  F00B         	goto	i1u276_20
  5921  00176C                     i1u276_21:
  5922  00176C  EFB9  F00B         	goto	i1l6165
  5923  001770                     i1u276_20:
  5924  001770                     
  5925                           ; BSR set to: 61
  5926                           ;mcc_generated_files/uart2.c: 216:          U2ERRIRbits.RXFOIF =0;
  5927  001770  93E1               	bcf	225,1,b	;volatile
  5928  001772                     i1l6165:
  5929                           
  5930                           ; BSR set to: 61
  5931                           ;mcc_generated_files/uart2.c: 224:     UART2_RxDataHandler();
  5932  001772  EC13  F00E         	call	_UART2_RxDataHandler	;wreg free
  5933  001776  0012               	return		;funcret
  5934  001778                     __end_of_UART2_Receive_ISR:
  5935                           	callstack 0
  5936                           
  5937 ;; *************** function _UART2_RxDataHandler *****************
  5938 ;; Defined at:
  5939 ;;		line 231 in file "mcc_generated_files/uart2.c"
  5940 ;; Parameters:    Size  Location     Type
  5941 ;;		None
  5942 ;; Auto vars:     Size  Location     Type
  5943 ;;		None
  5944 ;; Return value:  Size  Location     Type
  5945 ;;                  1    wreg      void 
  5946 ;; Registers used:
  5947 ;;		wreg, fsr2l, fsr2h, status,2, status,0, tblptrl, tblptrh, tblptru, cstack
  5948 ;; Tracked objects:
  5949 ;;		On entry : 0/0
  5950 ;;		On exit  : 0/0
  5951 ;;		Unchanged: 0/0
  5952 ;; Data sizes:     COMRAM   BANK0   BANK1   BANK2   BANK3   BANK4   BANK5   BANK6   BANK7
  5953 ;;      Params:         0       0       0       0       0       0       0       0       0
  5954 ;;      Locals:         0       0       0       0       0       0       0       0       0
  5955 ;;      Temps:          0       0       0       0       0       0       0       0       0
  5956 ;;      Totals:         0       0       0       0       0       0       0       0       0
  5957 ;;Total ram usage:        0 bytes
  5958 ;; Hardware stack levels used: 1
  5959 ;; Hardware stack levels required when called: 10
  5960 ;; This function calls:
  5961 ;;		_modbusReceivedDataLoRa
  5962 ;; This function is called by:
  5963 ;;		_UART2_Receive_ISR
  5964 ;;		_UART2_DefaultErrorHandler
  5965 ;; This function uses a non-reentrant model
  5966 ;;
  5967                           
  5968                           	psect	text46
  5969  001C26                     __ptext46:
  5970                           	callstack 0
  5971  001C26                     _UART2_RxDataHandler:
  5972                           	callstack 13
  5973  001C26                     
  5974                           ;mcc_generated_files/uart2.c: 247:     modbusReceivedDataLoRa();
  5975  001C26  EC2B  F002         	call	_modbusReceivedDataLoRa	;wreg free
  5976  001C2A                     
  5977                           ;mcc_generated_files/uart2.c: 249:     PIR6bits.U2RXIF = 0;
  5978  001C2A  0139               	movlb	57	; () banked
  5979  001C2C  95A6               	bcf	166,2,b	;volatile
  5980  001C2E                     
  5981                           ; BSR set to: 57
  5982  001C2E  0012               	return		;funcret
  5983  001C30                     __end_of_UART2_RxDataHandler:
  5984                           	callstack 0
  5985                           
  5986 ;; *************** function _modbusReceivedDataLoRa *****************
  5987 ;; Defined at:
  5988 ;;		line 281 in file "../modbus/modbus_phy_layer_rtu_slave.c"
  5989 ;; Parameters:    Size  Location     Type
  5990 ;;		None
  5991 ;; Auto vars:     Size  Location     Type
  5992 ;;  c               1   14[COMRAM] unsigned char 
  5993 ;; Return value:  Size  Location     Type
  5994 ;;                  1    wreg      void 
  5995 ;; Registers used:
  5996 ;;		wreg, fsr2l, fsr2h, status,2, status,0, tblptrl, tblptrh, tblptru, cstack
  5997 ;; Tracked objects:
  5998 ;;		On entry : 0/0
  5999 ;;		On exit  : 0/0
  6000 ;;		Unchanged: 0/0
  6001 ;; Data sizes:     COMRAM   BANK0   BANK1   BANK2   BANK3   BANK4   BANK5   BANK6   BANK7
  6002 ;;      Params:         0       0       0       0       0       0       0       0       0
  6003 ;;      Locals:         1       0       0       0       0       0       0       0       0
  6004 ;;      Temps:          0       0       0       0       0       0       0       0       0
  6005 ;;      Totals:         1       0       0       0       0       0       0       0       0
  6006 ;;Total ram usage:        1 bytes
  6007 ;; Hardware stack levels used: 1
  6008 ;; Hardware stack levels required when called: 9
  6009 ;; This function calls:
  6010 ;;		i1_modbus_calc_crc
  6011 ;;		i1_modbus_enable_timeout
  6012 ;; This function is called by:
  6013 ;;		_UART2_RxDataHandler
  6014 ;; This function uses a non-reentrant model
  6015 ;;
  6016                           
  6017                           	psect	text47
  6018  000456                     __ptext47:
  6019                           	callstack 0
  6020  000456                     _modbusReceivedDataLoRa:
  6021                           	callstack 13
  6022  000456                     
  6023                           ;../modbus/modbus_phy_layer_rtu_slave.c: 283:     readDataSensor = STOP_MODBUS_SENSOR;
  6024  000456  0E03               	movlw	3
  6025  000458  0100               	movlb	0	; () banked
  6026  00045A  6FFE               	movwf	_readDataSensor& (0+255),b
  6027                           
  6028                           ;../modbus/modbus_phy_layer_rtu_slave.c: 284:     flagReceiveRS485LoRa = 0;
  6029  00045C  0E00               	movlw	0
  6030  00045E  6E1A               	movwf	_flagReceiveRS485LoRa^0,c
  6031  000460                     
  6032                           ; BSR set to: 0
  6033                           ;../modbus/modbus_phy_layer_rtu_slave.c: 286:     char c;;../modbus/modbus_phy_layer_rtu
      +                          _slave.c: 287:     c = U2RXB;
  6034  000460  006F F740  F03E    	movff	15824,modbusReceivedDataLoRa@c	;volatile
  6035                           
  6036                           ;../modbus/modbus_phy_layer_rtu_slave.c: 289:         if (!modbus_serial_new) {
  6037  000466  51FB               	movf	_modbus_serial_new& (0+255),w,b
  6038  000468  A4D8               	btfss	status,2,c
  6039  00046A  EF39  F002         	goto	i1u221_21
  6040  00046E  EF3B  F002         	goto	i1u221_20
  6041  000472                     i1u221_21:
  6042  000472  EF9D  F002         	goto	i1l1099
  6043  000476                     i1u221_20:
  6044  000476                     
  6045                           ; BSR set to: 0
  6046                           ;../modbus/modbus_phy_layer_rtu_slave.c: 290:             if (c == 0x40 && next_flag == 
      +                          0) {
  6047  000476  0E40               	movlw	64
  6048  000478  183E               	xorwf	modbusReceivedDataLoRa@c^0,w,c
  6049  00047A  A4D8               	btfss	status,2,c
  6050  00047C  EF42  F002         	goto	i1u222_21
  6051  000480  EF44  F002         	goto	i1u222_20
  6052  000484                     i1u222_21:
  6053  000484  EF5F  F002         	goto	i1l5471
  6054  000488                     i1u222_20:
  6055  000488                     
  6056                           ; BSR set to: 0
  6057  000488  5015               	movf	_next_flag^0,w,c
  6058  00048A  A4D8               	btfss	status,2,c
  6059  00048C  EF4A  F002         	goto	i1u223_21
  6060  000490  EF4C  F002         	goto	i1u223_20
  6061  000494                     i1u223_21:
  6062  000494  EF5F  F002         	goto	i1l5471
  6063  000498                     i1u223_20:
  6064  000498                     
  6065                           ; BSR set to: 0
  6066                           ;../modbus/modbus_phy_layer_rtu_slave.c: 292:                 modbus_serial_crc.d = 0xFF
      +                          FF;
  6067  000498  6801               	setf	_modbus_serial_crc^0,c
  6068  00049A  6802               	setf	(_modbus_serial_crc+1)^0,c
  6069                           
  6070                           ;../modbus/modbus_phy_layer_rtu_slave.c: 293:                 modbus_rx.error = 0;
  6071  00049C  0E00               	movlw	0
  6072  00049E  006F FFA0  F601    	movff	wreg,_modbus_rx+3
  6073  0004A4                     
  6074                           ; BSR set to: 0
  6075                           ;../modbus/modbus_phy_layer_rtu_slave.c: 294:                 next_flag++;
  6076  0004A4  2A15               	incf	_next_flag^0,f,c
  6077  0004A6                     
  6078                           ; BSR set to: 0
  6079                           ;../modbus/modbus_phy_layer_rtu_slave.c: 295:                 tick_reset_setting_rx_lora
      +                           = 0;
  6080  0004A6  0E00               	movlw	0
  6081  0004A8  6FA0               	movwf	_tick_reset_setting_rx_lora& (0+255),b
  6082  0004AA  0E00               	movlw	0
  6083  0004AC  6FA1               	movwf	(_tick_reset_setting_rx_lora+1)& (0+255),b
  6084  0004AE  0E00               	movlw	0
  6085  0004B0  6FA2               	movwf	(_tick_reset_setting_rx_lora+2)& (0+255),b
  6086  0004B2  0E00               	movlw	0
  6087  0004B4  6FA3               	movwf	(_tick_reset_setting_rx_lora+3)& (0+255),b
  6088  0004B6                     
  6089                           ; BSR set to: 0
  6090                           ;../modbus/modbus_phy_layer_rtu_slave.c: 296:                 sum_reset_device = 0;
  6091  0004B6  0E00               	movlw	0
  6092  0004B8  6E1D               	movwf	_sum_reset_device^0,c
  6093                           
  6094                           ;../modbus/modbus_phy_layer_rtu_slave.c: 297:             }
  6095  0004BA  EF78  F002         	goto	i1l5483
  6096  0004BE                     i1l5471:
  6097                           
  6098                           ; BSR set to: 0
  6099  0004BE  0415               	decf	_next_flag^0,w,c
  6100  0004C0  A4D8               	btfss	status,2,c
  6101  0004C2  EF65  F002         	goto	i1u224_21
  6102  0004C6  EF67  F002         	goto	i1u224_20
  6103  0004CA                     i1u224_21:
  6104  0004CA  EF6E  F002         	goto	i1l5479
  6105  0004CE                     i1u224_20:
  6106  0004CE                     
  6107                           ; BSR set to: 0
  6108                           ;../modbus/modbus_phy_layer_rtu_slave.c: 299:                 next_flag++;
  6109  0004CE  2A15               	incf	_next_flag^0,f,c
  6110  0004D0                     
  6111                           ; BSR set to: 0
  6112                           ;../modbus/modbus_phy_layer_rtu_slave.c: 300:                 lengh_data_cache = c;
  6113  0004D0  C03E  F017         	movff	modbusReceivedDataLoRa@c,_lengh_data_cache
  6114  0004D4                     
  6115                           ; BSR set to: 0
  6116                           ;../modbus/modbus_phy_layer_rtu_slave.c: 301:                 dem = 0;
  6117  0004D4  0E00               	movlw	0
  6118  0004D6  6E0A               	movwf	_dem^0,c
  6119                           
  6120                           ;../modbus/modbus_phy_layer_rtu_slave.c: 302:             }
  6121  0004D8  EF78  F002         	goto	i1l5483
  6122  0004DC                     i1l5479:
  6123                           
  6124                           ; BSR set to: 0
  6125                           ;../modbus/modbus_phy_layer_rtu_slave.c: 304:                 data_decode[dem] = c;
  6126  0004DC  0E00               	movlw	low _data_decode
  6127  0004DE  240A               	addwf	_dem^0,w,c
  6128  0004E0  6ED9               	movwf	fsr2l,c
  6129  0004E2  6ADA               	clrf	fsr2h,c
  6130  0004E4  0E03               	movlw	high _data_decode
  6131  0004E6  22DA               	addwfc	fsr2h,f,c
  6132  0004E8  0060  F0FB  FFDF   	movff	modbusReceivedDataLoRa@c,indf2
  6133  0004EE                     
  6134                           ; BSR set to: 0
  6135                           ;../modbus/modbus_phy_layer_rtu_slave.c: 305:                 dem++;
  6136  0004EE  2A0A               	incf	_dem^0,f,c
  6137  0004F0                     i1l5483:
  6138                           
  6139                           ; BSR set to: 0
  6140                           ;../modbus/modbus_phy_layer_rtu_slave.c: 307:             if (dem == lengh_data_cache) {
  6141  0004F0  5017               	movf	_lengh_data_cache^0,w,c
  6142  0004F2  180A               	xorwf	_dem^0,w,c
  6143  0004F4  A4D8               	btfss	status,2,c
  6144  0004F6  EF7F  F002         	goto	i1u225_21
  6145  0004FA  EF81  F002         	goto	i1u225_20
  6146  0004FE                     i1u225_21:
  6147  0004FE  EF91  F002         	goto	i1l5491
  6148  000502                     i1u225_20:
  6149  000502                     
  6150                           ; BSR set to: 0
  6151                           ;../modbus/modbus_phy_layer_rtu_slave.c: 309:                 modbus_rx.address = 0xFF;
  6152  000502  0EFF               	movlw	255
  6153  000504  006F FFA0  F5FE    	movff	wreg,_modbus_rx
  6154  00050A                     
  6155                           ; BSR set to: 0
  6156                           ;../modbus/modbus_phy_layer_rtu_slave.c: 310:                 modbus_serial_new = TRUE;
  6157  00050A  0E01               	movlw	1
  6158  00050C  6FFB               	movwf	_modbus_serial_new& (0+255),b
  6159  00050E                     
  6160                           ; BSR set to: 0
  6161                           ;../modbus/modbus_phy_layer_rtu_slave.c: 311:                 lengh_data = lengh_data_ca
      +                          che;
  6162  00050E  C017  F018         	movff	_lengh_data_cache,_lengh_data
  6163                           
  6164                           ;../modbus/modbus_phy_layer_rtu_slave.c: 312:                 next_flag = 0;
  6165  000512  0E00               	movlw	0
  6166  000514  6E15               	movwf	_next_flag^0,c
  6167                           
  6168                           ;../modbus/modbus_phy_layer_rtu_slave.c: 313:                 flag_decode = 1;
  6169  000516  0E01               	movlw	1
  6170  000518  6E16               	movwf	_flag_decode^0,c
  6171                           
  6172                           ;../modbus/modbus_phy_layer_rtu_slave.c: 314:                 modbus_serial_state = MODB
      +                          US_GETDATA;
  6173  00051A  0E02               	movlw	2
  6174  00051C  6FFA               	movwf	_modbus_serial_state& (0+255),b
  6175                           
  6176                           ;../modbus/modbus_phy_layer_rtu_slave.c: 315:                 dem = 0;
  6177  00051E  0E00               	movlw	0
  6178  000520  6E0A               	movwf	_dem^0,c
  6179  000522                     i1l5491:
  6180                           
  6181                           ; BSR set to: 0
  6182                           ;../modbus/modbus_phy_layer_rtu_slave.c: 317:             modbus_enable_timeout(TRUE);
  6183  000522  0E01               	movlw	1
  6184  000524  EC67  F00C         	call	i1_modbus_enable_timeout
  6185  000528                     
  6186                           ;../modbus/modbus_phy_layer_rtu_slave.c: 318:             timer_modbus = 0;
  6187  000528  0E00               	movlw	0
  6188  00052A  6E04               	movwf	(_timer_modbus+1)^0,c	;volatile
  6189  00052C  0E00               	movlw	0
  6190  00052E  6E03               	movwf	_timer_modbus^0,c	;volatile
  6191  000530                     
  6192                           ;../modbus/modbus_phy_layer_rtu_slave.c: 319:             modbus_calc_crc(c);
  6193  000530  503E               	movf	modbusReceivedDataLoRa@c^0,w,c
  6194  000532  EC31  F00B         	call	i1_modbus_calc_crc
  6195  000536                     
  6196                           ;../modbus/modbus_phy_layer_rtu_slave.c: 320:             flag_has_data = 1;
  6197  000536  0E01               	movlw	1
  6198  000538  6E07               	movwf	_flag_has_data^0,c
  6199  00053A                     i1l1099:
  6200  00053A  0012               	return		;funcret
  6201  00053C                     __end_of_modbusReceivedDataLoRa:
  6202                           	callstack 0
  6203                           
  6204 ;; *************** function i1_modbus_enable_timeout *****************
  6205 ;; Defined at:
  6206 ;;		line 152 in file "../modbus/modbus_phy_layer_rtu_slave.c"
  6207 ;; Parameters:    Size  Location     Type
  6208 ;;  enable          1    wreg     enum E16047
  6209 ;; Auto vars:     Size  Location     Type
  6210 ;;  enable          1   12[COMRAM] enum E16047
  6211 ;; Return value:  Size  Location     Type
  6212 ;;                  1    wreg      void 
  6213 ;; Registers used:
  6214 ;;		wreg, status,2
  6215 ;; Tracked objects:
  6216 ;;		On entry : 0/0
  6217 ;;		On exit  : 0/0
  6218 ;;		Unchanged: 0/0
  6219 ;; Data sizes:     COMRAM   BANK0   BANK1   BANK2   BANK3   BANK4   BANK5   BANK6   BANK7
  6220 ;;      Params:         0       0       0       0       0       0       0       0       0
  6221 ;;      Locals:         1       0       0       0       0       0       0       0       0
  6222 ;;      Temps:          0       0       0       0       0       0       0       0       0
  6223 ;;      Totals:         1       0       0       0       0       0       0       0       0
  6224 ;;Total ram usage:        1 bytes
  6225 ;; Hardware stack levels used: 1
  6226 ;; Hardware stack levels required when called: 8
  6227 ;; This function calls:
  6228 ;;		Nothing
  6229 ;; This function is called by:
  6230 ;;		_modbusReceivedDataLoRa
  6231 ;; This function uses a non-reentrant model
  6232 ;;
  6233                           
  6234                           	psect	text48
  6235  0018CE                     __ptext48:
  6236                           	callstack 0
  6237  0018CE                     i1_modbus_enable_timeout:
  6238                           	callstack 13
  6239                           
  6240                           ;incstack = 0
  6241                           ;i1modbus_enable_timeout@enable stored from wreg
  6242  0018CE  6E3C               	movwf	i1modbus_enable_timeout@enable^0,c
  6243  0018D0                     
  6244                           ;../modbus/modbus_phy_layer_rtu_slave.c: 153:     modbus_timeout_enabled = enable;
  6245  0018D0  503C               	movf	i1modbus_enable_timeout@enable^0,w,c
  6246  0018D2  A4D8               	btfss	status,2,c
  6247  0018D4  EF6E  F00C         	goto	i1u205_21
  6248  0018D8  EF71  F00C         	goto	i1u205_20
  6249  0018DC                     i1u205_21:
  6250  0018DC  0E01               	movlw	1
  6251  0018DE  EF72  F00C         	goto	i1u206_20
  6252  0018E2                     i1u205_20:
  6253  0018E2  0E00               	movlw	0
  6254  0018E4                     i1u206_20:
  6255  0018E4  6E1C               	movwf	_modbus_timeout_enabled^0,c
  6256  0018E6  0012               	return		;funcret
  6257  0018E8                     __end_ofi1_modbus_enable_timeout:
  6258                           	callstack 0
  6259                           
  6260 ;; *************** function i1_modbus_calc_crc *****************
  6261 ;; Defined at:
  6262 ;;		line 188 in file "../modbus/modbus_phy_layer_rtu_slave.c"
  6263 ;; Parameters:    Size  Location     Type
  6264 ;;  data            1    wreg     unsigned char 
  6265 ;; Auto vars:     Size  Location     Type
  6266 ;;  data            1   12[COMRAM] unsigned char 
  6267 ;;  uIndex          1   13[COMRAM] unsigned char 
  6268 ;; Return value:  Size  Location     Type
  6269 ;;                  1    wreg      void 
  6270 ;; Registers used:
  6271 ;;		wreg, status,2, status,0, tblptrl, tblptrh, tblptru
  6272 ;; Tracked objects:
  6273 ;;		On entry : 0/0
  6274 ;;		On exit  : 0/0
  6275 ;;		Unchanged: 0/0
  6276 ;; Data sizes:     COMRAM   BANK0   BANK1   BANK2   BANK3   BANK4   BANK5   BANK6   BANK7
  6277 ;;      Params:         0       0       0       0       0       0       0       0       0
  6278 ;;      Locals:         2       0       0       0       0       0       0       0       0
  6279 ;;      Temps:          0       0       0       0       0       0       0       0       0
  6280 ;;      Totals:         2       0       0       0       0       0       0       0       0
  6281 ;;Total ram usage:        2 bytes
  6282 ;; Hardware stack levels used: 1
  6283 ;; Hardware stack levels required when called: 8
  6284 ;; This function calls:
  6285 ;;		Nothing
  6286 ;; This function is called by:
  6287 ;;		_modbusReceivedDataLoRa
  6288 ;; This function uses a non-reentrant model
  6289 ;;
  6290                           
  6291                           	psect	text49
  6292  001662                     __ptext49:
  6293                           	callstack 0
  6294  001662                     i1_modbus_calc_crc:
  6295                           	callstack 13
  6296                           
  6297                           ;incstack = 0
  6298                           ;i1modbus_calc_crc@data stored from wreg
  6299  001662  6E3C               	movwf	i1modbus_calc_crc@data^0,c
  6300  001664                     
  6301                           ;../modbus/modbus_phy_layer_rtu_slave.c: 189:     unsigned char uIndex;;../modbus/modbus
      +                          _phy_layer_rtu_slave.c: 191:     uIndex = (uint8_t) (modbus_serial_crc.b[1]) ^ data;
  6302  001664  5002               	movf	(_modbus_serial_crc+1)^0,w,c
  6303  001666  183C               	xorwf	i1modbus_calc_crc@data^0,w,c
  6304  001668  6E3D               	movwf	i1modbus_calc_crc@uIndex^0,c
  6305  00166A                     
  6306                           ;../modbus/modbus_phy_layer_rtu_slave.c: 192:     modbus_serial_crc.b[1] = (uint8_t) ((m
      +                          odbus_serial_crc.b[0]) ^ modbus_auchCRCHi[uIndex]);
  6307  00166A  0EBF               	movlw	low _modbus_auchCRCHi
  6308  00166C  243D               	addwf	i1modbus_calc_crc@uIndex^0,w,c
  6309  00166E  6EF6               	movwf	tblptrl,c
  6310  001670  6AF7               	clrf	tblptrh,c
  6311  001672  0E7E               	movlw	high _modbus_auchCRCHi
  6312  001674  22F7               	addwfc	tblptrh,f,c
  6313  001676                     	if	0	;There are less than 3 active tblptr bytes
  6314  001676                     	endif
  6315  001676  0008               	tblrd		*
  6316  001678  50F5               	movf	tablat,w,c
  6317  00167A  1801               	xorwf	_modbus_serial_crc^0,w,c
  6318  00167C  6E02               	movwf	(_modbus_serial_crc+1)^0,c
  6319  00167E                     
  6320                           ;../modbus/modbus_phy_layer_rtu_slave.c: 193:     modbus_serial_crc.b[0] = modbus_auchCR
      +                          CLo[uIndex];
  6321  00167E  0EBF               	movlw	low _modbus_auchCRCLo
  6322  001680  243D               	addwf	i1modbus_calc_crc@uIndex^0,w,c
  6323  001682  6EF6               	movwf	tblptrl,c
  6324  001684  6AF7               	clrf	tblptrh,c
  6325  001686  0E7D               	movlw	high _modbus_auchCRCLo
  6326  001688  22F7               	addwfc	tblptrh,f,c
  6327  00168A                     	if	0	;There are less than 3 active tblptr bytes
  6328  00168A                     	endif
  6329  00168A  0008               	tblrd		*
  6330  00168C  006F FFD4  F001    	movff	tablat,_modbus_serial_crc
  6331  001692  0012               	return		;funcret
  6332  001694                     __end_ofi1_modbus_calc_crc:
  6333                           	callstack 0
  6334                           
  6335 ;; *************** function _TMR0_ISR *****************
  6336 ;; Defined at:
  6337 ;;		line 139 in file "mcc_generated_files/tmr0.c"
  6338 ;; Parameters:    Size  Location     Type
  6339 ;;		None
  6340 ;; Auto vars:     Size  Location     Type
  6341 ;;		None
  6342 ;; Return value:  Size  Location     Type
  6343 ;;                  1    wreg      void 
  6344 ;; Registers used:
  6345 ;;		wreg, status,2, status,0, pclath, tosl, cstack
  6346 ;; Tracked objects:
  6347 ;;		On entry : 0/0
  6348 ;;		On exit  : 0/0
  6349 ;;		Unchanged: 0/0
  6350 ;; Data sizes:     COMRAM   BANK0   BANK1   BANK2   BANK3   BANK4   BANK5   BANK6   BANK7
  6351 ;;      Params:         0       0       0       0       0       0       0       0       0
  6352 ;;      Locals:         0       0       0       0       0       0       0       0       0
  6353 ;;      Temps:          0       0       0       0       0       0       0       0       0
  6354 ;;      Totals:         0       0       0       0       0       0       0       0       0
  6355 ;;Total ram usage:        0 bytes
  6356 ;; Hardware stack levels used: 1
  6357 ;; Hardware stack levels required when called: 10
  6358 ;; This function calls:
  6359 ;;		_TMR0_CallBack
  6360 ;; This function is called by:
  6361 ;;		_INTERRUPT_InterruptManagerLow
  6362 ;; This function uses a non-reentrant model
  6363 ;;
  6364                           
  6365                           	psect	text50
  6366  001AF2                     __ptext50:
  6367                           	callstack 0
  6368  001AF2                     _TMR0_ISR:
  6369                           	callstack 14
  6370  001AF2                     
  6371                           ;mcc_generated_files/tmr0.c: 142:     PIR3bits.TMR0IF = 0;
  6372  001AF2  0139               	movlb	57	; () banked
  6373  001AF4  9FA3               	bcf	163,7,b	;volatile
  6374  001AF6                     
  6375                           ; BSR set to: 57
  6376                           ;mcc_generated_files/tmr0.c: 144:     TMR0H = timer0ReloadVal16bit >> 8;
  6377  001AF6  504A               	movf	(_timer0ReloadVal16bit+1)^0,w,c	;volatile
  6378  001AF8  6EB7               	movwf	183,c	;volatile
  6379  001AFA                     
  6380                           ; BSR set to: 57
  6381                           ;mcc_generated_files/tmr0.c: 145:     TMR0L = (uint8_t) timer0ReloadVal16bit;
  6382  001AFA  0060  F127  FFB6   	movff	_timer0ReloadVal16bit,16310	;volatile
  6383  001B00                     
  6384                           ; BSR set to: 57
  6385                           ;mcc_generated_files/tmr0.c: 149:         TMR0_CallBack();
  6386  001B00  EC64  F009         	call	_TMR0_CallBack	;wreg free
  6387  001B04  0012               	return		;funcret
  6388  001B06                     __end_of_TMR0_ISR:
  6389                           	callstack 0
  6390                           
  6391 ;; *************** function _TMR0_CallBack *****************
  6392 ;; Defined at:
  6393 ;;		line 154 in file "mcc_generated_files/tmr0.c"
  6394 ;; Parameters:    Size  Location     Type
  6395 ;;		None
  6396 ;; Auto vars:     Size  Location     Type
  6397 ;;		None
  6398 ;; Return value:  Size  Location     Type
  6399 ;;                  1    wreg      void 
  6400 ;; Registers used:
  6401 ;;		wreg, status,2, status,0, pclath, tosl, cstack
  6402 ;; Tracked objects:
  6403 ;;		On entry : 0/0
  6404 ;;		On exit  : 0/0
  6405 ;;		Unchanged: 0/0
  6406 ;; Data sizes:     COMRAM   BANK0   BANK1   BANK2   BANK3   BANK4   BANK5   BANK6   BANK7
  6407 ;;      Params:         0       0       0       0       0       0       0       0       0
  6408 ;;      Locals:         0       0       0       0       0       0       0       0       0
  6409 ;;      Temps:          0       0       0       0       0       0       0       0       0
  6410 ;;      Totals:         0       0       0       0       0       0       0       0       0
  6411 ;;Total ram usage:        0 bytes
  6412 ;; Hardware stack levels used: 1
  6413 ;; Hardware stack levels required when called: 9
  6414 ;; This function calls:
  6415 ;;		Absolute function
  6416 ;;		_TMR0_DefaultInterruptHandler
  6417 ;; This function is called by:
  6418 ;;		_TMR0_ISR
  6419 ;; This function uses a non-reentrant model
  6420 ;;
  6421                           
  6422                           	psect	text51
  6423  0012C8                     __ptext51:
  6424                           	callstack 0
  6425  0012C8                     _TMR0_CallBack:
  6426                           	callstack 14
  6427  0012C8                     
  6428                           ;mcc_generated_files/tmr0.c: 158:     timer_modbus++;LATAbits.LATA5 ^= 1;
  6429  0012C8  4A03               	infsnz	_timer_modbus^0,f,c	;volatile
  6430  0012CA  2A04               	incf	(_timer_modbus+1)^0,f,c	;volatile
  6431  0012CC  7ABA               	btg	186,5,c	;volatile
  6432  0012CE                     
  6433                           ;mcc_generated_files/tmr0.c: 159:     if (timer_modbus == 100) {timer_modbus=0; LATAbits
      +                          .LATA4 ^= 1;}
  6434  0012CE  0E64               	movlw	100
  6435  0012D0  1803               	xorwf	_timer_modbus^0,w,c	;volatile
  6436  0012D2  1004               	iorwf	(_timer_modbus+1)^0,w,c	;volatile
  6437  0012D4  A4D8               	btfss	status,2,c
  6438  0012D6  EF6F  F009         	goto	i1u257_21
  6439  0012DA  EF71  F009         	goto	i1u257_20
  6440  0012DE                     i1u257_21:
  6441  0012DE  EF76  F009         	goto	i1l5927
  6442  0012E2                     i1u257_20:
  6443  0012E2  0E00               	movlw	0
  6444  0012E4  6E04               	movwf	(_timer_modbus+1)^0,c	;volatile
  6445  0012E6  0E00               	movlw	0
  6446  0012E8  6E03               	movwf	_timer_modbus^0,c	;volatile
  6447  0012EA  78BA               	btg	186,4,c	;volatile
  6448  0012EC                     i1l5927:
  6449                           
  6450                           ;mcc_generated_files/tmr0.c: 160:     if(TMR0_InterruptHandler)
  6451  0012EC  0100               	movlb	0	; () banked
  6452  0012EE  51F4               	movf	_TMR0_InterruptHandler& (0+255),w,b
  6453  0012F0  11F5               	iorwf	(_TMR0_InterruptHandler+1)& (0+255),w,b
  6454  0012F2  B4D8               	btfsc	status,2,c
  6455  0012F4  EF7E  F009         	goto	i1u258_21
  6456  0012F8  EF80  F009         	goto	i1u258_20
  6457  0012FC                     i1u258_21:
  6458  0012FC  EF8D  F009         	goto	i1l233
  6459  001300                     i1u258_20:
  6460  001300                     
  6461                           ; BSR set to: 0
  6462                           ;mcc_generated_files/tmr0.c: 161:     {;mcc_generated_files/tmr0.c: 162:         TMR0_In
      +                          terruptHandler();
  6463  001300  D802               	call	i1u259_28
  6464  001302  EF8D  F009         	goto	i1u259_29
  6465  001306                     i1u259_28:
  6466  001306  0005               	push	
  6467  001308  6EFA               	movwf	pclath,c
  6468  00130A  51F4               	movf	_TMR0_InterruptHandler& (0+255),w,b
  6469  00130C  6EFD               	movwf	tosl,c
  6470  00130E  51F5               	movf	(_TMR0_InterruptHandler+1)& (0+255),w,b
  6471  001310  6EFE               	movwf	tosh,c
  6472  001312  50F8               	movf	tblptru,w,c
  6473  001314  6EFF               	movwf	tosu,c
  6474  001316  50FA               	movf	pclath,w,c
  6475  001318  0012               	return		;indir
  6476  00131A                     i1u259_29:
  6477  00131A                     i1l233:
  6478  00131A  0012               	return		;funcret
  6479  00131C                     __end_of_TMR0_CallBack:
  6480                           	callstack 0
  6481                           
  6482 ;; *************** function _TMR0_DefaultInterruptHandler *****************
  6483 ;; Defined at:
  6484 ;;		line 171 in file "mcc_generated_files/tmr0.c"
  6485 ;; Parameters:    Size  Location     Type
  6486 ;;		None
  6487 ;; Auto vars:     Size  Location     Type
  6488 ;;		None
  6489 ;; Return value:  Size  Location     Type
  6490 ;;                  1    wreg      void 
  6491 ;; Registers used:
  6492 ;;		None
  6493 ;; Tracked objects:
  6494 ;;		On entry : 0/0
  6495 ;;		On exit  : 0/0
  6496 ;;		Unchanged: 0/0
  6497 ;; Data sizes:     COMRAM   BANK0   BANK1   BANK2   BANK3   BANK4   BANK5   BANK6   BANK7
  6498 ;;      Params:         0       0       0       0       0       0       0       0       0
  6499 ;;      Locals:         0       0       0       0       0       0       0       0       0
  6500 ;;      Temps:          0       0       0       0       0       0       0       0       0
  6501 ;;      Totals:         0       0       0       0       0       0       0       0       0
  6502 ;;Total ram usage:        0 bytes
  6503 ;; Hardware stack levels used: 1
  6504 ;; Hardware stack levels required when called: 8
  6505 ;; This function calls:
  6506 ;;		Nothing
  6507 ;; This function is called by:
  6508 ;;		_TMR0_Initialize
  6509 ;;		_TMR0_CallBack
  6510 ;; This function uses a non-reentrant model
  6511 ;;
  6512                           
  6513                           	psect	text52
  6514  001D42                     __ptext52:
  6515                           	callstack 0
  6516  001D42                     _TMR0_DefaultInterruptHandler:
  6517                           	callstack 14
  6518  001D42  0012               	return		;funcret
  6519  001D44                     __end_of_TMR0_DefaultInterruptHandler:
  6520                           	callstack 0
  6521                           
  6522 ;; *************** function _I2C2_MasterIsr *****************
  6523 ;; Defined at:
  6524 ;;		line 326 in file "../modbus/i2c2_master.c"
  6525 ;; Parameters:    Size  Location     Type
  6526 ;;		None
  6527 ;; Auto vars:     Size  Location     Type
  6528 ;;		None
  6529 ;; Return value:  Size  Location     Type
  6530 ;;                  1    wreg      void 
  6531 ;; Registers used:
  6532 ;;		wreg, fsr2l, fsr2h, status,2, status,0, pclath, tosl, tblptrl, tblptrh, tblptru, prodl, prodh, cstack
  6533 ;; Tracked objects:
  6534 ;;		On entry : 0/0
  6535 ;;		On exit  : 0/0
  6536 ;;		Unchanged: 0/0
  6537 ;; Data sizes:     COMRAM   BANK0   BANK1   BANK2   BANK3   BANK4   BANK5   BANK6   BANK7
  6538 ;;      Params:         0       0       0       0       0       0       0       0       0
  6539 ;;      Locals:         0       0       0       0       0       0       0       0       0
  6540 ;;      Temps:          0       0       0       0       0       0       0       0       0
  6541 ;;      Totals:         0       0       0       0       0       0       0       0       0
  6542 ;;Total ram usage:        0 bytes
  6543 ;; Hardware stack levels used: 1
  6544 ;; Hardware stack levels required when called: 14
  6545 ;; This function calls:
  6546 ;;		_I2C2_MasterFsm
  6547 ;; This function is called by:
  6548 ;;		_I2C2_Open
  6549 ;;		_INTERRUPT_InterruptManagerHigh
  6550 ;;		_INTERRUPT_InterruptManagerLow
  6551 ;; This function uses a non-reentrant model
  6552 ;;
  6553                           
  6554                           	psect	text53
  6555  001B3C                     __ptext53:
  6556                           	callstack 0
  6557  001B3C                     _I2C2_MasterIsr:
  6558                           	callstack 0
  6559  0000                     
  6560                           ;Skip over the trampoline to the duplicate function for level 2
  6561  001B3C  AED3               	btfss	211,7,c
  6562  001B3E  EFA3  F00D         	goto	_I2C2_MasterIsr$intlevel1
  6563  001B42  EF75  F00E         	goto	i2_I2C2_MasterIsr
  6564  001B46                     _I2C2_MasterIsr$intlevel1:
  6565                           	callstack 10
  6566  001B46                     
  6567                           ;../modbus/i2c2_master.c: 327:     I2C2_MasterFsm();
  6568  001B46  EC3F  F008         	call	_I2C2_MasterFsm	;wreg free
  6569  001B4A  0012               	return		;funcret
  6570  001B4C                     __end_of_I2C2_MasterIsr:
  6571                           	callstack 0
  6572                           
  6573 ;; *************** function _I2C2_MasterFsm *****************
  6574 ;; Defined at:
  6575 ;;		line 330 in file "../modbus/i2c2_master.c"
  6576 ;; Parameters:    Size  Location     Type
  6577 ;;		None
  6578 ;; Auto vars:     Size  Location     Type
  6579 ;;		None
  6580 ;; Return value:  Size  Location     Type
  6581 ;;                  1    wreg      void 
  6582 ;; Registers used:
  6583 ;;		wreg, fsr2l, fsr2h, status,2, status,0, pclath, tosl, tblptrl, tblptrh, tblptru, prodl, prodh, cstack
  6584 ;; Tracked objects:
  6585 ;;		On entry : 0/0
  6586 ;;		On exit  : 0/0
  6587 ;;		Unchanged: 0/0
  6588 ;; Data sizes:     COMRAM   BANK0   BANK1   BANK2   BANK3   BANK4   BANK5   BANK6   BANK7
  6589 ;;      Params:         0       0       0       0       0       0       0       0       0
  6590 ;;      Locals:         0       0       0       0       0       0       0       0       0
  6591 ;;      Temps:          0       0       0       0       0       0       0       0       0
  6592 ;;      Totals:         0       0       0       0       0       0       0       0       0
  6593 ;;Total ram usage:        0 bytes
  6594 ;; Hardware stack levels used: 1
  6595 ;; Hardware stack levels required when called: 13
  6596 ;; This function calls:
  6597 ;;		_I2C2_ClearInterruptFlags
  6598 ;;		_I2C2_DO_ADDRESS_NACK
  6599 ;;		_I2C2_DO_BUS_COLLISION
  6600 ;;		_I2C2_DO_BUS_ERROR
  6601 ;;		_I2C2_DO_IDLE
  6602 ;;		_I2C2_DO_RESET
  6603 ;;		_I2C2_DO_RX
  6604 ;;		_I2C2_DO_RX_ACK
  6605 ;;		_I2C2_DO_RX_EMPTY
  6606 ;;		_I2C2_DO_RX_NACK_RESTART
  6607 ;;		_I2C2_DO_RX_NACK_STOP
  6608 ;;		_I2C2_DO_SEND_ADR_READ
  6609 ;;		_I2C2_DO_SEND_ADR_WRITE
  6610 ;;		_I2C2_DO_SEND_RESTART
  6611 ;;		_I2C2_DO_SEND_RESTART_READ
  6612 ;;		_I2C2_DO_SEND_RESTART_WRITE
  6613 ;;		_I2C2_DO_SEND_STOP
  6614 ;;		_I2C2_DO_TX
  6615 ;;		_I2C2_DO_TX_ACK
  6616 ;;		_I2C2_DO_TX_EMPTY
  6617 ;;		_I2C2_MasterIsNack
  6618 ;; This function is called by:
  6619 ;;		_I2C2_MasterIsr
  6620 ;; This function uses a non-reentrant model
  6621 ;;
  6622                           
  6623                           	psect	text54
  6624  00107E                     __ptext54:
  6625                           	callstack 0
  6626  00107E                     _I2C2_MasterFsm:
  6627                           	callstack 10
  6628  00107E                     
  6629                           ;../modbus/i2c2_master.c: 331:     I2C2_ClearInterruptFlags();
  6630  00107E  EC8E  F009         	call	_I2C2_ClearInterruptFlags	;wreg free
  6631  001082                     
  6632                           ;../modbus/i2c2_master.c: 333:     if (I2C2_Status.addressNackCheck && I2C2_MasterIsNack
      +                          ()) {
  6633  001082  0100               	movlb	0	; () banked
  6634  001084  5183               	movf	(_I2C2_Status+35)& (0+255),w,b
  6635  001086  0B03               	andlw	3
  6636  001088  0900               	iorlw	0
  6637  00108A  B4D8               	btfsc	status,2,c
  6638  00108C  EF4A  F008         	goto	i1u265_21
  6639  001090  EF4C  F008         	goto	i1u265_20
  6640  001094                     i1u265_21:
  6641  001094  EF59  F008         	goto	i1l6107
  6642  001098                     i1u265_20:
  6643  001098                     
  6644                           ; BSR set to: 0
  6645  001098  ECEB  F00C         	call	_I2C2_MasterIsNack	;wreg free
  6646  00109C  0900               	iorlw	0
  6647  00109E  B4D8               	btfsc	status,2,c
  6648  0010A0  EF54  F008         	goto	i1u266_21
  6649  0010A4  EF56  F008         	goto	i1u266_20
  6650  0010A8                     i1u266_21:
  6651  0010A8  EF59  F008         	goto	i1l6107
  6652  0010AC                     i1u266_20:
  6653  0010AC                     
  6654                           ;../modbus/i2c2_master.c: 334:         I2C2_Status.state = I2C2_ADDRESS_NACK;
  6655  0010AC  0E10               	movlw	16
  6656  0010AE  0100               	movlb	0	; () banked
  6657  0010B0  6F81               	movwf	(_I2C2_Status+33)& (0+255),b
  6658  0010B2                     i1l6107:
  6659                           
  6660                           ;../modbus/i2c2_master.c: 336:     I2C2_Status.state = i2c2_fsmStateTable[I2C2_Status.st
      +                          ate]();
  6661  0010B2  0100               	movlb	0	; () banked
  6662  0010B4  5181               	movf	(_I2C2_Status+33)& (0+255),w,b
  6663  0010B6  0D02               	mullw	2
  6664  0010B8  0EBF               	movlw	low _i2c2_fsmStateTable
  6665  0010BA  24F3               	addwf	243,w,c
  6666  0010BC  6EF6               	movwf	tblptrl,c
  6667  0010BE  0E7F               	movlw	high _i2c2_fsmStateTable
  6668  0010C0  20F4               	addwfc	244,w,c
  6669  0010C2  6EF7               	movwf	tblptrh,c
  6670  0010C4                     	if	0	;There are less than 3 active tblptr bytes
  6671  0010C4                     	endif
  6672  0010C4  D802               	call	i1u267_28
  6673  0010C6  EF71  F008         	goto	i1u267_29
  6674  0010CA                     i1u267_28:
  6675  0010CA  0005               	push	
  6676  0010CC  6EFA               	movwf	pclath,c
  6677  0010CE  0009               	tblrd		*+
  6678  0010D0  50F5               	movf	tablat,w,c
  6679  0010D2  6EFD               	movwf	tosl,c
  6680  0010D4  0009               	tblrd		*+
  6681  0010D6  50F5               	movf	tablat,w,c
  6682  0010D8  6EFE               	movwf	tosh,c
  6683  0010DA  50F8               	movf	tblptru,w,c
  6684  0010DC  6EFF               	movwf	tosu,c
  6685  0010DE  50FA               	movf	pclath,w,c
  6686  0010E0  0012               	return		;indir
  6687  0010E2                     i1u267_29:
  6688  0010E2  0100               	movlb	0	; () banked
  6689  0010E4  6F81               	movwf	(_I2C2_Status+33)& (0+255),b
  6690  0010E6                     
  6691                           ; BSR set to: 0
  6692  0010E6  0012               	return		;funcret
  6693  0010E8                     __end_of_I2C2_MasterFsm:
  6694                           	callstack 0
  6695                           
  6696 ;; *************** function _I2C2_DO_BUS_ERROR *****************
  6697 ;; Defined at:
  6698 ;;		line 530 in file "../modbus/i2c2_master.c"
  6699 ;; Parameters:    Size  Location     Type
  6700 ;;		None
  6701 ;; Auto vars:     Size  Location     Type
  6702 ;;		None
  6703 ;; Return value:  Size  Location     Type
  6704 ;;                  1    wreg      enum E16535
  6705 ;; Registers used:
  6706 ;;		wreg, status,2, cstack
  6707 ;; Tracked objects:
  6708 ;;		On entry : 0/0
  6709 ;;		On exit  : 0/0
  6710 ;;		Unchanged: 0/0
  6711 ;; Data sizes:     COMRAM   BANK0   BANK1   BANK2   BANK3   BANK4   BANK5   BANK6   BANK7
  6712 ;;      Params:         0       0       0       0       0       0       0       0       0
  6713 ;;      Locals:         0       0       0       0       0       0       0       0       0
  6714 ;;      Temps:          0       0       0       0       0       0       0       0       0
  6715 ;;      Totals:         0       0       0       0       0       0       0       0       0
  6716 ;;Total ram usage:        0 bytes
  6717 ;; Hardware stack levels used: 1
  6718 ;; Hardware stack levels required when called: 9
  6719 ;; This function calls:
  6720 ;;		_I2C2_MasterResetBus
  6721 ;; This function is called by:
  6722 ;;		_I2C2_MasterFsm
  6723 ;;		i2_I2C2_MasterFsm
  6724 ;; This function uses a non-reentrant model
  6725 ;;
  6726                           
  6727                           	psect	text55
  6728  0018E8                     __ptext55:
  6729                           	callstack 0
  6730  0018E8                     _I2C2_DO_BUS_ERROR:
  6731                           	callstack 0
  6732                           
  6733                           ; BSR set to: 0
  6734                           ;Skip over the trampoline to the duplicate function for level 2
  6735  0018E8  AED3               	btfss	211,7,c
  6736  0018EA  EF79  F00C         	goto	_I2C2_DO_BUS_ERROR$intlevel1
  6737  0018EE  EFA6  F00D         	goto	i2_I2C2_DO_BUS_ERROR
  6738  0018F2                     _I2C2_DO_BUS_ERROR$intlevel1:
  6739                           	callstack 13
  6740  0018F2                     
  6741                           ;../modbus/i2c2_master.c: 531:     I2C2_MasterResetBus();
  6742  0018F2  EC22  F00E         	call	_I2C2_MasterResetBus	;wreg free
  6743  0018F6                     
  6744                           ;../modbus/i2c2_master.c: 532:     I2C2_Status.busy = 0;
  6745  0018F6  0100               	movlb	0	; () banked
  6746  0018F8  9583               	bcf	(_I2C2_Status+35)& (0+255),2,b
  6747  0018FA                     
  6748                           ; BSR set to: 0
  6749                           ;../modbus/i2c2_master.c: 533:     I2C2_Status.error = I2C2_FAIL;
  6750  0018FA  0E02               	movlw	2
  6751  0018FC  6F82               	movwf	(_I2C2_Status+34)& (0+255),b
  6752  0018FE                     
  6753                           ; BSR set to: 0
  6754                           ;../modbus/i2c2_master.c: 534:     return I2C2_RESET;
  6755  0018FE  0E0F               	movlw	15
  6756  001900                     
  6757                           ; BSR set to: 0
  6758  001900  0012               	return		;funcret
  6759  001902                     __end_of_I2C2_DO_BUS_ERROR:
  6760                           	callstack 0
  6761                           
  6762 ;; *************** function _I2C2_DO_BUS_COLLISION *****************
  6763 ;; Defined at:
  6764 ;;		line 515 in file "../modbus/i2c2_master.c"
  6765 ;; Parameters:    Size  Location     Type
  6766 ;;		None
  6767 ;; Auto vars:     Size  Location     Type
  6768 ;;		None
  6769 ;; Return value:  Size  Location     Type
  6770 ;;                  1    wreg      enum E16535
  6771 ;; Registers used:
  6772 ;;		wreg, fsr2l, fsr2h, status,2, status,0, pclath, tosl, cstack
  6773 ;; Tracked objects:
  6774 ;;		On entry : 0/0
  6775 ;;		On exit  : 0/0
  6776 ;;		Unchanged: 0/0
  6777 ;; Data sizes:     COMRAM   BANK0   BANK1   BANK2   BANK3   BANK4   BANK5   BANK6   BANK7
  6778 ;;      Params:         0       0       0       0       0       0       0       0       0
  6779 ;;      Locals:         0       0       0       0       0       0       0       0       0
  6780 ;;      Temps:          2       0       0       0       0       0       0       0       0
  6781 ;;      Totals:         2       0       0       0       0       0       0       0       0
  6782 ;;Total ram usage:        2 bytes
  6783 ;; Hardware stack levels used: 1
  6784 ;; Hardware stack levels required when called: 12
  6785 ;; This function calls:
  6786 ;;		Absolute function
  6787 ;;		_I2C2_CallbackReturnReset
  6788 ;;		_I2C2_CallbackReturnStop
  6789 ;;		_I2C2_DO_RESET
  6790 ;;		_I2C2_DO_SEND_RESTART_READ
  6791 ;;		_I2C2_DO_SEND_RESTART_WRITE
  6792 ;;		_I2C2_MasterClearIrq
  6793 ;; This function is called by:
  6794 ;;		_I2C2_MasterFsm
  6795 ;;		i2_I2C2_MasterFsm
  6796 ;; This function uses a non-reentrant model
  6797 ;;
  6798                           
  6799                           	psect	text56
  6800  000D2E                     __ptext56:
  6801                           	callstack 0
  6802  000D2E                     _I2C2_DO_BUS_COLLISION:
  6803                           	callstack 0
  6804                           
  6805                           ; BSR set to: 0
  6806                           ;Skip over the trampoline to the duplicate function for level 2
  6807  000D2E  AED3               	btfss	211,7,c
  6808  000D30  EF9C  F006         	goto	_I2C2_DO_BUS_COLLISION$intlevel1
  6809  000D34  EFCD  F007         	goto	i2_I2C2_DO_BUS_COLLISION
  6810  000D38                     _I2C2_DO_BUS_COLLISION$intlevel1:
  6811                           	callstack 10
  6812  000D38                     
  6813                           ;../modbus/i2c2_master.c: 517:     I2C2_MasterClearIrq();
  6814  000D38  EC43  F00E         	call	_I2C2_MasterClearIrq	;wreg free
  6815  000D3C                     
  6816                           ;../modbus/i2c2_master.c: 519:     I2C2_Status.error = I2C2_FAIL;
  6817  000D3C  0E02               	movlw	2
  6818  000D3E  0100               	movlb	0	; () banked
  6819  000D40  6F82               	movwf	(_I2C2_Status+34)& (0+255),b
  6820                           
  6821                           ;../modbus/i2c2_master.c: 520:     switch (I2C2_Status.callbackTable[I2C2_WRITE_COLLISIO
      +                          N](I2C2_Status.callbackPayload[I2C2_WRITE_COLLISION])) {
  6822  000D42  EFAF  F006         	goto	i1l5697
  6823  000D46                     i1l5683:
  6824                           
  6825                           ;../modbus/i2c2_master.c: 522:             return I2C2_DO_SEND_RESTART_READ();
  6826  000D46  ECB3  F00C         	call	_I2C2_DO_SEND_RESTART_READ	;wreg free
  6827  000D4A  EFD6  F006         	goto	i1l1784
  6828  000D4E                     i1l5687:
  6829                           
  6830                           ;../modbus/i2c2_master.c: 524:             return I2C2_DO_SEND_RESTART_WRITE();
  6831  000D4E  ECBD  F00D         	call	_I2C2_DO_SEND_RESTART_WRITE	;wreg free
  6832  000D52  EFD6  F006         	goto	i1l1784
  6833  000D56                     i1l5691:
  6834                           
  6835                           ;../modbus/i2c2_master.c: 526:             return I2C2_DO_RESET();
  6836  000D56  EC81  F00C         	call	_I2C2_DO_RESET	;wreg free
  6837  000D5A  EFD6  F006         	goto	i1l1784
  6838  000D5E                     i1l5697:
  6839                           
  6840                           ; BSR set to: 0
  6841  000D5E  C06E  F03C         	movff	_I2C2_Status+14,I2C2_CallbackReturnReset@funPtr
  6842  000D62  C06F  F03D         	movff	_I2C2_Status+15,I2C2_CallbackReturnReset@funPtr+1
  6843  000D66  EE20  F062         	lfsr	2,_I2C2_Status+2
  6844  000D6A  D802               	call	i1u242_28
  6845  000D6C  EFC2  F006         	goto	i1u242_29
  6846  000D70                     i1u242_28:
  6847  000D70  0005               	push	
  6848  000D72  6EFA               	movwf	pclath,c
  6849  000D74  50DE               	movf	postinc2,w,c
  6850  000D76  6EFD               	movwf	tosl,c
  6851  000D78  50DE               	movf	postinc2,w,c
  6852  000D7A  6EFE               	movwf	tosh,c
  6853  000D7C  50F8               	movf	tblptru,w,c
  6854  000D7E  6EFF               	movwf	tosu,c
  6855  000D80  50FA               	movf	pclath,w,c
  6856  000D82  0012               	return		;indir
  6857  000D84                     i1u242_29:
  6858  000D84  6E3E               	movwf	??_I2C2_DO_BUS_COLLISION^0,c
  6859  000D86  6A3F               	clrf	(??_I2C2_DO_BUS_COLLISION+1)^0,c
  6860                           
  6861                           ; Switch on 2 bytes has been partitioned into a top level switch of size 1, and 1 sub-sw
      +                          itches
  6862                           ; Switch size 1, requested type "simple"
  6863                           ; Number of cases is 1, Range of values is 0 to 0
  6864                           ; switch strategies available:
  6865                           ; Name         Instructions Cycles
  6866                           ; simple_byte            4     3 (average)
  6867                           ;	Chosen strategy is simple_byte
  6868  000D88  503F               	movf	(??_I2C2_DO_BUS_COLLISION+1)^0,w,c
  6869  000D8A  0A00               	xorlw	0	; case 0
  6870  000D8C  B4D8               	btfsc	status,2,c
  6871  000D8E  EFCB  F006         	goto	i1l8171
  6872  000D92  EFAB  F006         	goto	i1l5691
  6873  000D96                     i1l8171:
  6874                           
  6875                           ; Switch size 1, requested type "simple"
  6876                           ; Number of cases is 2, Range of values is 2 to 3
  6877                           ; switch strategies available:
  6878                           ; Name         Instructions Cycles
  6879                           ; simple_byte            7     4 (average)
  6880                           ;	Chosen strategy is simple_byte
  6881  000D96  503E               	movf	??_I2C2_DO_BUS_COLLISION^0,w,c
  6882  000D98  0A02               	xorlw	2	; case 2
  6883  000D9A  B4D8               	btfsc	status,2,c
  6884  000D9C  EFA3  F006         	goto	i1l5683
  6885  000DA0  0A01               	xorlw	1	; case 3
  6886  000DA2  B4D8               	btfsc	status,2,c
  6887  000DA4  EFA7  F006         	goto	i1l5687
  6888  000DA8  EFAB  F006         	goto	i1l5691
  6889  000DAC                     i1l1784:
  6890  000DAC  0012               	return		;funcret
  6891  000DAE                     __end_of_I2C2_DO_BUS_COLLISION:
  6892                           	callstack 0
  6893                           
  6894 ;; *************** function _I2C2_DO_ADDRESS_NACK *****************
  6895 ;; Defined at:
  6896 ;;		line 502 in file "../modbus/i2c2_master.c"
  6897 ;; Parameters:    Size  Location     Type
  6898 ;;		None
  6899 ;; Auto vars:     Size  Location     Type
  6900 ;;		None
  6901 ;; Return value:  Size  Location     Type
  6902 ;;                  1    wreg      enum E16535
  6903 ;; Registers used:
  6904 ;;		wreg, fsr2l, fsr2h, status,2, status,0, pclath, tosl, cstack
  6905 ;; Tracked objects:
  6906 ;;		On entry : 0/0
  6907 ;;		On exit  : 0/0
  6908 ;;		Unchanged: 0/0
  6909 ;; Data sizes:     COMRAM   BANK0   BANK1   BANK2   BANK3   BANK4   BANK5   BANK6   BANK7
  6910 ;;      Params:         0       0       0       0       0       0       0       0       0
  6911 ;;      Locals:         0       0       0       0       0       0       0       0       0
  6912 ;;      Temps:          2       0       0       0       0       0       0       0       0
  6913 ;;      Totals:         2       0       0       0       0       0       0       0       0
  6914 ;;Total ram usage:        2 bytes
  6915 ;; Hardware stack levels used: 1
  6916 ;; Hardware stack levels required when called: 9
  6917 ;; This function calls:
  6918 ;;		Absolute function
  6919 ;;		_I2C2_CallbackReturnReset
  6920 ;;		_I2C2_CallbackReturnStop
  6921 ;;		_I2C2_DO_SEND_RESTART
  6922 ;; This function is called by:
  6923 ;;		_I2C2_MasterFsm
  6924 ;;		i2_I2C2_MasterFsm
  6925 ;; This function uses a non-reentrant model
  6926 ;;
  6927                           
  6928                           	psect	text57
  6929  000F22                     __ptext57:
  6930                           	callstack 0
  6931  000F22                     _I2C2_DO_ADDRESS_NACK:
  6932                           	callstack 0
  6933                           
  6934                           ;Skip over the trampoline to the duplicate function for level 2
  6935  000F22  AED3               	btfss	211,7,c
  6936  000F24  EF96  F007         	goto	_I2C2_DO_ADDRESS_NACK$intlevel1
  6937  000F28  EF08  F008         	goto	i2_I2C2_DO_ADDRESS_NACK
  6938  000F2C                     _I2C2_DO_ADDRESS_NACK$intlevel1:
  6939                           	callstack 13
  6940  000F2C                     
  6941                           ;../modbus/i2c2_master.c: 503:     I2C2_Status.addressNackCheck = 0;
  6942  000F2C  0EFC               	movlw	-4
  6943  000F2E  0100               	movlb	0	; () banked
  6944  000F30  1783               	andwf	(_I2C2_Status+35)& (0+255),f,b
  6945                           
  6946                           ;../modbus/i2c2_master.c: 504:     I2C2_Status.error = I2C2_FAIL;
  6947  000F32  0E02               	movlw	2
  6948  000F34  6F82               	movwf	(_I2C2_Status+34)& (0+255),b
  6949  000F36                     
  6950                           ; BSR set to: 0
  6951                           ;../modbus/i2c2_master.c: 505:     I2C2_Status.busy = 0;
  6952  000F36  9583               	bcf	(_I2C2_Status+35)& (0+255),2,b
  6953                           
  6954                           ;../modbus/i2c2_master.c: 506:     switch (I2C2_Status.callbackTable[I2C2_ADDR_NACK](I2C
      +                          2_Status.callbackPayload[I2C2_ADDR_NACK])) {
  6955  000F38  EFA5  F007         	goto	i1l5673
  6956  000F3C                     i1l5663:
  6957                           
  6958                           ;../modbus/i2c2_master.c: 509:             return I2C2_DO_SEND_RESTART();
  6959  000F3C  ECB6  F00D         	call	_I2C2_DO_SEND_RESTART	;wreg free
  6960  000F40  EFCC  F007         	goto	i1l1777
  6961  000F44                     i1l5667:
  6962                           
  6963                           ;../modbus/i2c2_master.c: 511:             return I2C2_RESET;
  6964  000F44  0E0F               	movlw	15
  6965  000F46  EFCC  F007         	goto	i1l1777
  6966  000F4A                     i1l5673:
  6967                           
  6968                           ; BSR set to: 0
  6969  000F4A  C070  F03C         	movff	_I2C2_Status+16,I2C2_CallbackReturnReset@funPtr
  6970  000F4E  C071  F03D         	movff	_I2C2_Status+17,I2C2_CallbackReturnReset@funPtr+1
  6971  000F52  EE20  F064         	lfsr	2,_I2C2_Status+4
  6972  000F56  D802               	call	i1u241_28
  6973  000F58  EFB8  F007         	goto	i1u241_29
  6974  000F5C                     i1u241_28:
  6975  000F5C  0005               	push	
  6976  000F5E  6EFA               	movwf	pclath,c
  6977  000F60  50DE               	movf	postinc2,w,c
  6978  000F62  6EFD               	movwf	tosl,c
  6979  000F64  50DE               	movf	postinc2,w,c
  6980  000F66  6EFE               	movwf	tosh,c
  6981  000F68  50F8               	movf	tblptru,w,c
  6982  000F6A  6EFF               	movwf	tosu,c
  6983  000F6C  50FA               	movf	pclath,w,c
  6984  000F6E  0012               	return		;indir
  6985  000F70                     i1u241_29:
  6986  000F70  6E3E               	movwf	??_I2C2_DO_ADDRESS_NACK^0,c
  6987  000F72  6A3F               	clrf	(??_I2C2_DO_ADDRESS_NACK+1)^0,c
  6988                           
  6989                           ; Switch on 2 bytes has been partitioned into a top level switch of size 1, and 1 sub-sw
      +                          itches
  6990                           ; Switch size 1, requested type "simple"
  6991                           ; Number of cases is 1, Range of values is 0 to 0
  6992                           ; switch strategies available:
  6993                           ; Name         Instructions Cycles
  6994                           ; simple_byte            4     3 (average)
  6995                           ;	Chosen strategy is simple_byte
  6996  000F74  503F               	movf	(??_I2C2_DO_ADDRESS_NACK+1)^0,w,c
  6997  000F76  0A00               	xorlw	0	; case 0
  6998  000F78  B4D8               	btfsc	status,2,c
  6999  000F7A  EFC1  F007         	goto	i1l8173
  7000  000F7E  EFA2  F007         	goto	i1l5667
  7001  000F82                     i1l8173:
  7002                           
  7003                           ; Switch size 1, requested type "simple"
  7004                           ; Number of cases is 2, Range of values is 2 to 3
  7005                           ; switch strategies available:
  7006                           ; Name         Instructions Cycles
  7007                           ; simple_byte            7     4 (average)
  7008                           ;	Chosen strategy is simple_byte
  7009  000F82  503E               	movf	??_I2C2_DO_ADDRESS_NACK^0,w,c
  7010  000F84  0A02               	xorlw	2	; case 2
  7011  000F86  B4D8               	btfsc	status,2,c
  7012  000F88  EF9E  F007         	goto	i1l5663
  7013  000F8C  0A01               	xorlw	1	; case 3
  7014  000F8E  B4D8               	btfsc	status,2,c
  7015  000F90  EF9E  F007         	goto	i1l5663
  7016  000F94  EFA2  F007         	goto	i1l5667
  7017  000F98                     i1l1777:
  7018  000F98  0012               	return		;funcret
  7019  000F9A                     __end_of_I2C2_DO_ADDRESS_NACK:
  7020                           	callstack 0
  7021                           
  7022 ;; *************** function _I2C2_DO_RESET *****************
  7023 ;; Defined at:
  7024 ;;		line 495 in file "../modbus/i2c2_master.c"
  7025 ;; Parameters:    Size  Location     Type
  7026 ;;		None
  7027 ;; Auto vars:     Size  Location     Type
  7028 ;;		None
  7029 ;; Return value:  Size  Location     Type
  7030 ;;                  1    wreg      enum E16535
  7031 ;; Registers used:
  7032 ;;		wreg, status,2, cstack
  7033 ;; Tracked objects:
  7034 ;;		On entry : 0/0
  7035 ;;		On exit  : 0/0
  7036 ;;		Unchanged: 0/0
  7037 ;; Data sizes:     COMRAM   BANK0   BANK1   BANK2   BANK3   BANK4   BANK5   BANK6   BANK7
  7038 ;;      Params:         0       0       0       0       0       0       0       0       0
  7039 ;;      Locals:         0       0       0       0       0       0       0       0       0
  7040 ;;      Temps:          0       0       0       0       0       0       0       0       0
  7041 ;;      Totals:         0       0       0       0       0       0       0       0       0
  7042 ;;Total ram usage:        0 bytes
  7043 ;; Hardware stack levels used: 1
  7044 ;; Hardware stack levels required when called: 9
  7045 ;; This function calls:
  7046 ;;		_I2C2_MasterResetBus
  7047 ;; This function is called by:
  7048 ;;		_I2C2_DO_BUS_COLLISION
  7049 ;;		_I2C2_MasterFsm
  7050 ;;		i2_I2C2_MasterFsm
  7051 ;; This function uses a non-reentrant model
  7052 ;;
  7053                           
  7054                           	psect	text58
  7055  001902                     __ptext58:
  7056                           	callstack 0
  7057  001902                     _I2C2_DO_RESET:
  7058                           	callstack 0
  7059                           
  7060                           ;Skip over the trampoline to the duplicate function for level 2
  7061  001902  AED3               	btfss	211,7,c
  7062  001904  EF86  F00C         	goto	_I2C2_DO_RESET$intlevel1
  7063  001908  EFAE  F00D         	goto	i2_I2C2_DO_RESET
  7064  00190C                     _I2C2_DO_RESET$intlevel1:
  7065                           	callstack 13
  7066  00190C                     
  7067                           ;../modbus/i2c2_master.c: 496:     I2C2_MasterResetBus();
  7068  00190C  EC22  F00E         	call	_I2C2_MasterResetBus	;wreg free
  7069  001910                     
  7070                           ;../modbus/i2c2_master.c: 497:     I2C2_Status.busy = 0;
  7071  001910  0100               	movlb	0	; () banked
  7072  001912  9583               	bcf	(_I2C2_Status+35)& (0+255),2,b
  7073  001914                     
  7074                           ; BSR set to: 0
  7075                           ;../modbus/i2c2_master.c: 498:     I2C2_Status.error = I2C2_NOERR;
  7076  001914  0E00               	movlw	0
  7077  001916  6F82               	movwf	(_I2C2_Status+34)& (0+255),b
  7078  001918                     
  7079                           ; BSR set to: 0
  7080                           ;../modbus/i2c2_master.c: 499:     return I2C2_RESET;
  7081  001918  0E0F               	movlw	15
  7082  00191A                     
  7083                           ; BSR set to: 0
  7084  00191A  0012               	return		;funcret
  7085  00191C                     __end_of_I2C2_DO_RESET:
  7086                           	callstack 0
  7087                           
  7088 ;; *************** function _I2C2_DO_RX_NACK_RESTART *****************
  7089 ;; Defined at:
  7090 ;;		line 490 in file "../modbus/i2c2_master.c"
  7091 ;; Parameters:    Size  Location     Type
  7092 ;;		None
  7093 ;; Auto vars:     Size  Location     Type
  7094 ;;		None
  7095 ;; Return value:  Size  Location     Type
  7096 ;;                  1    wreg      enum E16535
  7097 ;; Registers used:
  7098 ;;		wreg, cstack
  7099 ;; Tracked objects:
  7100 ;;		On entry : 0/0
  7101 ;;		On exit  : 0/0
  7102 ;;		Unchanged: 0/0
  7103 ;; Data sizes:     COMRAM   BANK0   BANK1   BANK2   BANK3   BANK4   BANK5   BANK6   BANK7
  7104 ;;      Params:         0       0       0       0       0       0       0       0       0
  7105 ;;      Locals:         0       0       0       0       0       0       0       0       0
  7106 ;;      Temps:          0       0       0       0       0       0       0       0       0
  7107 ;;      Totals:         0       0       0       0       0       0       0       0       0
  7108 ;;Total ram usage:        0 bytes
  7109 ;; Hardware stack levels used: 1
  7110 ;; Hardware stack levels required when called: 9
  7111 ;; This function calls:
  7112 ;;		_I2C2_MasterSendNack@i2c2_master$F3141
  7113 ;; This function is called by:
  7114 ;;		_I2C2_MasterFsm
  7115 ;;		i2_I2C2_MasterFsm
  7116 ;; This function uses a non-reentrant model
  7117 ;;
  7118                           
  7119                           	psect	text59
  7120  001B06                     __ptext59:
  7121                           	callstack 0
  7122  001B06                     _I2C2_DO_RX_NACK_RESTART:
  7123                           	callstack 0
  7124                           
  7125                           ; BSR set to: 0
  7126                           ;Skip over the trampoline to the duplicate function for level 2
  7127  001B06  AED3               	btfss	211,7,c
  7128  001B08  EF88  F00D         	goto	_I2C2_DO_RX_NACK_RESTART$intlevel1
  7129  001B0C  EF47  F00E         	goto	i2_I2C2_DO_RX_NACK_RESTART
  7130  001B10                     _I2C2_DO_RX_NACK_RESTART$intlevel1:
  7131                           	callstack 13
  7132  001B10                     
  7133                           ;../modbus/i2c2_master.c: 491:     I2C2_MasterSendNack();
  7134  001B10  EC5D  F00E         	call	_I2C2_MasterSendNack@i2c2_master$F3141	;wreg free
  7135  001B14                     
  7136                           ;../modbus/i2c2_master.c: 492:     return I2C2_SEND_RESTART;
  7137  001B14  0E09               	movlw	9
  7138  001B16  0012               	return		;funcret
  7139  001B18                     __end_of_I2C2_DO_RX_NACK_RESTART:
  7140                           	callstack 0
  7141                           
  7142 ;; *************** function _I2C2_DO_RX_NACK_STOP *****************
  7143 ;; Defined at:
  7144 ;;		line 484 in file "../modbus/i2c2_master.c"
  7145 ;; Parameters:    Size  Location     Type
  7146 ;;		None
  7147 ;; Auto vars:     Size  Location     Type
  7148 ;;		None
  7149 ;; Return value:  Size  Location     Type
  7150 ;;                  1    wreg      enum E16535
  7151 ;; Registers used:
  7152 ;;		wreg, status,2, cstack
  7153 ;; Tracked objects:
  7154 ;;		On entry : 0/0
  7155 ;;		On exit  : 0/0
  7156 ;;		Unchanged: 0/0
  7157 ;; Data sizes:     COMRAM   BANK0   BANK1   BANK2   BANK3   BANK4   BANK5   BANK6   BANK7
  7158 ;;      Params:         0       0       0       0       0       0       0       0       0
  7159 ;;      Locals:         0       0       0       0       0       0       0       0       0
  7160 ;;      Temps:          0       0       0       0       0       0       0       0       0
  7161 ;;      Totals:         0       0       0       0       0       0       0       0       0
  7162 ;;Total ram usage:        0 bytes
  7163 ;; Hardware stack levels used: 1
  7164 ;; Hardware stack levels required when called: 9
  7165 ;; This function calls:
  7166 ;;		_I2C2_DO_IDLE
  7167 ;;		_I2C2_MasterSendNack@i2c2_master$F3141
  7168 ;;		_I2C2_MasterStop@i2c2_master$F3126
  7169 ;; This function is called by:
  7170 ;;		_I2C2_MasterFsm
  7171 ;;		i2_I2C2_MasterFsm
  7172 ;; This function uses a non-reentrant model
  7173 ;;
  7174                           
  7175                           	psect	text60
  7176  00194E                     __ptext60:
  7177                           	callstack 0
  7178  00194E                     _I2C2_DO_RX_NACK_STOP:
  7179                           	callstack 0
  7180                           
  7181                           ;Skip over the trampoline to the duplicate function for level 2
  7182  00194E  AED3               	btfss	211,7,c
  7183  001950  EFAC  F00C         	goto	_I2C2_DO_RX_NACK_STOP$intlevel1
  7184  001954  EFD2  F00D         	goto	i2_I2C2_DO_RX_NACK_STOP
  7185  001958                     _I2C2_DO_RX_NACK_STOP$intlevel1:
  7186                           	callstack 13
  7187  001958                     
  7188                           ;../modbus/i2c2_master.c: 485:     I2C2_MasterSendNack();
  7189  001958  EC5D  F00E         	call	_I2C2_MasterSendNack@i2c2_master$F3141	;wreg free
  7190                           
  7191                           ;../modbus/i2c2_master.c: 486:     I2C2_MasterStop();
  7192  00195C  EC5A  F00E         	call	_I2C2_MasterStop@i2c2_master$F3126	;wreg free
  7193  001960                     
  7194                           ;../modbus/i2c2_master.c: 487:     return I2C2_DO_IDLE();
  7195  001960  ECD5  F00C         	call	_I2C2_DO_IDLE	;wreg free
  7196  001964  0012               	return		;funcret
  7197  001966                     __end_of_I2C2_DO_RX_NACK_STOP:
  7198                           	callstack 0
  7199                           
  7200 ;; *************** function _I2C2_DO_RX_ACK *****************
  7201 ;; Defined at:
  7202 ;;		line 474 in file "../modbus/i2c2_master.c"
  7203 ;; Parameters:    Size  Location     Type
  7204 ;;		None
  7205 ;; Auto vars:     Size  Location     Type
  7206 ;;		None
  7207 ;; Return value:  Size  Location     Type
  7208 ;;                  1    wreg      enum E16535
  7209 ;; Registers used:
  7210 ;;		wreg, cstack
  7211 ;; Tracked objects:
  7212 ;;		On entry : 0/0
  7213 ;;		On exit  : 0/0
  7214 ;;		Unchanged: 0/0
  7215 ;; Data sizes:     COMRAM   BANK0   BANK1   BANK2   BANK3   BANK4   BANK5   BANK6   BANK7
  7216 ;;      Params:         0       0       0       0       0       0       0       0       0
  7217 ;;      Locals:         0       0       0       0       0       0       0       0       0
  7218 ;;      Temps:          0       0       0       0       0       0       0       0       0
  7219 ;;      Totals:         0       0       0       0       0       0       0       0       0
  7220 ;;Total ram usage:        0 bytes
  7221 ;; Hardware stack levels used: 1
  7222 ;; Hardware stack levels required when called: 9
  7223 ;; This function calls:
  7224 ;;		_I2C2_MasterSendAck@i2c2_master$F3136
  7225 ;; This function is called by:
  7226 ;;		_I2C2_MasterFsm
  7227 ;;		i2_I2C2_MasterFsm
  7228 ;; This function uses a non-reentrant model
  7229 ;;
  7230                           
  7231                           	psect	text61
  7232  001B18                     __ptext61:
  7233                           	callstack 0
  7234  001B18                     _I2C2_DO_RX_ACK:
  7235                           	callstack 0
  7236                           
  7237                           ;Skip over the trampoline to the duplicate function for level 2
  7238  001B18  AED3               	btfss	211,7,c
  7239  001B1A  EF91  F00D         	goto	_I2C2_DO_RX_ACK$intlevel1
  7240  001B1E  EF4B  F00E         	goto	i2_I2C2_DO_RX_ACK
  7241  001B22                     _I2C2_DO_RX_ACK$intlevel1:
  7242                           	callstack 13
  7243  001B22                     
  7244                           ;../modbus/i2c2_master.c: 475:     I2C2_MasterSendAck();
  7245  001B22  EC60  F00E         	call	_I2C2_MasterSendAck@i2c2_master$F3136	;wreg free
  7246  001B26                     
  7247                           ;../modbus/i2c2_master.c: 476:     return I2C2_RX;
  7248  001B26  0E04               	movlw	4
  7249  001B28  0012               	return		;funcret
  7250  001B2A                     __end_of_I2C2_DO_RX_ACK:
  7251                           	callstack 0
  7252                           
  7253 ;; *************** function _I2C2_DO_SEND_STOP *****************
  7254 ;; Defined at:
  7255 ;;		line 465 in file "../modbus/i2c2_master.c"
  7256 ;; Parameters:    Size  Location     Type
  7257 ;;		None
  7258 ;; Auto vars:     Size  Location     Type
  7259 ;;		None
  7260 ;; Return value:  Size  Location     Type
  7261 ;;                  1    wreg      enum E16535
  7262 ;; Registers used:
  7263 ;;		wreg, status,2, cstack
  7264 ;; Tracked objects:
  7265 ;;		On entry : 0/0
  7266 ;;		On exit  : 0/0
  7267 ;;		Unchanged: 0/0
  7268 ;; Data sizes:     COMRAM   BANK0   BANK1   BANK2   BANK3   BANK4   BANK5   BANK6   BANK7
  7269 ;;      Params:         0       0       0       0       0       0       0       0       0
  7270 ;;      Locals:         0       0       0       0       0       0       0       0       0
  7271 ;;      Temps:          0       0       0       0       0       0       0       0       0
  7272 ;;      Totals:         0       0       0       0       0       0       0       0       0
  7273 ;;Total ram usage:        0 bytes
  7274 ;; Hardware stack levels used: 1
  7275 ;; Hardware stack levels required when called: 9
  7276 ;; This function calls:
  7277 ;;		_I2C2_MasterGetCounter
  7278 ;;		_I2C2_MasterSendTxData@i2c2_master$F3095
  7279 ;;		_I2C2_MasterSetCounter
  7280 ;;		_I2C2_MasterStop@i2c2_master$F3126
  7281 ;; This function is called by:
  7282 ;;		_I2C2_MasterFsm
  7283 ;;		i2_I2C2_MasterFsm
  7284 ;; This function uses a non-reentrant model
  7285 ;;
  7286                           
  7287                           	psect	text62
  7288  001694                     __ptext62:
  7289                           	callstack 0
  7290  001694                     _I2C2_DO_SEND_STOP:
  7291                           	callstack 0
  7292                           
  7293                           ;Skip over the trampoline to the duplicate function for level 2
  7294  001694  AED3               	btfss	211,7,c
  7295  001696  EF4F  F00B         	goto	_I2C2_DO_SEND_STOP$intlevel1
  7296  00169A  EFBC  F00B         	goto	i2_I2C2_DO_SEND_STOP
  7297  00169E                     _I2C2_DO_SEND_STOP$intlevel1:
  7298                           	callstack 13
  7299  00169E                     
  7300                           ;../modbus/i2c2_master.c: 466:     I2C2_MasterStop();
  7301  00169E  EC5A  F00E         	call	_I2C2_MasterStop@i2c2_master$F3126	;wreg free
  7302  0016A2                     
  7303                           ;../modbus/i2c2_master.c: 467:     if (I2C2_MasterGetCounter()) {
  7304  0016A2  EC57  F00E         	call	_I2C2_MasterGetCounter	;wreg free
  7305  0016A6  0900               	iorlw	0
  7306  0016A8  B4D8               	btfsc	status,2,c
  7307  0016AA  EF59  F00B         	goto	i1u240_21
  7308  0016AE  EF5B  F00B         	goto	i1u240_20
  7309  0016B2                     i1u240_21:
  7310  0016B2  EF61  F00B         	goto	i1l5631
  7311  0016B6                     i1u240_20:
  7312  0016B6                     
  7313                           ;../modbus/i2c2_master.c: 468:         I2C2_MasterSetCounter(0);
  7314  0016B6  0E00               	movlw	0
  7315  0016B8  EC1D  F00E         	call	_I2C2_MasterSetCounter
  7316                           
  7317                           ;../modbus/i2c2_master.c: 469:         I2C2_MasterSendTxData(0);
  7318  0016BC  0E00               	movlw	0
  7319  0016BE  EC18  F00E         	call	_I2C2_MasterSendTxData@i2c2_master$F3095
  7320  0016C2                     i1l5631:
  7321                           
  7322                           ;../modbus/i2c2_master.c: 471:     return I2C2_IDLE;
  7323  0016C2  0E00               	movlw	0
  7324  0016C4  0012               	return		;funcret
  7325  0016C6                     __end_of_I2C2_DO_SEND_STOP:
  7326                           	callstack 0
  7327                           
  7328 ;; *************** function _I2C2_DO_SEND_RESTART *****************
  7329 ;; Defined at:
  7330 ;;		line 461 in file "../modbus/i2c2_master.c"
  7331 ;; Parameters:    Size  Location     Type
  7332 ;;		None
  7333 ;; Auto vars:     Size  Location     Type
  7334 ;;		None
  7335 ;; Return value:  Size  Location     Type
  7336 ;;                  1    wreg      enum E16535
  7337 ;; Registers used:
  7338 ;;		wreg
  7339 ;; Tracked objects:
  7340 ;;		On entry : 0/0
  7341 ;;		On exit  : 0/0
  7342 ;;		Unchanged: 0/0
  7343 ;; Data sizes:     COMRAM   BANK0   BANK1   BANK2   BANK3   BANK4   BANK5   BANK6   BANK7
  7344 ;;      Params:         0       0       0       0       0       0       0       0       0
  7345 ;;      Locals:         0       0       0       0       0       0       0       0       0
  7346 ;;      Temps:          0       0       0       0       0       0       0       0       0
  7347 ;;      Totals:         0       0       0       0       0       0       0       0       0
  7348 ;;Total ram usage:        0 bytes
  7349 ;; Hardware stack levels used: 1
  7350 ;; Hardware stack levels required when called: 8
  7351 ;; This function calls:
  7352 ;;		Nothing
  7353 ;; This function is called by:
  7354 ;;		_I2C2_DO_ADDRESS_NACK
  7355 ;;		_I2C2_MasterFsm
  7356 ;;		i2_I2C2_MasterFsm
  7357 ;; This function uses a non-reentrant model
  7358 ;;
  7359                           
  7360                           	psect	text63
  7361  001B6C                     __ptext63:
  7362                           	callstack 0
  7363  001B6C                     _I2C2_DO_SEND_RESTART:
  7364                           	callstack 0
  7365                           
  7366                           ;Skip over the trampoline to the duplicate function for level 2
  7367  001B6C  AED3               	btfss	211,7,c
  7368  001B6E  EFBB  F00D         	goto	_I2C2_DO_SEND_RESTART$intlevel1
  7369  001B72  EF96  F00E         	goto	i2_I2C2_DO_SEND_RESTART
  7370  001B76                     _I2C2_DO_SEND_RESTART$intlevel1:
  7371                           	callstack 14
  7372  001B76                     
  7373                           ;../modbus/i2c2_master.c: 462:     return I2C2_SEND_ADR_READ;
  7374  001B76  0E01               	movlw	1
  7375  001B78  0012               	return		;funcret
  7376  001B7A                     __end_of_I2C2_DO_SEND_RESTART:
  7377                           	callstack 0
  7378                           
  7379 ;; *************** function _I2C2_DO_SEND_RESTART_WRITE *****************
  7380 ;; Defined at:
  7381 ;;		line 457 in file "../modbus/i2c2_master.c"
  7382 ;; Parameters:    Size  Location     Type
  7383 ;;		None
  7384 ;; Auto vars:     Size  Location     Type
  7385 ;;		None
  7386 ;; Return value:  Size  Location     Type
  7387 ;;                  1    wreg      enum E16535
  7388 ;; Registers used:
  7389 ;;		wreg
  7390 ;; Tracked objects:
  7391 ;;		On entry : 0/0
  7392 ;;		On exit  : 0/0
  7393 ;;		Unchanged: 0/0
  7394 ;; Data sizes:     COMRAM   BANK0   BANK1   BANK2   BANK3   BANK4   BANK5   BANK6   BANK7
  7395 ;;      Params:         0       0       0       0       0       0       0       0       0
  7396 ;;      Locals:         0       0       0       0       0       0       0       0       0
  7397 ;;      Temps:          0       0       0       0       0       0       0       0       0
  7398 ;;      Totals:         0       0       0       0       0       0       0       0       0
  7399 ;;Total ram usage:        0 bytes
  7400 ;; Hardware stack levels used: 1
  7401 ;; Hardware stack levels required when called: 8
  7402 ;; This function calls:
  7403 ;;		Nothing
  7404 ;; This function is called by:
  7405 ;;		_I2C2_DO_TX
  7406 ;;		_I2C2_DO_BUS_COLLISION
  7407 ;;		_I2C2_MasterFsm
  7408 ;;		i2_I2C2_MasterFsm
  7409 ;; This function uses a non-reentrant model
  7410 ;;
  7411                           
  7412                           	psect	text64
  7413  001B7A                     __ptext64:
  7414                           	callstack 0
  7415  001B7A                     _I2C2_DO_SEND_RESTART_WRITE:
  7416                           	callstack 0
  7417                           
  7418                           ;Skip over the trampoline to the duplicate function for level 2
  7419  001B7A  AED3               	btfss	211,7,c
  7420  001B7C  EFC2  F00D         	goto	_I2C2_DO_SEND_RESTART_WRITE$intlevel1
  7421  001B80  EF98  F00E         	goto	i2_I2C2_DO_SEND_RESTART_WRITE
  7422  001B84                     _I2C2_DO_SEND_RESTART_WRITE$intlevel1:
  7423                           	callstack 13
  7424  001B84                     
  7425                           ;../modbus/i2c2_master.c: 458:     return I2C2_SEND_ADR_WRITE;
  7426  001B84  0E02               	movlw	2
  7427  001B86  0012               	return		;funcret
  7428  001B88                     __end_of_I2C2_DO_SEND_RESTART_WRITE:
  7429                           	callstack 0
  7430                           
  7431 ;; *************** function _I2C2_DO_SEND_RESTART_READ *****************
  7432 ;; Defined at:
  7433 ;;		line 452 in file "../modbus/i2c2_master.c"
  7434 ;; Parameters:    Size  Location     Type
  7435 ;;		None
  7436 ;; Auto vars:     Size  Location     Type
  7437 ;;		None
  7438 ;; Return value:  Size  Location     Type
  7439 ;;                  1    wreg      enum E16535
  7440 ;; Registers used:
  7441 ;;		wreg, status,2, status,0, pclath, tosl, cstack
  7442 ;; Tracked objects:
  7443 ;;		On entry : 0/0
  7444 ;;		On exit  : 0/0
  7445 ;;		Unchanged: 0/0
  7446 ;; Data sizes:     COMRAM   BANK0   BANK1   BANK2   BANK3   BANK4   BANK5   BANK6   BANK7
  7447 ;;      Params:         0       0       0       0       0       0       0       0       0
  7448 ;;      Locals:         0       0       0       0       0       0       0       0       0
  7449 ;;      Temps:          0       0       0       0       0       0       0       0       0
  7450 ;;      Totals:         0       0       0       0       0       0       0       0       0
  7451 ;;Total ram usage:        0 bytes
  7452 ;; Hardware stack levels used: 1
  7453 ;; Hardware stack levels required when called: 11
  7454 ;; This function calls:
  7455 ;;		_I2C2_DO_SEND_ADR_READ
  7456 ;;		_I2C2_MasterSetCounter
  7457 ;; This function is called by:
  7458 ;;		_I2C2_DO_TX
  7459 ;;		_I2C2_DO_BUS_COLLISION
  7460 ;;		_I2C2_MasterFsm
  7461 ;;		i2_I2C2_MasterFsm
  7462 ;; This function uses a non-reentrant model
  7463 ;;
  7464                           
  7465                           	psect	text65
  7466  001966                     __ptext65:
  7467                           	callstack 0
  7468  001966                     _I2C2_DO_SEND_RESTART_READ:
  7469                           	callstack 0
  7470                           
  7471                           ;Skip over the trampoline to the duplicate function for level 2
  7472  001966  AED3               	btfss	211,7,c
  7473  001968  EFB8  F00C         	goto	_I2C2_DO_SEND_RESTART_READ$intlevel1
  7474  00196C  EFD9  F00D         	goto	i2_I2C2_DO_SEND_RESTART_READ
  7475  001970                     _I2C2_DO_SEND_RESTART_READ$intlevel1:
  7476                           	callstack 10
  7477  001970                     
  7478                           ;../modbus/i2c2_master.c: 453:     I2C2_MasterSetCounter((uint8_t) I2C2_Status.data_leng
      +                          th);
  7479  001970  0100               	movlb	0	; () banked
  7480  001972  517F               	movf	(_I2C2_Status+31)& (0+255),w,b
  7481  001974  EC1D  F00E         	call	_I2C2_MasterSetCounter
  7482  001978                     
  7483                           ;../modbus/i2c2_master.c: 454:     return I2C2_DO_SEND_ADR_READ();
  7484  001978  ECFA  F00A         	call	_I2C2_DO_SEND_ADR_READ	;wreg free
  7485  00197C  0012               	return		;funcret
  7486  00197E                     __end_of_I2C2_DO_SEND_RESTART_READ:
  7487                           	callstack 0
  7488                           
  7489 ;; *************** function _I2C2_DO_RX_EMPTY *****************
  7490 ;; Defined at:
  7491 ;;		line 430 in file "../modbus/i2c2_master.c"
  7492 ;; Parameters:    Size  Location     Type
  7493 ;;		None
  7494 ;; Auto vars:     Size  Location     Type
  7495 ;;		None
  7496 ;; Return value:  Size  Location     Type
  7497 ;;                  1    wreg      enum E16535
  7498 ;; Registers used:
  7499 ;;		wreg, status,2, status,0, pclath, tosl, cstack
  7500 ;; Tracked objects:
  7501 ;;		On entry : 0/0
  7502 ;;		On exit  : 0/0
  7503 ;;		Unchanged: 0/0
  7504 ;; Data sizes:     COMRAM   BANK0   BANK1   BANK2   BANK3   BANK4   BANK5   BANK6   BANK7
  7505 ;;      Params:         0       0       0       0       0       0       0       0       0
  7506 ;;      Locals:         0       0       0       0       0       0       0       0       0
  7507 ;;      Temps:          2       0       0       0       0       0       0       0       0
  7508 ;;      Totals:         2       0       0       0       0       0       0       0       0
  7509 ;;Total ram usage:        2 bytes
  7510 ;; Hardware stack levels used: 1
  7511 ;; Hardware stack levels required when called: 9
  7512 ;; This function calls:
  7513 ;;		Absolute function
  7514 ;;		_I2C2_CallbackReturnReset
  7515 ;;		_I2C2_CallbackReturnStop
  7516 ;;		_I2C2_MasterDisableRestart
  7517 ;;		_I2C2_MasterEnableRestart@i2c2_master$F3116
  7518 ;;		_I2C2_MasterSetCounter
  7519 ;; This function is called by:
  7520 ;;		_I2C2_DO_SEND_ADR_READ
  7521 ;;		_I2C2_DO_RX
  7522 ;;		_I2C2_MasterFsm
  7523 ;;		i2_I2C2_MasterFsm
  7524 ;; This function uses a non-reentrant model
  7525 ;;
  7526                           
  7527                           	psect	text66
  7528  00087A                     __ptext66:
  7529                           	callstack 0
  7530  00087A                     _I2C2_DO_RX_EMPTY:
  7531                           	callstack 0
  7532                           
  7533                           ;Skip over the trampoline to the duplicate function for level 2
  7534  00087A  AED3               	btfss	211,7,c
  7535  00087C  EF42  F004         	goto	_I2C2_DO_RX_EMPTY$intlevel1
  7536  000880  EFE8  F004         	goto	i2_I2C2_DO_RX_EMPTY
  7537  000884                     _I2C2_DO_RX_EMPTY$intlevel1:
  7538                           	callstack 10
  7539  000884                     
  7540                           ;../modbus/i2c2_master.c: 431:     I2C2_Status.bufferFree = 1;
  7541  000884  0100               	movlb	0	; () banked
  7542  000886  8983               	bsf	(_I2C2_Status+35)& (0+255),4,b
  7543                           
  7544                           ;../modbus/i2c2_master.c: 432:     switch (I2C2_Status.callbackTable[I2C2_DATA_COMPLETE]
      +                          (I2C2_Status.callbackPayload[I2C2_DATA_COMPLETE])) {
  7545  000888  EF66  F004         	goto	i1l5067
  7546  00088C                     i1l5039:
  7547                           
  7548                           ;../modbus/i2c2_master.c: 434:             I2C2_MasterEnableRestart();
  7549  00088C  EC66  F00E         	call	_I2C2_MasterEnableRestart@i2c2_master$F3116	;wreg free
  7550  000890                     
  7551                           ;../modbus/i2c2_master.c: 435:             return I2C2_SEND_RESTART_WRITE;
  7552  000890  0E08               	movlw	8
  7553  000892  EF93  F004         	goto	i1l1737
  7554  000896                     i1l5045:
  7555                           
  7556                           ;../modbus/i2c2_master.c: 437:             I2C2_MasterEnableRestart();
  7557  000896  EC66  F00E         	call	_I2C2_MasterEnableRestart@i2c2_master$F3116	;wreg free
  7558  00089A                     
  7559                           ;../modbus/i2c2_master.c: 438:             return I2C2_SEND_RESTART_READ;
  7560  00089A  0E07               	movlw	7
  7561  00089C  EF93  F004         	goto	i1l1737
  7562  0008A0                     i1l5051:
  7563                           
  7564                           ;../modbus/i2c2_master.c: 441:             I2C2_MasterSetCounter((uint8_t) I2C2_Status.d
      +                          ata_length + 1);
  7565  0008A0  0100               	movlb	0	; () banked
  7566  0008A2  297F               	incf	(_I2C2_Status+31)& (0+255),w,b
  7567  0008A4  EC1D  F00E         	call	_I2C2_MasterSetCounter
  7568  0008A8                     
  7569                           ;../modbus/i2c2_master.c: 442:             return I2C2_RX;
  7570  0008A8  0E04               	movlw	4
  7571  0008AA  EF93  F004         	goto	i1l1737
  7572  0008AE                     i1l5057:
  7573                           
  7574                           ;../modbus/i2c2_master.c: 445:             if (I2C2_Status.state != I2C2_SEND_RESTART_RE
      +                          AD) {
  7575  0008AE  0E07               	movlw	7
  7576  0008B0  0100               	movlb	0	; () banked
  7577  0008B2  1981               	xorwf	(_I2C2_Status+33)& (0+255),w,b
  7578  0008B4  B4D8               	btfsc	status,2,c
  7579  0008B6  EF5F  F004         	goto	i1u186_21
  7580  0008BA  EF61  F004         	goto	i1u186_20
  7581  0008BE                     i1u186_21:
  7582  0008BE  EF63  F004         	goto	i1l5061
  7583  0008C2                     i1u186_20:
  7584  0008C2                     
  7585                           ; BSR set to: 0
  7586                           ;../modbus/i2c2_master.c: 446:                 I2C2_MasterDisableRestart();
  7587  0008C2  EC69  F00E         	call	_I2C2_MasterDisableRestart	;wreg free
  7588  0008C6                     i1l5061:
  7589                           
  7590                           ;../modbus/i2c2_master.c: 448:             return I2C2_RESET;
  7591  0008C6  0E0F               	movlw	15
  7592  0008C8  EF93  F004         	goto	i1l1737
  7593  0008CC                     i1l5067:
  7594                           
  7595                           ; BSR set to: 0
  7596  0008CC  C06C  F03C         	movff	_I2C2_Status+12,I2C2_CallbackReturnReset@funPtr
  7597  0008D0  C06D  F03D         	movff	_I2C2_Status+13,I2C2_CallbackReturnReset@funPtr+1
  7598  0008D4  D802               	call	i1u187_28
  7599  0008D6  EF77  F004         	goto	i1u187_29
  7600  0008DA                     i1u187_28:
  7601  0008DA  0005               	push	
  7602  0008DC  6EFA               	movwf	pclath,c
  7603  0008DE  5160               	movf	_I2C2_Status& (0+255),w,b
  7604  0008E0  6EFD               	movwf	tosl,c
  7605  0008E2  5161               	movf	(_I2C2_Status+1)& (0+255),w,b
  7606  0008E4  6EFE               	movwf	tosh,c
  7607  0008E6  50F8               	movf	tblptru,w,c
  7608  0008E8  6EFF               	movwf	tosu,c
  7609  0008EA  50FA               	movf	pclath,w,c
  7610  0008EC  0012               	return		;indir
  7611  0008EE                     i1u187_29:
  7612  0008EE  6E3E               	movwf	??_I2C2_DO_RX_EMPTY^0,c
  7613  0008F0  6A3F               	clrf	(??_I2C2_DO_RX_EMPTY+1)^0,c
  7614                           
  7615                           ; Switch on 2 bytes has been partitioned into a top level switch of size 1, and 1 sub-sw
      +                          itches
  7616                           ; Switch size 1, requested type "simple"
  7617                           ; Number of cases is 1, Range of values is 0 to 0
  7618                           ; switch strategies available:
  7619                           ; Name         Instructions Cycles
  7620                           ; simple_byte            4     3 (average)
  7621                           ;	Chosen strategy is simple_byte
  7622  0008F2  503F               	movf	(??_I2C2_DO_RX_EMPTY+1)^0,w,c
  7623  0008F4  0A00               	xorlw	0	; case 0
  7624  0008F6  B4D8               	btfsc	status,2,c
  7625  0008F8  EF80  F004         	goto	i1l8175
  7626  0008FC  EF57  F004         	goto	i1l5057
  7627  000900                     i1l8175:
  7628                           
  7629                           ; Switch size 1, requested type "simple"
  7630                           ; Number of cases is 4, Range of values is 1 to 4
  7631                           ; switch strategies available:
  7632                           ; Name         Instructions Cycles
  7633                           ; simple_byte           13     7 (average)
  7634                           ;	Chosen strategy is simple_byte
  7635  000900  503E               	movf	??_I2C2_DO_RX_EMPTY^0,w,c
  7636  000902  0A01               	xorlw	1	; case 1
  7637  000904  B4D8               	btfsc	status,2,c
  7638  000906  EF57  F004         	goto	i1l5057
  7639  00090A  0A03               	xorlw	3	; case 2
  7640  00090C  B4D8               	btfsc	status,2,c
  7641  00090E  EF4B  F004         	goto	i1l5045
  7642  000912  0A01               	xorlw	1	; case 3
  7643  000914  B4D8               	btfsc	status,2,c
  7644  000916  EF46  F004         	goto	i1l5039
  7645  00091A  0A07               	xorlw	7	; case 4
  7646  00091C  B4D8               	btfsc	status,2,c
  7647  00091E  EF50  F004         	goto	i1l5051
  7648  000922  EF57  F004         	goto	i1l5057
  7649  000926                     i1l1737:
  7650  000926  0012               	return		;funcret
  7651  000928                     __end_of_I2C2_DO_RX_EMPTY:
  7652                           	callstack 0
  7653                           
  7654 ;; *************** function _I2C2_DO_TX_EMPTY *****************
  7655 ;; Defined at:
  7656 ;;		line 413 in file "../modbus/i2c2_master.c"
  7657 ;; Parameters:    Size  Location     Type
  7658 ;;		None
  7659 ;; Auto vars:     Size  Location     Type
  7660 ;;		None
  7661 ;; Return value:  Size  Location     Type
  7662 ;;                  1    wreg      enum E16535
  7663 ;; Registers used:
  7664 ;;		wreg, status,2, status,0, pclath, tosl, cstack
  7665 ;; Tracked objects:
  7666 ;;		On entry : 0/0
  7667 ;;		On exit  : 0/0
  7668 ;;		Unchanged: 0/0
  7669 ;; Data sizes:     COMRAM   BANK0   BANK1   BANK2   BANK3   BANK4   BANK5   BANK6   BANK7
  7670 ;;      Params:         0       0       0       0       0       0       0       0       0
  7671 ;;      Locals:         0       0       0       0       0       0       0       0       0
  7672 ;;      Temps:          2       0       0       0       0       0       0       0       0
  7673 ;;      Totals:         2       0       0       0       0       0       0       0       0
  7674 ;;Total ram usage:        2 bytes
  7675 ;; Hardware stack levels used: 1
  7676 ;; Hardware stack levels required when called: 9
  7677 ;; This function calls:
  7678 ;;		Absolute function
  7679 ;;		_I2C2_CallbackReturnReset
  7680 ;;		_I2C2_CallbackReturnStop
  7681 ;;		_I2C2_MasterDisableRestart
  7682 ;;		_I2C2_MasterEnableRestart@i2c2_master$F3116
  7683 ;;		_I2C2_MasterSetCounter
  7684 ;; This function is called by:
  7685 ;;		_I2C2_DO_TX
  7686 ;;		_I2C2_MasterFsm
  7687 ;;		i2_I2C2_MasterFsm
  7688 ;; This function uses a non-reentrant model
  7689 ;;
  7690                           
  7691                           	psect	text67
  7692  000BA2                     __ptext67:
  7693                           	callstack 0
  7694  000BA2                     _I2C2_DO_TX_EMPTY:
  7695                           	callstack 0
  7696                           
  7697                           ;Skip over the trampoline to the duplicate function for level 2
  7698  000BA2  AED3               	btfss	211,7,c
  7699  000BA4  EFD6  F005         	goto	_I2C2_DO_TX_EMPTY$intlevel1
  7700  000BA8  EFD7  F006         	goto	i2_I2C2_DO_TX_EMPTY
  7701  000BAC                     _I2C2_DO_TX_EMPTY$intlevel1:
  7702                           	callstack 13
  7703  000BAC                     
  7704                           ;../modbus/i2c2_master.c: 414:     I2C2_Status.bufferFree = 1;
  7705  000BAC  0100               	movlb	0	; () banked
  7706  000BAE  8983               	bsf	(_I2C2_Status+35)& (0+255),4,b
  7707                           
  7708                           ;../modbus/i2c2_master.c: 415:     switch (I2C2_Status.callbackTable[I2C2_DATA_COMPLETE]
      +                          (I2C2_Status.callbackPayload[I2C2_DATA_COMPLETE])) {
  7709  000BB0  EFEB  F005         	goto	i1l5233
  7710  000BB4                     i1l5213:
  7711                           
  7712                           ;../modbus/i2c2_master.c: 417:             I2C2_MasterEnableRestart();
  7713  000BB4  EC66  F00E         	call	_I2C2_MasterEnableRestart@i2c2_master$F3116	;wreg free
  7714  000BB8                     
  7715                           ;../modbus/i2c2_master.c: 418:             return I2C2_SEND_RESTART_READ;
  7716  000BB8  0E07               	movlw	7
  7717  000BBA  EF14  F006         	goto	i1l1728
  7718  000BBE                     i1l5219:
  7719                           
  7720                           ;../modbus/i2c2_master.c: 421:             I2C2_MasterSetCounter((uint8_t) (I2C2_Status.
      +                          data_length + 1));
  7721  000BBE  0100               	movlb	0	; () banked
  7722  000BC0  297F               	incf	(_I2C2_Status+31)& (0+255),w,b
  7723  000BC2  EC1D  F00E         	call	_I2C2_MasterSetCounter
  7724  000BC6                     
  7725                           ;../modbus/i2c2_master.c: 422:             return I2C2_TX;
  7726  000BC6  0E03               	movlw	3
  7727  000BC8  EF14  F006         	goto	i1l1728
  7728  000BCC                     i1l5225:
  7729                           
  7730                           ;../modbus/i2c2_master.c: 425:             I2C2_MasterDisableRestart();
  7731  000BCC  EC69  F00E         	call	_I2C2_MasterDisableRestart	;wreg free
  7732  000BD0                     
  7733                           ;../modbus/i2c2_master.c: 426:             return I2C2_SEND_STOP;
  7734  000BD0  0E0A               	movlw	10
  7735  000BD2  EF14  F006         	goto	i1l1728
  7736  000BD6                     i1l5233:
  7737                           
  7738                           ; BSR set to: 0
  7739  000BD6  C06C  F03C         	movff	_I2C2_Status+12,I2C2_CallbackReturnReset@funPtr
  7740  000BDA  C06D  F03D         	movff	_I2C2_Status+13,I2C2_CallbackReturnReset@funPtr+1
  7741  000BDE  D802               	call	i1u203_28
  7742  000BE0  EFFC  F005         	goto	i1u203_29
  7743  000BE4                     i1u203_28:
  7744  000BE4  0005               	push	
  7745  000BE6  6EFA               	movwf	pclath,c
  7746  000BE8  5160               	movf	_I2C2_Status& (0+255),w,b
  7747  000BEA  6EFD               	movwf	tosl,c
  7748  000BEC  5161               	movf	(_I2C2_Status+1)& (0+255),w,b
  7749  000BEE  6EFE               	movwf	tosh,c
  7750  000BF0  50F8               	movf	tblptru,w,c
  7751  000BF2  6EFF               	movwf	tosu,c
  7752  000BF4  50FA               	movf	pclath,w,c
  7753  000BF6  0012               	return		;indir
  7754  000BF8                     i1u203_29:
  7755  000BF8  6E3E               	movwf	??_I2C2_DO_TX_EMPTY^0,c
  7756  000BFA  6A3F               	clrf	(??_I2C2_DO_TX_EMPTY+1)^0,c
  7757                           
  7758                           ; Switch on 2 bytes has been partitioned into a top level switch of size 1, and 1 sub-sw
      +                          itches
  7759                           ; Switch size 1, requested type "simple"
  7760                           ; Number of cases is 1, Range of values is 0 to 0
  7761                           ; switch strategies available:
  7762                           ; Name         Instructions Cycles
  7763                           ; simple_byte            4     3 (average)
  7764                           ;	Chosen strategy is simple_byte
  7765  000BFC  503F               	movf	(??_I2C2_DO_TX_EMPTY+1)^0,w,c
  7766  000BFE  0A00               	xorlw	0	; case 0
  7767  000C00  B4D8               	btfsc	status,2,c
  7768  000C02  EF05  F006         	goto	i1l8177
  7769  000C06  EFE6  F005         	goto	i1l5225
  7770  000C0A                     i1l8177:
  7771                           
  7772                           ; Switch size 1, requested type "simple"
  7773                           ; Number of cases is 3, Range of values is 1 to 4
  7774                           ; switch strategies available:
  7775                           ; Name         Instructions Cycles
  7776                           ; simple_byte           10     6 (average)
  7777                           ;	Chosen strategy is simple_byte
  7778  000C0A  503E               	movf	??_I2C2_DO_TX_EMPTY^0,w,c
  7779  000C0C  0A01               	xorlw	1	; case 1
  7780  000C0E  B4D8               	btfsc	status,2,c
  7781  000C10  EFE6  F005         	goto	i1l5225
  7782  000C14  0A03               	xorlw	3	; case 2
  7783  000C16  B4D8               	btfsc	status,2,c
  7784  000C18  EFDA  F005         	goto	i1l5213
  7785  000C1C  0A06               	xorlw	6	; case 4
  7786  000C1E  B4D8               	btfsc	status,2,c
  7787  000C20  EFDF  F005         	goto	i1l5219
  7788  000C24  EFE6  F005         	goto	i1l5225
  7789  000C28                     i1l1728:
  7790  000C28  0012               	return		;funcret
  7791  000C2A                     __end_of_I2C2_DO_TX_EMPTY:
  7792                           	callstack 0
  7793                           
  7794 ;; *************** function _I2C2_DO_RX *****************
  7795 ;; Defined at:
  7796 ;;		line 395 in file "../modbus/i2c2_master.c"
  7797 ;; Parameters:    Size  Location     Type
  7798 ;;		None
  7799 ;; Auto vars:     Size  Location     Type
  7800 ;;  retFsmState     1   18[COMRAM] enum E16535
  7801 ;; Return value:  Size  Location     Type
  7802 ;;                  1    wreg      enum E16535
  7803 ;; Registers used:
  7804 ;;		wreg, fsr2l, fsr2h, status,2, status,0, pclath, tosl, cstack
  7805 ;; Tracked objects:
  7806 ;;		On entry : 0/0
  7807 ;;		On exit  : 0/0
  7808 ;;		Unchanged: 0/0
  7809 ;; Data sizes:     COMRAM   BANK0   BANK1   BANK2   BANK3   BANK4   BANK5   BANK6   BANK7
  7810 ;;      Params:         0       0       0       0       0       0       0       0       0
  7811 ;;      Locals:         1       0       0       0       0       0       0       0       0
  7812 ;;      Temps:          2       0       0       0       0       0       0       0       0
  7813 ;;      Totals:         3       0       0       0       0       0       0       0       0
  7814 ;;Total ram usage:        3 bytes
  7815 ;; Hardware stack levels used: 1
  7816 ;; Hardware stack levels required when called: 10
  7817 ;; This function calls:
  7818 ;;		_I2C2_DO_RX_EMPTY
  7819 ;;		_I2C2_MasterGetRxData@i2c2_master$F3111
  7820 ;;		_I2C2_MasterIsRxBufFull
  7821 ;; This function is called by:
  7822 ;;		_I2C2_MasterFsm
  7823 ;;		i2_I2C2_MasterFsm
  7824 ;; This function uses a non-reentrant model
  7825 ;;
  7826                           
  7827                           	psect	text68
  7828  000928                     __ptext68:
  7829                           	callstack 0
  7830  000928                     _I2C2_DO_RX:
  7831                           	callstack 0
  7832                           
  7833                           ;Skip over the trampoline to the duplicate function for level 2
  7834  000928  AED3               	btfss	211,7,c
  7835  00092A  EF99  F004         	goto	_I2C2_DO_RX$intlevel1
  7836  00092E  EF3A  F005         	goto	i2_I2C2_DO_RX
  7837  000932                     _I2C2_DO_RX$intlevel1:
  7838                           	callstack 12
  7839  000932                     
  7840                           ;../modbus/i2c2_master.c: 396:     if (!I2C2_MasterIsRxBufFull()) {
  7841  000932  ECF6  F00C         	call	_I2C2_MasterIsRxBufFull	;wreg free
  7842  000936  0900               	iorlw	0
  7843  000938  A4D8               	btfss	status,2,c
  7844  00093A  EFA1  F004         	goto	i1u237_21
  7845  00093E  EFA3  F004         	goto	i1u237_20
  7846  000942                     i1u237_21:
  7847  000942  EFA6  F004         	goto	i1l5601
  7848  000946                     i1u237_20:
  7849  000946                     i1l5597:
  7850                           
  7851                           ;../modbus/i2c2_master.c: 397:         return I2C2_RX;
  7852  000946  0E04               	movlw	4
  7853  000948  EFE7  F004         	goto	i1l1720
  7854  00094C                     i1l5601:
  7855                           
  7856                           ;../modbus/i2c2_master.c: 399:     if (I2C2_Status.addressNackCheck) {
  7857  00094C  0100               	movlb	0	; () banked
  7858  00094E  5183               	movf	(_I2C2_Status+35)& (0+255),w,b
  7859  000950  0B03               	andlw	3
  7860  000952  0900               	iorlw	0
  7861  000954  B4D8               	btfsc	status,2,c
  7862  000956  EFAF  F004         	goto	i1u238_21
  7863  00095A  EFB1  F004         	goto	i1u238_20
  7864  00095E                     i1u238_21:
  7865  00095E  EFBD  F004         	goto	i1l1721
  7866  000962                     i1u238_20:
  7867  000962                     
  7868                           ; BSR set to: 0
  7869                           ;../modbus/i2c2_master.c: 400:         I2C2_Status.addressNackCheck--;
  7870  000962  0E01               	movlw	1
  7871  000964  6E40               	movwf	??_I2C2_DO_RX^0,c
  7872  000966  5183               	movf	(_I2C2_Status+35)& (0+255),w,b
  7873  000968  0B03               	andlw	3
  7874  00096A  6E41               	movwf	(??_I2C2_DO_RX+1)^0,c
  7875  00096C  5040               	movf	??_I2C2_DO_RX^0,w,c
  7876  00096E  5E41               	subwf	(??_I2C2_DO_RX+1)^0,f,c
  7877  000970  5183               	movf	(_I2C2_Status+35)& (0+255),w,b
  7878  000972  1841               	xorwf	(??_I2C2_DO_RX+1)^0,w,c
  7879  000974  0BFC               	andlw	-4
  7880  000976  1841               	xorwf	(??_I2C2_DO_RX+1)^0,w,c
  7881  000978  6F83               	movwf	(_I2C2_Status+35)& (0+255),b
  7882  00097A                     i1l1721:
  7883                           
  7884                           ; BSR set to: 0
  7885                           ;../modbus/i2c2_master.c: 403:     if (--I2C2_Status.data_length) {
  7886  00097A  077F               	decf	(_I2C2_Status+31)& (0+255),f,b
  7887  00097C  A0D8               	btfss	status,0,c
  7888  00097E  0780               	decf	(_I2C2_Status+32)& (0+255),f,b
  7889  000980  517F               	movf	(_I2C2_Status+31)& (0+255),w,b
  7890  000982  1180               	iorwf	(_I2C2_Status+32)& (0+255),w,b
  7891  000984  B4D8               	btfsc	status,2,c
  7892  000986  EFC7  F004         	goto	i1u239_21
  7893  00098A  EFC9  F004         	goto	i1u239_20
  7894  00098E                     i1u239_21:
  7895  00098E  EFD7  F004         	goto	i1l5615
  7896  000992                     i1u239_20:
  7897  000992                     
  7898                           ; BSR set to: 0
  7899                           ;../modbus/i2c2_master.c: 404:         *I2C2_Status.data_ptr++ = I2C2_MasterGetRxData();
  7900  000992  EC63  F00E         	call	_I2C2_MasterGetRxData@i2c2_master$F3111	;wreg free
  7901  000996  0060  F1F7  FFD9   	movff	_I2C2_Status+29,fsr2l
  7902  00099C  0060  F1FB  FFDA   	movff	_I2C2_Status+30,fsr2h
  7903  0009A2  6EDF               	movwf	indf2,c
  7904  0009A4  0100               	movlb	0	; () banked
  7905  0009A6  4B7D               	infsnz	(_I2C2_Status+29)& (0+255),f,b
  7906  0009A8  2B7E               	incf	(_I2C2_Status+30)& (0+255),f,b
  7907  0009AA  EFA3  F004         	goto	i1l5597
  7908  0009AE                     i1l5615:
  7909                           
  7910                           ; BSR set to: 0
  7911                           ;../modbus/i2c2_master.c: 407:         i2c2_fsm_states_t retFsmState = I2C2_DO_RX_EMPTY(
      +                          );
  7912  0009AE  EC3D  F004         	call	_I2C2_DO_RX_EMPTY	;wreg free
  7913  0009B2  6E42               	movwf	I2C2_DO_RX@retFsmState^0,c
  7914  0009B4                     
  7915                           ;../modbus/i2c2_master.c: 408:         *I2C2_Status.data_ptr++ = I2C2_MasterGetRxData();
  7916  0009B4  EC63  F00E         	call	_I2C2_MasterGetRxData@i2c2_master$F3111	;wreg free
  7917  0009B8  0060  F1F7  FFD9   	movff	_I2C2_Status+29,fsr2l
  7918  0009BE  0060  F1FB  FFDA   	movff	_I2C2_Status+30,fsr2h
  7919  0009C4  6EDF               	movwf	indf2,c
  7920  0009C6  0100               	movlb	0	; () banked
  7921  0009C8  4B7D               	infsnz	(_I2C2_Status+29)& (0+255),f,b
  7922  0009CA  2B7E               	incf	(_I2C2_Status+30)& (0+255),f,b
  7923  0009CC                     
  7924                           ; BSR set to: 0
  7925                           ;../modbus/i2c2_master.c: 409:         return retFsmState;
  7926  0009CC  5042               	movf	I2C2_DO_RX@retFsmState^0,w,c
  7927  0009CE                     i1l1720:
  7928  0009CE  0012               	return		;funcret
  7929  0009D0                     __end_of_I2C2_DO_RX:
  7930                           	callstack 0
  7931                           
  7932 ;; *************** function _I2C2_DO_TX *****************
  7933 ;; Defined at:
  7934 ;;		line 370 in file "../modbus/i2c2_master.c"
  7935 ;; Parameters:    Size  Location     Type
  7936 ;;		None
  7937 ;; Auto vars:     Size  Location     Type
  7938 ;;  retFsmState     1   19[COMRAM] enum E16535
  7939 ;;  dataTx          1   18[COMRAM] unsigned char 
  7940 ;; Return value:  Size  Location     Type
  7941 ;;                  1    wreg      enum E16535
  7942 ;; Registers used:
  7943 ;;		wreg, fsr2l, fsr2h, status,2, status,0, pclath, tosl, cstack
  7944 ;; Tracked objects:
  7945 ;;		On entry : 0/0
  7946 ;;		On exit  : 0/0
  7947 ;;		Unchanged: 0/0
  7948 ;; Data sizes:     COMRAM   BANK0   BANK1   BANK2   BANK3   BANK4   BANK5   BANK6   BANK7
  7949 ;;      Params:         0       0       0       0       0       0       0       0       0
  7950 ;;      Locals:         4       0       0       0       0       0       0       0       0
  7951 ;;      Temps:          2       0       0       0       0       0       0       0       0
  7952 ;;      Totals:         6       0       0       0       0       0       0       0       0
  7953 ;;Total ram usage:        6 bytes
  7954 ;; Hardware stack levels used: 1
  7955 ;; Hardware stack levels required when called: 12
  7956 ;; This function calls:
  7957 ;;		Absolute function
  7958 ;;		_I2C2_CallbackReturnReset
  7959 ;;		_I2C2_CallbackReturnStop
  7960 ;;		_I2C2_DO_SEND_RESTART_READ
  7961 ;;		_I2C2_DO_SEND_RESTART_WRITE
  7962 ;;		_I2C2_DO_TX_EMPTY
  7963 ;;		_I2C2_MasterIsNack
  7964 ;;		_I2C2_MasterIsTxBufEmpty
  7965 ;;		_I2C2_MasterSendTxData@i2c2_master$F3095
  7966 ;; This function is called by:
  7967 ;;		_I2C2_MasterFsm
  7968 ;;		i2_I2C2_MasterFsm
  7969 ;; This function uses a non-reentrant model
  7970 ;;
  7971                           
  7972                           	psect	text69
  7973  000020                     __ptext69:
  7974                           	callstack 0
  7975  000020                     _I2C2_DO_TX:
  7976                           	callstack 0
  7977                           
  7978                           ;Skip over the trampoline to the duplicate function for level 2
  7979  000020  AED3               	btfss	211,7,c
  7980  000022  EF15  F000         	goto	_I2C2_DO_TX$intlevel1
  7981  000026  EFA8  F000         	goto	i2_I2C2_DO_TX
  7982  00002A                     _I2C2_DO_TX$intlevel1:
  7983                           	callstack 10
  7984  00002A                     
  7985                           ;../modbus/i2c2_master.c: 371:     if (I2C2_MasterIsNack()) {
  7986  00002A  ECEB  F00C         	call	_I2C2_MasterIsNack	;wreg free
  7987  00002E  0900               	iorlw	0
  7988  000030  B4D8               	btfsc	status,2,c
  7989  000032  EF1D  F000         	goto	i1u232_21
  7990  000036  EF1F  F000         	goto	i1u232_20
  7991  00003A                     i1u232_21:
  7992  00003A  EF5B  F000         	goto	i1l5561
  7993  00003E                     i1u232_20:
  7994  00003E  EF2C  F000         	goto	i1l5559
  7995  000042                     i1l5545:
  7996                           
  7997                           ;../modbus/i2c2_master.c: 374:                 return I2C2_DO_SEND_RESTART_READ();
  7998  000042  ECB3  F00C         	call	_I2C2_DO_SEND_RESTART_READ	;wreg free
  7999  000046  EFA7  F000         	goto	i1l1703
  8000  00004A                     i1l5549:
  8001                           
  8002                           ;../modbus/i2c2_master.c: 376:                 return I2C2_DO_SEND_RESTART_WRITE();
  8003  00004A  ECBD  F00D         	call	_I2C2_DO_SEND_RESTART_WRITE	;wreg free
  8004  00004E  EFA7  F000         	goto	i1l1703
  8005  000052                     i1l5553:
  8006                           
  8007                           ;../modbus/i2c2_master.c: 380:                 return I2C2_IDLE;
  8008  000052  0E00               	movlw	0
  8009  000054  EFA7  F000         	goto	i1l1703
  8010  000058                     i1l5559:
  8011  000058  C072  F03C         	movff	_I2C2_Status+18,I2C2_CallbackReturnReset@funPtr
  8012  00005C  C073  F03D         	movff	_I2C2_Status+19,I2C2_CallbackReturnReset@funPtr+1
  8013  000060  EE20  F066         	lfsr	2,_I2C2_Status+6
  8014  000064  D802               	call	i1u233_28
  8015  000066  EF3F  F000         	goto	i1u233_29
  8016  00006A                     i1u233_28:
  8017  00006A  0005               	push	
  8018  00006C  6EFA               	movwf	pclath,c
  8019  00006E  50DE               	movf	postinc2,w,c
  8020  000070  6EFD               	movwf	tosl,c
  8021  000072  50DE               	movf	postinc2,w,c
  8022  000074  6EFE               	movwf	tosh,c
  8023  000076  50F8               	movf	tblptru,w,c
  8024  000078  6EFF               	movwf	tosu,c
  8025  00007A  50FA               	movf	pclath,w,c
  8026  00007C  0012               	return		;indir
  8027  00007E                     i1u233_29:
  8028  00007E  6E3E               	movwf	??_I2C2_DO_TX^0,c
  8029  000080  6A3F               	clrf	(??_I2C2_DO_TX+1)^0,c
  8030                           
  8031                           ; Switch on 2 bytes has been partitioned into a top level switch of size 1, and 1 sub-sw
      +                          itches
  8032                           ; Switch size 1, requested type "simple"
  8033                           ; Number of cases is 1, Range of values is 0 to 0
  8034                           ; switch strategies available:
  8035                           ; Name         Instructions Cycles
  8036                           ; simple_byte            4     3 (average)
  8037                           ;	Chosen strategy is simple_byte
  8038  000082  503F               	movf	(??_I2C2_DO_TX+1)^0,w,c
  8039  000084  0A00               	xorlw	0	; case 0
  8040  000086  B4D8               	btfsc	status,2,c
  8041  000088  EF48  F000         	goto	i1l8179
  8042  00008C  EF29  F000         	goto	i1l5553
  8043  000090                     i1l8179:
  8044                           
  8045                           ; Switch size 1, requested type "simple"
  8046                           ; Number of cases is 4, Range of values is 1 to 4
  8047                           ; switch strategies available:
  8048                           ; Name         Instructions Cycles
  8049                           ; simple_byte           13     7 (average)
  8050                           ;	Chosen strategy is simple_byte
  8051  000090  503E               	movf	??_I2C2_DO_TX^0,w,c
  8052  000092  0A01               	xorlw	1	; case 1
  8053  000094  B4D8               	btfsc	status,2,c
  8054  000096  EF29  F000         	goto	i1l5553
  8055  00009A  0A03               	xorlw	3	; case 2
  8056  00009C  B4D8               	btfsc	status,2,c
  8057  00009E  EF21  F000         	goto	i1l5545
  8058  0000A2  0A01               	xorlw	1	; case 3
  8059  0000A4  B4D8               	btfsc	status,2,c
  8060  0000A6  EF25  F000         	goto	i1l5549
  8061  0000AA  0A07               	xorlw	7	; case 4
  8062  0000AC  B4D8               	btfsc	status,2,c
  8063  0000AE  EF29  F000         	goto	i1l5553
  8064  0000B2  EF29  F000         	goto	i1l5553
  8065  0000B6                     i1l5561:
  8066  0000B6  ECE0  F00C         	call	_I2C2_MasterIsTxBufEmpty	;wreg free
  8067  0000BA  0900               	iorlw	0
  8068  0000BC  B4D8               	btfsc	status,2,c
  8069  0000BE  EF63  F000         	goto	i1u234_21
  8070  0000C2  EF65  F000         	goto	i1u234_20
  8071  0000C6                     i1u234_21:
  8072  0000C6  EFA6  F000         	goto	i1l5587
  8073  0000CA                     i1u234_20:
  8074  0000CA                     
  8075                           ;../modbus/i2c2_master.c: 383:         if (I2C2_Status.addressNackCheck) {
  8076  0000CA  0100               	movlb	0	; () banked
  8077  0000CC  5183               	movf	(_I2C2_Status+35)& (0+255),w,b
  8078  0000CE  0B03               	andlw	3
  8079  0000D0  0900               	iorlw	0
  8080  0000D2  B4D8               	btfsc	status,2,c
  8081  0000D4  EF6E  F000         	goto	i1u235_21
  8082  0000D8  EF70  F000         	goto	i1u235_20
  8083  0000DC                     i1u235_21:
  8084  0000DC  EF7C  F000         	goto	i1l5567
  8085  0000E0                     i1u235_20:
  8086  0000E0                     
  8087                           ; BSR set to: 0
  8088                           ;../modbus/i2c2_master.c: 384:             I2C2_Status.addressNackCheck--;
  8089  0000E0  0E01               	movlw	1
  8090  0000E2  6E3E               	movwf	??_I2C2_DO_TX^0,c
  8091  0000E4  5183               	movf	(_I2C2_Status+35)& (0+255),w,b
  8092  0000E6  0B03               	andlw	3
  8093  0000E8  6E3F               	movwf	(??_I2C2_DO_TX+1)^0,c
  8094  0000EA  503E               	movf	??_I2C2_DO_TX^0,w,c
  8095  0000EC  5E3F               	subwf	(??_I2C2_DO_TX+1)^0,f,c
  8096  0000EE  5183               	movf	(_I2C2_Status+35)& (0+255),w,b
  8097  0000F0  183F               	xorwf	(??_I2C2_DO_TX+1)^0,w,c
  8098  0000F2  0BFC               	andlw	-4
  8099  0000F4  183F               	xorwf	(??_I2C2_DO_TX+1)^0,w,c
  8100  0000F6  6F83               	movwf	(_I2C2_Status+35)& (0+255),b
  8101  0000F8                     i1l5567:
  8102                           
  8103                           ; BSR set to: 0
  8104                           ;../modbus/i2c2_master.c: 386:         uint8_t dataTx = *I2C2_Status.data_ptr++;
  8105  0000F8  0060  F1F7  FFD9   	movff	_I2C2_Status+29,fsr2l
  8106  0000FE  0060  F1FB  FFDA   	movff	_I2C2_Status+30,fsr2h
  8107  000104  50DF               	movf	indf2,w,c
  8108  000106  6E42               	movwf	I2C2_DO_TX@dataTx^0,c
  8109  000108                     
  8110                           ; BSR set to: 0
  8111  000108  4B7D               	infsnz	(_I2C2_Status+29)& (0+255),f,b
  8112  00010A  2B7E               	incf	(_I2C2_Status+30)& (0+255),f,b
  8113  00010C                     
  8114                           ; BSR set to: 0
  8115                           ;../modbus/i2c2_master.c: 387:         i2c2_fsm_states_t retFsmState = (--I2C2_Status.da
      +                          ta_length) ? I2C2_TX : I2C2_DO_TX_EMPTY();
  8116  00010C  077F               	decf	(_I2C2_Status+31)& (0+255),f,b
  8117  00010E  A0D8               	btfss	status,0,c
  8118  000110  0780               	decf	(_I2C2_Status+32)& (0+255),f,b
  8119  000112  517F               	movf	(_I2C2_Status+31)& (0+255),w,b
  8120  000114  1180               	iorwf	(_I2C2_Status+32)& (0+255),w,b
  8121  000116  A4D8               	btfss	status,2,c
  8122  000118  EF90  F000         	goto	i1u236_21
  8123  00011C  EF92  F000         	goto	i1u236_20
  8124  000120                     i1u236_21:
  8125  000120  EF9A  F000         	goto	i1l5575
  8126  000124                     i1u236_20:
  8127  000124                     
  8128                           ; BSR set to: 0
  8129  000124  ECD1  F005         	call	_I2C2_DO_TX_EMPTY	;wreg free
  8130  000128  6E3E               	movwf	??_I2C2_DO_TX^0,c
  8131  00012A  503E               	movf	??_I2C2_DO_TX^0,w,c
  8132  00012C  6E40               	movwf	_I2C2_DO_TX$3425^0,c
  8133  00012E  6A41               	clrf	(_I2C2_DO_TX$3425+1)^0,c
  8134  000130  EF9E  F000         	goto	i1l5577
  8135  000134                     i1l5575:
  8136                           
  8137                           ; BSR set to: 0
  8138  000134  0E00               	movlw	0
  8139  000136  6E41               	movwf	(_I2C2_DO_TX$3425+1)^0,c
  8140  000138  0E03               	movlw	3
  8141  00013A  6E40               	movwf	_I2C2_DO_TX$3425^0,c
  8142  00013C                     i1l5577:
  8143  00013C  C040  F043         	movff	_I2C2_DO_TX$3425,I2C2_DO_TX@retFsmState
  8144  000140                     
  8145                           ;../modbus/i2c2_master.c: 388:         I2C2_MasterSendTxData(dataTx);
  8146  000140  5042               	movf	I2C2_DO_TX@dataTx^0,w,c
  8147  000142  EC18  F00E         	call	_I2C2_MasterSendTxData@i2c2_master$F3095
  8148  000146                     
  8149                           ;../modbus/i2c2_master.c: 389:         return retFsmState;
  8150  000146  5043               	movf	I2C2_DO_TX@retFsmState^0,w,c
  8151  000148  EFA7  F000         	goto	i1l1703
  8152  00014C                     i1l5587:
  8153                           
  8154                           ;../modbus/i2c2_master.c: 391:         return I2C2_TX;
  8155  00014C  0E03               	movlw	3
  8156  00014E                     i1l1703:
  8157  00014E  0012               	return		;funcret
  8158  000150                     __end_of_I2C2_DO_TX:
  8159                           	callstack 0
  8160                           
  8161 ;; *************** function _I2C2_DO_SEND_ADR_WRITE *****************
  8162 ;; Defined at:
  8163 ;;		line 364 in file "../modbus/i2c2_master.c"
  8164 ;; Parameters:    Size  Location     Type
  8165 ;;		None
  8166 ;; Auto vars:     Size  Location     Type
  8167 ;;		None
  8168 ;; Return value:  Size  Location     Type
  8169 ;;                  1    wreg      enum E16535
  8170 ;; Registers used:
  8171 ;;		wreg, status,2, status,0, cstack
  8172 ;; Tracked objects:
  8173 ;;		On entry : 0/0
  8174 ;;		On exit  : 0/0
  8175 ;;		Unchanged: 0/0
  8176 ;; Data sizes:     COMRAM   BANK0   BANK1   BANK2   BANK3   BANK4   BANK5   BANK6   BANK7
  8177 ;;      Params:         0       0       0       0       0       0       0       0       0
  8178 ;;      Locals:         0       0       0       0       0       0       0       0       0
  8179 ;;      Temps:          0       0       0       0       0       0       0       0       0
  8180 ;;      Totals:         0       0       0       0       0       0       0       0       0
  8181 ;;Total ram usage:        0 bytes
  8182 ;; Hardware stack levels used: 1
  8183 ;; Hardware stack levels required when called: 9
  8184 ;; This function calls:
  8185 ;;		_I2C2_MasterSendTxData@i2c2_master$F3095
  8186 ;; This function is called by:
  8187 ;;		_I2C2_MasterOperation
  8188 ;;		_I2C2_MasterFsm
  8189 ;;		i2_I2C2_MasterFsm
  8190 ;; This function uses a non-reentrant model
  8191 ;;
  8192                           
  8193                           	psect	text70
  8194  001874                     __ptext70:
  8195                           	callstack 0
  8196  001874                     _I2C2_DO_SEND_ADR_WRITE:
  8197                           	callstack 0
  8198                           
  8199                           ;Skip over the trampoline to the duplicate function for level 2
  8200  001874  AED3               	btfss	211,7,c
  8201  001876  EF3F  F00C         	goto	_I2C2_DO_SEND_ADR_WRITE$intlevel1
  8202  00187A  EF22  F00D         	goto	i2_I2C2_DO_SEND_ADR_WRITE
  8203  00187E                     _I2C2_DO_SEND_ADR_WRITE$intlevel1:
  8204                           	callstack 13
  8205  00187E                     
  8206                           ;../modbus/i2c2_master.c: 365:     I2C2_Status.addressNackCheck = 2;
  8207  00187E  0100               	movlb	0	; () banked
  8208  001880  5183               	movf	(_I2C2_Status+35)& (0+255),w,b
  8209  001882  0BFC               	andlw	-4
  8210  001884  0902               	iorlw	2
  8211  001886  6F83               	movwf	(_I2C2_Status+35)& (0+255),b
  8212  001888                     
  8213                           ; BSR set to: 0
  8214                           ;../modbus/i2c2_master.c: 366:     I2C2_MasterSendTxData((uint8_t) (I2C2_Status.address 
      +                          << 1));
  8215  001888  517C               	movf	(_I2C2_Status+28)& (0+255),w,b
  8216  00188A  257C               	addwf	(_I2C2_Status+28)& (0+255),w,b
  8217  00188C  EC18  F00E         	call	_I2C2_MasterSendTxData@i2c2_master$F3095
  8218  001890                     
  8219                           ;../modbus/i2c2_master.c: 367:     return I2C2_TX;
  8220  001890  0E03               	movlw	3
  8221  001892  0012               	return		;funcret
  8222  001894                     __end_of_I2C2_DO_SEND_ADR_WRITE:
  8223                           	callstack 0
  8224                           
  8225 ;; *************** function _I2C2_DO_SEND_ADR_READ *****************
  8226 ;; Defined at:
  8227 ;;		line 355 in file "../modbus/i2c2_master.c"
  8228 ;; Parameters:    Size  Location     Type
  8229 ;;		None
  8230 ;; Auto vars:     Size  Location     Type
  8231 ;;		None
  8232 ;; Return value:  Size  Location     Type
  8233 ;;                  1    wreg      enum E16535
  8234 ;; Registers used:
  8235 ;;		wreg, status,2, status,0, pclath, tosl, cstack
  8236 ;; Tracked objects:
  8237 ;;		On entry : 0/0
  8238 ;;		On exit  : 0/0
  8239 ;;		Unchanged: 0/0
  8240 ;; Data sizes:     COMRAM   BANK0   BANK1   BANK2   BANK3   BANK4   BANK5   BANK6   BANK7
  8241 ;;      Params:         0       0       0       0       0       0       0       0       0
  8242 ;;      Locals:         0       0       0       0       0       0       0       0       0
  8243 ;;      Temps:          0       0       0       0       0       0       0       0       0
  8244 ;;      Totals:         0       0       0       0       0       0       0       0       0
  8245 ;;Total ram usage:        0 bytes
  8246 ;; Hardware stack levels used: 1
  8247 ;; Hardware stack levels required when called: 10
  8248 ;; This function calls:
  8249 ;;		_I2C2_DO_RX_EMPTY
  8250 ;;		_I2C2_MasterSendTxData@i2c2_master$F3095
  8251 ;; This function is called by:
  8252 ;;		_I2C2_DO_SEND_RESTART_READ
  8253 ;;		_I2C2_MasterOperation
  8254 ;;		_I2C2_MasterFsm
  8255 ;;		i2_I2C2_MasterFsm
  8256 ;; This function uses a non-reentrant model
  8257 ;;
  8258                           
  8259                           	psect	text71
  8260  0015F4                     __ptext71:
  8261                           	callstack 0
  8262  0015F4                     _I2C2_DO_SEND_ADR_READ:
  8263                           	callstack 0
  8264                           
  8265                           ;Skip over the trampoline to the duplicate function for level 2
  8266  0015F4  AED3               	btfss	211,7,c
  8267  0015F6  EFFF  F00A         	goto	_I2C2_DO_SEND_ADR_READ$intlevel1
  8268  0015FA  EF7C  F00B         	goto	i2_I2C2_DO_SEND_ADR_READ
  8269  0015FE                     _I2C2_DO_SEND_ADR_READ$intlevel1:
  8270                           	callstack 10
  8271  0015FE                     
  8272                           ;../modbus/i2c2_master.c: 356:     I2C2_Status.addressNackCheck = 2;
  8273  0015FE  0100               	movlb	0	; () banked
  8274  001600  5183               	movf	(_I2C2_Status+35)& (0+255),w,b
  8275  001602  0BFC               	andlw	-4
  8276  001604  0902               	iorlw	2
  8277  001606  6F83               	movwf	(_I2C2_Status+35)& (0+255),b
  8278  001608                     
  8279                           ; BSR set to: 0
  8280                           ;../modbus/i2c2_master.c: 357:     if (I2C2_Status.data_length == 1) {
  8281  001608  057F               	decf	(_I2C2_Status+31)& (0+255),w,b
  8282  00160A  1180               	iorwf	(_I2C2_Status+32)& (0+255),w,b
  8283  00160C  A4D8               	btfss	status,2,c
  8284  00160E  EF0B  F00B         	goto	i1u191_21
  8285  001612  EF0D  F00B         	goto	i1u191_20
  8286  001616                     i1u191_21:
  8287  001616  EF0F  F00B         	goto	i1l5123
  8288  00161A                     i1u191_20:
  8289  00161A                     
  8290                           ; BSR set to: 0
  8291                           ;../modbus/i2c2_master.c: 358:         I2C2_DO_RX_EMPTY();
  8292  00161A  EC3D  F004         	call	_I2C2_DO_RX_EMPTY	;wreg free
  8293  00161E                     i1l5123:
  8294                           
  8295                           ;../modbus/i2c2_master.c: 360:     I2C2_MasterSendTxData((uint8_t) (I2C2_Status.address 
      +                          << 1 | 1));
  8296  00161E  80D8               	bsf	status,0,c
  8297  001620  0100               	movlb	0	; () banked
  8298  001622  357C               	rlcf	(_I2C2_Status+28)& (0+255),w,b
  8299  001624  EC18  F00E         	call	_I2C2_MasterSendTxData@i2c2_master$F3095
  8300  001628                     
  8301                           ;../modbus/i2c2_master.c: 361:     return I2C2_RX;
  8302  001628  0E04               	movlw	4
  8303  00162A  0012               	return		;funcret
  8304  00162C                     __end_of_I2C2_DO_SEND_ADR_READ:
  8305                           	callstack 0
  8306                           
  8307 ;; *************** function _I2C2_DO_IDLE *****************
  8308 ;; Defined at:
  8309 ;;		line 349 in file "../modbus/i2c2_master.c"
  8310 ;; Parameters:    Size  Location     Type
  8311 ;;		None
  8312 ;; Auto vars:     Size  Location     Type
  8313 ;;		None
  8314 ;; Return value:  Size  Location     Type
  8315 ;;                  1    wreg      enum E16535
  8316 ;; Registers used:
  8317 ;;		wreg, status,2
  8318 ;; Tracked objects:
  8319 ;;		On entry : 0/0
  8320 ;;		On exit  : 0/0
  8321 ;;		Unchanged: 0/0
  8322 ;; Data sizes:     COMRAM   BANK0   BANK1   BANK2   BANK3   BANK4   BANK5   BANK6   BANK7
  8323 ;;      Params:         0       0       0       0       0       0       0       0       0
  8324 ;;      Locals:         0       0       0       0       0       0       0       0       0
  8325 ;;      Temps:          0       0       0       0       0       0       0       0       0
  8326 ;;      Totals:         0       0       0       0       0       0       0       0       0
  8327 ;;Total ram usage:        0 bytes
  8328 ;; Hardware stack levels used: 1
  8329 ;; Hardware stack levels required when called: 8
  8330 ;; This function calls:
  8331 ;;		Nothing
  8332 ;; This function is called by:
  8333 ;;		_I2C2_DO_RX_NACK_STOP
  8334 ;;		_I2C2_MasterFsm
  8335 ;;		i2_I2C2_MasterFsm
  8336 ;; This function uses a non-reentrant model
  8337 ;;
  8338                           
  8339                           	psect	text72
  8340  0019AA                     __ptext72:
  8341                           	callstack 0
  8342  0019AA                     _I2C2_DO_IDLE:
  8343                           	callstack 0
  8344                           
  8345                           ;Skip over the trampoline to the duplicate function for level 2
  8346  0019AA  AED3               	btfss	211,7,c
  8347  0019AC  EFDA  F00C         	goto	_I2C2_DO_IDLE$intlevel1
  8348  0019B0  EFE0  F00D         	goto	i2_I2C2_DO_IDLE
  8349  0019B4                     _I2C2_DO_IDLE$intlevel1:
  8350                           	callstack 13
  8351  0019B4                     
  8352                           ;../modbus/i2c2_master.c: 350:     I2C2_Status.busy = 0;
  8353  0019B4  0100               	movlb	0	; () banked
  8354  0019B6  9583               	bcf	(_I2C2_Status+35)& (0+255),2,b
  8355  0019B8                     
  8356                           ; BSR set to: 0
  8357                           ;../modbus/i2c2_master.c: 351:     I2C2_Status.error = I2C2_NOERR;
  8358  0019B8  0E00               	movlw	0
  8359  0019BA  6F82               	movwf	(_I2C2_Status+34)& (0+255),b
  8360  0019BC                     
  8361                           ; BSR set to: 0
  8362                           ;../modbus/i2c2_master.c: 352:     return I2C2_RESET;
  8363  0019BC  0E0F               	movlw	15
  8364  0019BE                     
  8365                           ; BSR set to: 0
  8366  0019BE  0012               	return		;funcret
  8367  0019C0                     __end_of_I2C2_DO_IDLE:
  8368                           	callstack 0
  8369                           
  8370 ;; *************** function _I2C2_DO_TX_ACK *****************
  8371 ;; Defined at:
  8372 ;;		line 479 in file "../modbus/i2c2_master.c"
  8373 ;; Parameters:    Size  Location     Type
  8374 ;;		None
  8375 ;; Auto vars:     Size  Location     Type
  8376 ;;		None
  8377 ;; Return value:  Size  Location     Type
  8378 ;;                  1    wreg      enum E16535
  8379 ;; Registers used:
  8380 ;;		wreg, cstack
  8381 ;; Tracked objects:
  8382 ;;		On entry : 0/0
  8383 ;;		On exit  : 0/0
  8384 ;;		Unchanged: 0/0
  8385 ;; Data sizes:     COMRAM   BANK0   BANK1   BANK2   BANK3   BANK4   BANK5   BANK6   BANK7
  8386 ;;      Params:         0       0       0       0       0       0       0       0       0
  8387 ;;      Locals:         0       0       0       0       0       0       0       0       0
  8388 ;;      Temps:          0       0       0       0       0       0       0       0       0
  8389 ;;      Totals:         0       0       0       0       0       0       0       0       0
  8390 ;;Total ram usage:        0 bytes
  8391 ;; Hardware stack levels used: 1
  8392 ;; Hardware stack levels required when called: 9
  8393 ;; This function calls:
  8394 ;;		_I2C2_MasterSendAck@i2c2_master$F3136
  8395 ;; This function is called by:
  8396 ;;		_I2C2_MasterFsm
  8397 ;;		i2_I2C2_MasterFsm
  8398 ;; This function uses a non-reentrant model
  8399 ;;
  8400                           
  8401                           	psect	text73
  8402  001B2A                     __ptext73:
  8403                           	callstack 0
  8404  001B2A                     _I2C2_DO_TX_ACK:
  8405                           	callstack 0
  8406                           
  8407                           ; BSR set to: 0
  8408                           ;Skip over the trampoline to the duplicate function for level 2
  8409  001B2A  AED3               	btfss	211,7,c
  8410  001B2C  EF9A  F00D         	goto	_I2C2_DO_TX_ACK$intlevel1
  8411  001B30  EF4F  F00E         	goto	i2_I2C2_DO_TX_ACK
  8412  001B34                     _I2C2_DO_TX_ACK$intlevel1:
  8413                           	callstack 13
  8414  001B34                     
  8415                           ;../modbus/i2c2_master.c: 480:     I2C2_MasterSendAck();
  8416  001B34  EC60  F00E         	call	_I2C2_MasterSendAck@i2c2_master$F3136	;wreg free
  8417  001B38                     
  8418                           ;../modbus/i2c2_master.c: 481:     return I2C2_TX;
  8419  001B38  0E03               	movlw	3
  8420  001B3A  0012               	return		;funcret
  8421  001B3C                     __end_of_I2C2_DO_TX_ACK:
  8422                           	callstack 0
  8423                           
  8424 ;; *************** function _I2C2_MasterIsTxBufEmpty *****************
  8425 ;; Defined at:
  8426 ;;		line 653 in file "../modbus/i2c2_master.c"
  8427 ;; Parameters:    Size  Location     Type
  8428 ;;		None
  8429 ;; Auto vars:     Size  Location     Type
  8430 ;;		None
  8431 ;; Return value:  Size  Location     Type
  8432 ;;                  1    wreg      _Bool 
  8433 ;; Registers used:
  8434 ;;		wreg
  8435 ;; Tracked objects:
  8436 ;;		On entry : 0/0
  8437 ;;		On exit  : 0/0
  8438 ;;		Unchanged: 0/0
  8439 ;; Data sizes:     COMRAM   BANK0   BANK1   BANK2   BANK3   BANK4   BANK5   BANK6   BANK7
  8440 ;;      Params:         0       0       0       0       0       0       0       0       0
  8441 ;;      Locals:         0       0       0       0       0       0       0       0       0
  8442 ;;      Temps:          0       0       0       0       0       0       0       0       0
  8443 ;;      Totals:         0       0       0       0       0       0       0       0       0
  8444 ;;Total ram usage:        0 bytes
  8445 ;; Hardware stack levels used: 1
  8446 ;; Hardware stack levels required when called: 8
  8447 ;; This function calls:
  8448 ;;		Nothing
  8449 ;; This function is called by:
  8450 ;;		_I2C2_DO_TX
  8451 ;; This function uses a non-reentrant model
  8452 ;;
  8453                           
  8454                           	psect	text74
  8455  0019C0                     __ptext74:
  8456                           	callstack 0
  8457  0019C0                     _I2C2_MasterIsTxBufEmpty:
  8458                           	callstack 13
  8459  0019C0                     
  8460                           ;../modbus/i2c2_master.c: 654:     return I2C2STAT1bits.TXBE;
  8461  0019C0  013D               	movlb	61	; () banked
  8462  0019C2  BB62               	btfsc	98,5,b	;volatile
  8463  0019C4  EFE6  F00C         	goto	i1u202_21
  8464  0019C8  EFE9  F00C         	goto	i1u202_20
  8465  0019CC                     i1u202_21:
  8466  0019CC  0E01               	movlw	1
  8467  0019CE  EFEA  F00C         	goto	i1u202_26
  8468  0019D2                     i1u202_20:
  8469  0019D2  0E00               	movlw	0
  8470  0019D4                     i1u202_26:
  8471  0019D4                     
  8472                           ; BSR set to: 61
  8473  0019D4  0012               	return		;funcret
  8474  0019D6                     __end_of_I2C2_MasterIsTxBufEmpty:
  8475                           	callstack 0
  8476                           
  8477 ;; *************** function _I2C2_MasterIsNack *****************
  8478 ;; Defined at:
  8479 ;;		line 630 in file "../modbus/i2c2_master.c"
  8480 ;; Parameters:    Size  Location     Type
  8481 ;;		None
  8482 ;; Auto vars:     Size  Location     Type
  8483 ;;		None
  8484 ;; Return value:  Size  Location     Type
  8485 ;;                  1    wreg      _Bool 
  8486 ;; Registers used:
  8487 ;;		wreg
  8488 ;; Tracked objects:
  8489 ;;		On entry : 0/0
  8490 ;;		On exit  : 0/0
  8491 ;;		Unchanged: 0/0
  8492 ;; Data sizes:     COMRAM   BANK0   BANK1   BANK2   BANK3   BANK4   BANK5   BANK6   BANK7
  8493 ;;      Params:         0       0       0       0       0       0       0       0       0
  8494 ;;      Locals:         0       0       0       0       0       0       0       0       0
  8495 ;;      Temps:          0       0       0       0       0       0       0       0       0
  8496 ;;      Totals:         0       0       0       0       0       0       0       0       0
  8497 ;;Total ram usage:        0 bytes
  8498 ;; Hardware stack levels used: 1
  8499 ;; Hardware stack levels required when called: 8
  8500 ;; This function calls:
  8501 ;;		Nothing
  8502 ;; This function is called by:
  8503 ;;		_I2C2_MasterFsm
  8504 ;;		_I2C2_DO_TX
  8505 ;; This function uses a non-reentrant model
  8506 ;;
  8507                           
  8508                           	psect	text75
  8509  0019D6                     __ptext75:
  8510                           	callstack 0
  8511  0019D6                     _I2C2_MasterIsNack:
  8512                           	callstack 14
  8513  0019D6                     
  8514                           ;../modbus/i2c2_master.c: 631:     return I2C2CON1bits.ACKSTAT;
  8515  0019D6  013D               	movlb	61	; () banked
  8516  0019D8  BB5E               	btfsc	94,5,b	;volatile
  8517  0019DA  EFF1  F00C         	goto	i1u198_21
  8518  0019DE  EFF4  F00C         	goto	i1u198_20
  8519  0019E2                     i1u198_21:
  8520  0019E2  0E01               	movlw	1
  8521  0019E4  EFF5  F00C         	goto	i1u198_26
  8522  0019E8                     i1u198_20:
  8523  0019E8  0E00               	movlw	0
  8524  0019EA                     i1u198_26:
  8525  0019EA                     
  8526                           ; BSR set to: 61
  8527  0019EA  0012               	return		;funcret
  8528  0019EC                     __end_of_I2C2_MasterIsNack:
  8529                           	callstack 0
  8530                           
  8531 ;; *************** function _I2C2_MasterGetCounter *****************
  8532 ;; Defined at:
  8533 ;;		line 598 in file "../modbus/i2c2_master.c"
  8534 ;; Parameters:    Size  Location     Type
  8535 ;;		None
  8536 ;; Auto vars:     Size  Location     Type
  8537 ;;		None
  8538 ;; Return value:  Size  Location     Type
  8539 ;;                  1    wreg      unsigned char 
  8540 ;; Registers used:
  8541 ;;		wreg, status,2
  8542 ;; Tracked objects:
  8543 ;;		On entry : 0/0
  8544 ;;		On exit  : 0/0
  8545 ;;		Unchanged: 0/0
  8546 ;; Data sizes:     COMRAM   BANK0   BANK1   BANK2   BANK3   BANK4   BANK5   BANK6   BANK7
  8547 ;;      Params:         0       0       0       0       0       0       0       0       0
  8548 ;;      Locals:         0       0       0       0       0       0       0       0       0
  8549 ;;      Temps:          0       0       0       0       0       0       0       0       0
  8550 ;;      Totals:         0       0       0       0       0       0       0       0       0
  8551 ;;Total ram usage:        0 bytes
  8552 ;; Hardware stack levels used: 1
  8553 ;; Hardware stack levels required when called: 8
  8554 ;; This function calls:
  8555 ;;		Nothing
  8556 ;; This function is called by:
  8557 ;;		_I2C2_DO_SEND_STOP
  8558 ;; This function uses a non-reentrant model
  8559 ;;
  8560                           
  8561                           	psect	text76
  8562  001CAE                     __ptext76:
  8563                           	callstack 0
  8564  001CAE                     _I2C2_MasterGetCounter:
  8565                           	callstack 13
  8566  001CAE                     
  8567                           ;../modbus/i2c2_master.c: 599:     return I2C2CNT;
  8568  001CAE  013D               	movlb	61	; () banked
  8569  001CB0  5156               	movf	86,w,b	;volatile
  8570  001CB2                     
  8571                           ; BSR set to: 61
  8572  001CB2  0012               	return		;funcret
  8573  001CB4                     __end_of_I2C2_MasterGetCounter:
  8574                           	callstack 0
  8575                           
  8576 ;; *************** function _I2C2_MasterStop@i2c2_master$F3126 *****************
  8577 ;; Defined at:
  8578 ;;		line 625 in file "../modbus/i2c2_master.c"
  8579 ;; Parameters:    Size  Location     Type
  8580 ;;		None
  8581 ;; Auto vars:     Size  Location     Type
  8582 ;;		None
  8583 ;; Return value:  Size  Location     Type
  8584 ;;                  1    wreg      void 
  8585 ;; Registers used:
  8586 ;;		None
  8587 ;; Tracked objects:
  8588 ;;		On entry : 0/0
  8589 ;;		On exit  : 0/0
  8590 ;;		Unchanged: 0/0
  8591 ;; Data sizes:     COMRAM   BANK0   BANK1   BANK2   BANK3   BANK4   BANK5   BANK6   BANK7
  8592 ;;      Params:         0       0       0       0       0       0       0       0       0
  8593 ;;      Locals:         0       0       0       0       0       0       0       0       0
  8594 ;;      Temps:          0       0       0       0       0       0       0       0       0
  8595 ;;      Totals:         0       0       0       0       0       0       0       0       0
  8596 ;;Total ram usage:        0 bytes
  8597 ;; Hardware stack levels used: 1
  8598 ;; Hardware stack levels required when called: 8
  8599 ;; This function calls:
  8600 ;;		Nothing
  8601 ;; This function is called by:
  8602 ;;		_I2C2_DO_SEND_STOP
  8603 ;;		_I2C2_DO_RX_NACK_STOP
  8604 ;; This function uses a non-reentrant model
  8605 ;;
  8606                           
  8607                           	psect	text77
  8608  001CB4                     __ptext77:
  8609                           	callstack 0
  8610  001CB4                     _I2C2_MasterStop@i2c2_master$F3126:
  8611                           	callstack 13
  8612  001CB4                     
  8613                           ;../modbus/i2c2_master.c: 627:     I2C2CON0bits.S = 0;
  8614  001CB4  013D               	movlb	61	; () banked
  8615  001CB6  9B5D               	bcf	93,5,b	;volatile
  8616  001CB8                     
  8617                           ; BSR set to: 61
  8618  001CB8  0012               	return		;funcret
  8619  001CBA                     __end_of_I2C2_MasterStop@i2c2_master$F3126:
  8620                           	callstack 0
  8621                           
  8622 ;; *************** function _I2C2_MasterSendNack@i2c2_master$F3141 *****************
  8623 ;; Defined at:
  8624 ;;		line 638 in file "../modbus/i2c2_master.c"
  8625 ;; Parameters:    Size  Location     Type
  8626 ;;		None
  8627 ;; Auto vars:     Size  Location     Type
  8628 ;;		None
  8629 ;; Return value:  Size  Location     Type
  8630 ;;                  1    wreg      void 
  8631 ;; Registers used:
  8632 ;;		None
  8633 ;; Tracked objects:
  8634 ;;		On entry : 0/0
  8635 ;;		On exit  : 0/0
  8636 ;;		Unchanged: 0/0
  8637 ;; Data sizes:     COMRAM   BANK0   BANK1   BANK2   BANK3   BANK4   BANK5   BANK6   BANK7
  8638 ;;      Params:         0       0       0       0       0       0       0       0       0
  8639 ;;      Locals:         0       0       0       0       0       0       0       0       0
  8640 ;;      Temps:          0       0       0       0       0       0       0       0       0
  8641 ;;      Totals:         0       0       0       0       0       0       0       0       0
  8642 ;;Total ram usage:        0 bytes
  8643 ;; Hardware stack levels used: 1
  8644 ;; Hardware stack levels required when called: 8
  8645 ;; This function calls:
  8646 ;;		Nothing
  8647 ;; This function is called by:
  8648 ;;		_I2C2_DO_RX_NACK_STOP
  8649 ;;		_I2C2_DO_RX_NACK_RESTART
  8650 ;; This function uses a non-reentrant model
  8651 ;;
  8652                           
  8653                           	psect	text78
  8654  001CBA                     __ptext78:
  8655                           	callstack 0
  8656  001CBA                     _I2C2_MasterSendNack@i2c2_master$F3141:
  8657                           	callstack 13
  8658  001CBA                     
  8659                           ;../modbus/i2c2_master.c: 639:     I2C2CON1bits.ACKDT = 1;
  8660  001CBA  013D               	movlb	61	; () banked
  8661  001CBC  8D5E               	bsf	94,6,b	;volatile
  8662  001CBE                     
  8663                           ; BSR set to: 61
  8664  001CBE  0012               	return		;funcret
  8665  001CC0                     __end_of_I2C2_MasterSendNack@i2c2_master$F3141:
  8666                           	callstack 0
  8667                           
  8668 ;; *************** function _I2C2_MasterSendAck@i2c2_master$F3136 *****************
  8669 ;; Defined at:
  8670 ;;		line 634 in file "../modbus/i2c2_master.c"
  8671 ;; Parameters:    Size  Location     Type
  8672 ;;		None
  8673 ;; Auto vars:     Size  Location     Type
  8674 ;;		None
  8675 ;; Return value:  Size  Location     Type
  8676 ;;                  1    wreg      void 
  8677 ;; Registers used:
  8678 ;;		None
  8679 ;; Tracked objects:
  8680 ;;		On entry : 0/0
  8681 ;;		On exit  : 0/0
  8682 ;;		Unchanged: 0/0
  8683 ;; Data sizes:     COMRAM   BANK0   BANK1   BANK2   BANK3   BANK4   BANK5   BANK6   BANK7
  8684 ;;      Params:         0       0       0       0       0       0       0       0       0
  8685 ;;      Locals:         0       0       0       0       0       0       0       0       0
  8686 ;;      Temps:          0       0       0       0       0       0       0       0       0
  8687 ;;      Totals:         0       0       0       0       0       0       0       0       0
  8688 ;;Total ram usage:        0 bytes
  8689 ;; Hardware stack levels used: 1
  8690 ;; Hardware stack levels required when called: 8
  8691 ;; This function calls:
  8692 ;;		Nothing
  8693 ;; This function is called by:
  8694 ;;		_I2C2_DO_RX_ACK
  8695 ;;		_I2C2_DO_TX_ACK
  8696 ;; This function uses a non-reentrant model
  8697 ;;
  8698                           
  8699                           	psect	text79
  8700  001CC0                     __ptext79:
  8701                           	callstack 0
  8702  001CC0                     _I2C2_MasterSendAck@i2c2_master$F3136:
  8703                           	callstack 13
  8704  001CC0                     
  8705                           ;../modbus/i2c2_master.c: 635:     I2C2CON1bits.ACKDT = 0;
  8706  001CC0  013D               	movlb	61	; () banked
  8707  001CC2  9D5E               	bcf	94,6,b	;volatile
  8708  001CC4                     
  8709                           ; BSR set to: 61
  8710  001CC4  0012               	return		;funcret
  8711  001CC6                     __end_of_I2C2_MasterSendAck@i2c2_master$F3136:
  8712                           	callstack 0
  8713                           
  8714 ;; *************** function _I2C2_MasterIsRxBufFull *****************
  8715 ;; Defined at:
  8716 ;;		line 649 in file "../modbus/i2c2_master.c"
  8717 ;; Parameters:    Size  Location     Type
  8718 ;;		None
  8719 ;; Auto vars:     Size  Location     Type
  8720 ;;		None
  8721 ;; Return value:  Size  Location     Type
  8722 ;;                  1    wreg      _Bool 
  8723 ;; Registers used:
  8724 ;;		wreg
  8725 ;; Tracked objects:
  8726 ;;		On entry : 0/0
  8727 ;;		On exit  : 0/0
  8728 ;;		Unchanged: 0/0
  8729 ;; Data sizes:     COMRAM   BANK0   BANK1   BANK2   BANK3   BANK4   BANK5   BANK6   BANK7
  8730 ;;      Params:         0       0       0       0       0       0       0       0       0
  8731 ;;      Locals:         0       0       0       0       0       0       0       0       0
  8732 ;;      Temps:          0       0       0       0       0       0       0       0       0
  8733 ;;      Totals:         0       0       0       0       0       0       0       0       0
  8734 ;;Total ram usage:        0 bytes
  8735 ;; Hardware stack levels used: 1
  8736 ;; Hardware stack levels required when called: 8
  8737 ;; This function calls:
  8738 ;;		Nothing
  8739 ;; This function is called by:
  8740 ;;		_I2C2_DO_RX
  8741 ;; This function uses a non-reentrant model
  8742 ;;
  8743                           
  8744                           	psect	text80
  8745  0019EC                     __ptext80:
  8746                           	callstack 0
  8747  0019EC                     _I2C2_MasterIsRxBufFull:
  8748                           	callstack 13
  8749  0019EC                     
  8750                           ;../modbus/i2c2_master.c: 650:     return I2C2STAT1bits.RXBF;
  8751  0019EC  013D               	movlb	61	; () banked
  8752  0019EE  B162               	btfsc	98,0,b	;volatile
  8753  0019F0  EFFC  F00C         	goto	i1u204_21
  8754  0019F4  EFFF  F00C         	goto	i1u204_20
  8755  0019F8                     i1u204_21:
  8756  0019F8  0E01               	movlw	1
  8757  0019FA  EF00  F00D         	goto	i1u204_26
  8758  0019FE                     i1u204_20:
  8759  0019FE  0E00               	movlw	0
  8760  001A00                     i1u204_26:
  8761  001A00                     
  8762                           ; BSR set to: 61
  8763  001A00  0012               	return		;funcret
  8764  001A02                     __end_of_I2C2_MasterIsRxBufFull:
  8765                           	callstack 0
  8766                           
  8767 ;; *************** function _I2C2_MasterGetRxData@i2c2_master$F3111 *****************
  8768 ;; Defined at:
  8769 ;;		line 590 in file "../modbus/i2c2_master.c"
  8770 ;; Parameters:    Size  Location     Type
  8771 ;;		None
  8772 ;; Auto vars:     Size  Location     Type
  8773 ;;		None
  8774 ;; Return value:  Size  Location     Type
  8775 ;;                  1    wreg      unsigned char 
  8776 ;; Registers used:
  8777 ;;		wreg, status,2
  8778 ;; Tracked objects:
  8779 ;;		On entry : 0/0
  8780 ;;		On exit  : 0/0
  8781 ;;		Unchanged: 0/0
  8782 ;; Data sizes:     COMRAM   BANK0   BANK1   BANK2   BANK3   BANK4   BANK5   BANK6   BANK7
  8783 ;;      Params:         0       0       0       0       0       0       0       0       0
  8784 ;;      Locals:         0       0       0       0       0       0       0       0       0
  8785 ;;      Temps:          0       0       0       0       0       0       0       0       0
  8786 ;;      Totals:         0       0       0       0       0       0       0       0       0
  8787 ;;Total ram usage:        0 bytes
  8788 ;; Hardware stack levels used: 1
  8789 ;; Hardware stack levels required when called: 8
  8790 ;; This function calls:
  8791 ;;		Nothing
  8792 ;; This function is called by:
  8793 ;;		_I2C2_DO_RX
  8794 ;; This function uses a non-reentrant model
  8795 ;;
  8796                           
  8797                           	psect	text81
  8798  001CC6                     __ptext81:
  8799                           	callstack 0
  8800  001CC6                     _I2C2_MasterGetRxData@i2c2_master$F3111:
  8801                           	callstack 13
  8802  001CC6                     
  8803                           ;../modbus/i2c2_master.c: 591:     return I2C2RXB;
  8804  001CC6  013D               	movlb	61	; () banked
  8805  001CC8  5154               	movf	84,w,b	;volatile
  8806  001CCA                     
  8807                           ; BSR set to: 61
  8808  001CCA  0012               	return		;funcret
  8809  001CCC                     __end_of_I2C2_MasterGetRxData@i2c2_master$F3111:
  8810                           	callstack 0
  8811                           
  8812 ;; *************** function _I2C2_MasterClearIrq *****************
  8813 ;; Defined at:
  8814 ;;		line 700 in file "../modbus/i2c2_master.c"
  8815 ;; Parameters:    Size  Location     Type
  8816 ;;		None
  8817 ;; Auto vars:     Size  Location     Type
  8818 ;;		None
  8819 ;; Return value:  Size  Location     Type
  8820 ;;                  1    wreg      void 
  8821 ;; Registers used:
  8822 ;;		wreg, status,2
  8823 ;; Tracked objects:
  8824 ;;		On entry : 0/0
  8825 ;;		On exit  : 0/0
  8826 ;;		Unchanged: 0/0
  8827 ;; Data sizes:     COMRAM   BANK0   BANK1   BANK2   BANK3   BANK4   BANK5   BANK6   BANK7
  8828 ;;      Params:         0       0       0       0       0       0       0       0       0
  8829 ;;      Locals:         0       0       0       0       0       0       0       0       0
  8830 ;;      Temps:          0       0       0       0       0       0       0       0       0
  8831 ;;      Totals:         0       0       0       0       0       0       0       0       0
  8832 ;;Total ram usage:        0 bytes
  8833 ;; Hardware stack levels used: 1
  8834 ;; Hardware stack levels required when called: 8
  8835 ;; This function calls:
  8836 ;;		Nothing
  8837 ;; This function is called by:
  8838 ;;		_I2C2_DO_BUS_COLLISION
  8839 ;;		_I2C2_Open
  8840 ;;		_I2C2_Close
  8841 ;; This function uses a non-reentrant model
  8842 ;;
  8843                           
  8844                           	psect	text82
  8845  001C86                     __ptext82:
  8846                           	callstack 0
  8847  001C86                     _I2C2_MasterClearIrq:
  8848                           	callstack 13
  8849  001C86                     
  8850                           ;../modbus/i2c2_master.c: 701:     I2C2PIR = 0x00;
  8851  001C86  0E00               	movlw	0
  8852  001C88  013D               	movlb	61	; () banked
  8853  001C8A  6F63               	movwf	99,b	;volatile
  8854  001C8C                     
  8855                           ; BSR set to: 61
  8856  001C8C  0012               	return		;funcret
  8857  001C8E                     __end_of_I2C2_MasterClearIrq:
  8858                           	callstack 0
  8859                           
  8860 ;; *************** function _I2C2_MasterSendTxData@i2c2_master$F3095 *****************
  8861 ;; Defined at:
  8862 ;;		line 594 in file "../modbus/i2c2_master.c"
  8863 ;; Parameters:    Size  Location     Type
  8864 ;;  data            1    wreg     unsigned char 
  8865 ;; Auto vars:     Size  Location     Type
  8866 ;;  data            1   12[COMRAM] unsigned char 
  8867 ;; Return value:  Size  Location     Type
  8868 ;;                  1    wreg      void 
  8869 ;; Registers used:
  8870 ;;		wreg
  8871 ;; Tracked objects:
  8872 ;;		On entry : 0/0
  8873 ;;		On exit  : 0/0
  8874 ;;		Unchanged: 0/0
  8875 ;; Data sizes:     COMRAM   BANK0   BANK1   BANK2   BANK3   BANK4   BANK5   BANK6   BANK7
  8876 ;;      Params:         0       0       0       0       0       0       0       0       0
  8877 ;;      Locals:         1       0       0       0       0       0       0       0       0
  8878 ;;      Temps:          0       0       0       0       0       0       0       0       0
  8879 ;;      Totals:         1       0       0       0       0       0       0       0       0
  8880 ;;Total ram usage:        1 bytes
  8881 ;; Hardware stack levels used: 1
  8882 ;; Hardware stack levels required when called: 8
  8883 ;; This function calls:
  8884 ;;		Nothing
  8885 ;; This function is called by:
  8886 ;;		_I2C2_DO_SEND_ADR_READ
  8887 ;;		_I2C2_DO_SEND_ADR_WRITE
  8888 ;;		_I2C2_DO_TX
  8889 ;;		_I2C2_DO_SEND_STOP
  8890 ;; This function uses a non-reentrant model
  8891 ;;
  8892                           
  8893                           	psect	text83
  8894  001C30                     __ptext83:
  8895                           	callstack 0
  8896  001C30                     _I2C2_MasterSendTxData@i2c2_master$F3095:
  8897                           	callstack 13
  8898                           
  8899                           ; BSR set to: 61
  8900                           ;incstack = 0
  8901                           ;I2C2_MasterSendTxData@i2c2_master$F3095@data stored from wreg
  8902  001C30  6E3C               	movwf	I2C2_MasterSendTxData@i2c2_master$F3095@data^0,c
  8903  001C32                     
  8904                           ;../modbus/i2c2_master.c: 595:     I2C2TXB = data;
  8905  001C32  0060  F0F3  FD55   	movff	I2C2_MasterSendTxData@i2c2_master$F3095@data,15701	;volatile
  8906  001C38  0012               	return		;funcret
  8907  001C3A                     __end_of_I2C2_MasterSendTxData@i2c2_master$F3095:
  8908                           	callstack 0
  8909                           
  8910 ;; *************** function _I2C2_MasterSetCounter *****************
  8911 ;; Defined at:
  8912 ;;		line 602 in file "../modbus/i2c2_master.c"
  8913 ;; Parameters:    Size  Location     Type
  8914 ;;  counter         1    wreg     unsigned char 
  8915 ;; Auto vars:     Size  Location     Type
  8916 ;;  counter         1   12[COMRAM] unsigned char 
  8917 ;; Return value:  Size  Location     Type
  8918 ;;                  1    wreg      void 
  8919 ;; Registers used:
  8920 ;;		wreg
  8921 ;; Tracked objects:
  8922 ;;		On entry : 0/0
  8923 ;;		On exit  : 0/0
  8924 ;;		Unchanged: 0/0
  8925 ;; Data sizes:     COMRAM   BANK0   BANK1   BANK2   BANK3   BANK4   BANK5   BANK6   BANK7
  8926 ;;      Params:         0       0       0       0       0       0       0       0       0
  8927 ;;      Locals:         1       0       0       0       0       0       0       0       0
  8928 ;;      Temps:          0       0       0       0       0       0       0       0       0
  8929 ;;      Totals:         1       0       0       0       0       0       0       0       0
  8930 ;;Total ram usage:        1 bytes
  8931 ;; Hardware stack levels used: 1
  8932 ;; Hardware stack levels required when called: 8
  8933 ;; This function calls:
  8934 ;;		Nothing
  8935 ;; This function is called by:
  8936 ;;		_I2C2_DO_TX_EMPTY
  8937 ;;		_I2C2_DO_RX_EMPTY
  8938 ;;		_I2C2_DO_SEND_RESTART_READ
  8939 ;;		_I2C2_DO_SEND_STOP
  8940 ;;		_I2C2_MasterOperation
  8941 ;; This function uses a non-reentrant model
  8942 ;;
  8943                           
  8944                           	psect	text84
  8945  001C3A                     __ptext84:
  8946                           	callstack 0
  8947  001C3A                     _I2C2_MasterSetCounter:
  8948                           	callstack 13
  8949                           
  8950                           ;incstack = 0
  8951                           ;I2C2_MasterSetCounter@counter stored from wreg
  8952  001C3A  6E3C               	movwf	I2C2_MasterSetCounter@counter^0,c
  8953  001C3C                     
  8954                           ;../modbus/i2c2_master.c: 603:     I2C2CNT = counter;
  8955  001C3C  0060  F0F3  FD56   	movff	I2C2_MasterSetCounter@counter,15702	;volatile
  8956  001C42  0012               	return		;funcret
  8957  001C44                     __end_of_I2C2_MasterSetCounter:
  8958                           	callstack 0
  8959                           
  8960 ;; *************** function _I2C2_MasterEnableRestart@i2c2_master$F3116 *****************
  8961 ;; Defined at:
  8962 ;;		line 615 in file "../modbus/i2c2_master.c"
  8963 ;; Parameters:    Size  Location     Type
  8964 ;;		None
  8965 ;; Auto vars:     Size  Location     Type
  8966 ;;		None
  8967 ;; Return value:  Size  Location     Type
  8968 ;;                  1    wreg      void 
  8969 ;; Registers used:
  8970 ;;		None
  8971 ;; Tracked objects:
  8972 ;;		On entry : 0/0
  8973 ;;		On exit  : 0/0
  8974 ;;		Unchanged: 0/0
  8975 ;; Data sizes:     COMRAM   BANK0   BANK1   BANK2   BANK3   BANK4   BANK5   BANK6   BANK7
  8976 ;;      Params:         0       0       0       0       0       0       0       0       0
  8977 ;;      Locals:         0       0       0       0       0       0       0       0       0
  8978 ;;      Temps:          0       0       0       0       0       0       0       0       0
  8979 ;;      Totals:         0       0       0       0       0       0       0       0       0
  8980 ;;Total ram usage:        0 bytes
  8981 ;; Hardware stack levels used: 1
  8982 ;; Hardware stack levels required when called: 8
  8983 ;; This function calls:
  8984 ;;		Nothing
  8985 ;; This function is called by:
  8986 ;;		_I2C2_DO_TX_EMPTY
  8987 ;;		_I2C2_DO_RX_EMPTY
  8988 ;; This function uses a non-reentrant model
  8989 ;;
  8990                           
  8991                           	psect	text85
  8992  001CCC                     __ptext85:
  8993                           	callstack 0
  8994  001CCC                     _I2C2_MasterEnableRestart@i2c2_master$F3116:
  8995                           	callstack 13
  8996  001CCC                     
  8997                           ;../modbus/i2c2_master.c: 617:     I2C2CON0bits.RSEN = 1;
  8998  001CCC  013D               	movlb	61	; () banked
  8999  001CCE  8D5D               	bsf	93,6,b	;volatile
  9000  001CD0                     
  9001                           ; BSR set to: 61
  9002  001CD0  0012               	return		;funcret
  9003  001CD2                     __end_of_I2C2_MasterEnableRestart@i2c2_master$F3116:
  9004                           	callstack 0
  9005                           
  9006 ;; *************** function _I2C2_MasterDisableRestart *****************
  9007 ;; Defined at:
  9008 ;;		line 620 in file "../modbus/i2c2_master.c"
  9009 ;; Parameters:    Size  Location     Type
  9010 ;;		None
  9011 ;; Auto vars:     Size  Location     Type
  9012 ;;		None
  9013 ;; Return value:  Size  Location     Type
  9014 ;;                  1    wreg      void 
  9015 ;; Registers used:
  9016 ;;		None
  9017 ;; Tracked objects:
  9018 ;;		On entry : 0/0
  9019 ;;		On exit  : 0/0
  9020 ;;		Unchanged: 0/0
  9021 ;; Data sizes:     COMRAM   BANK0   BANK1   BANK2   BANK3   BANK4   BANK5   BANK6   BANK7
  9022 ;;      Params:         0       0       0       0       0       0       0       0       0
  9023 ;;      Locals:         0       0       0       0       0       0       0       0       0
  9024 ;;      Temps:          0       0       0       0       0       0       0       0       0
  9025 ;;      Totals:         0       0       0       0       0       0       0       0       0
  9026 ;;Total ram usage:        0 bytes
  9027 ;; Hardware stack levels used: 1
  9028 ;; Hardware stack levels required when called: 8
  9029 ;; This function calls:
  9030 ;;		Nothing
  9031 ;; This function is called by:
  9032 ;;		_I2C2_DO_TX_EMPTY
  9033 ;;		_I2C2_DO_RX_EMPTY
  9034 ;; This function uses a non-reentrant model
  9035 ;;
  9036                           
  9037                           	psect	text86
  9038  001CD2                     __ptext86:
  9039                           	callstack 0
  9040  001CD2                     _I2C2_MasterDisableRestart:
  9041                           	callstack 13
  9042  001CD2                     
  9043                           ;../modbus/i2c2_master.c: 622:     I2C2CON0bits.RSEN = 0;
  9044  001CD2  013D               	movlb	61	; () banked
  9045  001CD4  9D5D               	bcf	93,6,b	;volatile
  9046  001CD6                     
  9047                           ; BSR set to: 61
  9048  001CD6  0012               	return		;funcret
  9049  001CD8                     __end_of_I2C2_MasterDisableRestart:
  9050                           	callstack 0
  9051                           
  9052 ;; *************** function _I2C2_MasterResetBus *****************
  9053 ;; Defined at:
  9054 ;;		line 606 in file "../modbus/i2c2_master.c"
  9055 ;; Parameters:    Size  Location     Type
  9056 ;;		None
  9057 ;; Auto vars:     Size  Location     Type
  9058 ;;		None
  9059 ;; Return value:  Size  Location     Type
  9060 ;;                  1    wreg      void 
  9061 ;; Registers used:
  9062 ;;		None
  9063 ;; Tracked objects:
  9064 ;;		On entry : 0/0
  9065 ;;		On exit  : 0/0
  9066 ;;		Unchanged: 0/0
  9067 ;; Data sizes:     COMRAM   BANK0   BANK1   BANK2   BANK3   BANK4   BANK5   BANK6   BANK7
  9068 ;;      Params:         0       0       0       0       0       0       0       0       0
  9069 ;;      Locals:         0       0       0       0       0       0       0       0       0
  9070 ;;      Temps:          0       0       0       0       0       0       0       0       0
  9071 ;;      Totals:         0       0       0       0       0       0       0       0       0
  9072 ;;Total ram usage:        0 bytes
  9073 ;; Hardware stack levels used: 1
  9074 ;; Hardware stack levels required when called: 8
  9075 ;; This function calls:
  9076 ;;		Nothing
  9077 ;; This function is called by:
  9078 ;;		_I2C2_DO_RESET
  9079 ;;		_I2C2_DO_BUS_ERROR
  9080 ;; This function uses a non-reentrant model
  9081 ;;
  9082                           
  9083                           	psect	text87
  9084  001C44                     __ptext87:
  9085                           	callstack 0
  9086  001C44                     _I2C2_MasterResetBus:
  9087                           	callstack 13
  9088  001C44                     
  9089                           ;../modbus/i2c2_master.c: 608:     I2C2CON0bits.EN = 0;
  9090  001C44  013D               	movlb	61	; () banked
  9091  001C46  9F5D               	bcf	93,7,b	;volatile
  9092                           
  9093                           ;../modbus/i2c2_master.c: 610:     I2C2STAT1bits.CLRBF = 1;
  9094  001C48  8562               	bsf	98,2,b	;volatile
  9095                           
  9096                           ;../modbus/i2c2_master.c: 612:     I2C2CON0bits.EN = 1;
  9097  001C4A  8F5D               	bsf	93,7,b	;volatile
  9098  001C4C                     
  9099                           ; BSR set to: 61
  9100  001C4C  0012               	return		;funcret
  9101  001C4E                     __end_of_I2C2_MasterResetBus:
  9102                           	callstack 0
  9103                           
  9104 ;; *************** function _I2C2_CallbackReturnReset *****************
  9105 ;; Defined at:
  9106 ;;		line 546 in file "../modbus/i2c2_master.c"
  9107 ;; Parameters:    Size  Location     Type
  9108 ;;  funPtr          2   12[COMRAM] PTR void 
  9109 ;;		 -> NULL(0), 
  9110 ;; Auto vars:     Size  Location     Type
  9111 ;;		None
  9112 ;; Return value:  Size  Location     Type
  9113 ;;                  1    wreg      enum E360
  9114 ;; Registers used:
  9115 ;;		wreg
  9116 ;; Tracked objects:
  9117 ;;		On entry : 0/0
  9118 ;;		On exit  : 0/0
  9119 ;;		Unchanged: 0/0
  9120 ;; Data sizes:     COMRAM   BANK0   BANK1   BANK2   BANK3   BANK4   BANK5   BANK6   BANK7
  9121 ;;      Params:         2       0       0       0       0       0       0       0       0
  9122 ;;      Locals:         0       0       0       0       0       0       0       0       0
  9123 ;;      Temps:          0       0       0       0       0       0       0       0       0
  9124 ;;      Totals:         2       0       0       0       0       0       0       0       0
  9125 ;;Total ram usage:        2 bytes
  9126 ;; Hardware stack levels used: 1
  9127 ;; Hardware stack levels required when called: 8
  9128 ;; This function calls:
  9129 ;;		Nothing
  9130 ;; This function is called by:
  9131 ;;		_I2C2_Open
  9132 ;;		_I2C2_DO_RX_EMPTY
  9133 ;;		i2_I2C2_DO_RX_EMPTY
  9134 ;;		_I2C2_DO_TX_EMPTY
  9135 ;;		i2_I2C2_DO_TX_EMPTY
  9136 ;;		_I2C2_DO_TX
  9137 ;;		_I2C2_DO_ADDRESS_NACK
  9138 ;;		_I2C2_DO_BUS_COLLISION
  9139 ;;		i2_I2C2_DO_TX
  9140 ;;		i2_I2C2_DO_ADDRESS_NACK
  9141 ;;		i2_I2C2_DO_BUS_COLLISION
  9142 ;; This function uses a non-reentrant model
  9143 ;;
  9144                           
  9145                           	psect	text88
  9146  001B88                     __ptext88:
  9147                           	callstack 0
  9148  001B88                     _I2C2_CallbackReturnReset:
  9149                           	callstack 0
  9150                           
  9151                           ; BSR set to: 61
  9152                           ;Skip over the trampoline to the duplicate function for level 2
  9153  001B88  AED3               	btfss	211,7,c
  9154  001B8A  EFC9  F00D         	goto	_I2C2_CallbackReturnReset$intlevel1
  9155  001B8E  EF9A  F00E         	goto	i2_I2C2_CallbackReturnReset
  9156  001B92                     _I2C2_CallbackReturnReset$intlevel1:
  9157                           	callstack 13
  9158  001B92                     
  9159                           ;../modbus/i2c2_master.c: 547:     return I2C2_RESET_LINK;
  9160  001B92  0E05               	movlw	5
  9161  001B94  0012               	return		;funcret
  9162  001B96                     __end_of_I2C2_CallbackReturnReset:
  9163                           	callstack 0
  9164                           
  9165 ;; *************** function _I2C2_CallbackReturnStop *****************
  9166 ;; Defined at:
  9167 ;;		line 542 in file "../modbus/i2c2_master.c"
  9168 ;; Parameters:    Size  Location     Type
  9169 ;;  funPtr          2   12[COMRAM] PTR void 
  9170 ;;		 -> NULL(0), 
  9171 ;; Auto vars:     Size  Location     Type
  9172 ;;		None
  9173 ;; Return value:  Size  Location     Type
  9174 ;;                  1    wreg      enum E360
  9175 ;; Registers used:
  9176 ;;		wreg
  9177 ;; Tracked objects:
  9178 ;;		On entry : 0/0
  9179 ;;		On exit  : 0/0
  9180 ;;		Unchanged: 0/0
  9181 ;; Data sizes:     COMRAM   BANK0   BANK1   BANK2   BANK3   BANK4   BANK5   BANK6   BANK7
  9182 ;;      Params:         2       0       0       0       0       0       0       0       0
  9183 ;;      Locals:         0       0       0       0       0       0       0       0       0
  9184 ;;      Temps:          0       0       0       0       0       0       0       0       0
  9185 ;;      Totals:         2       0       0       0       0       0       0       0       0
  9186 ;;Total ram usage:        2 bytes
  9187 ;; Hardware stack levels used: 1
  9188 ;; Hardware stack levels required when called: 8
  9189 ;; This function calls:
  9190 ;;		Nothing
  9191 ;; This function is called by:
  9192 ;;		_I2C2_Open
  9193 ;;		_I2C2_SetCallback
  9194 ;;		_I2C2_DO_RX_EMPTY
  9195 ;;		i2_I2C2_DO_RX_EMPTY
  9196 ;;		_I2C2_DO_TX_EMPTY
  9197 ;;		i2_I2C2_DO_TX_EMPTY
  9198 ;;		_I2C2_DO_TX
  9199 ;;		_I2C2_DO_ADDRESS_NACK
  9200 ;;		_I2C2_DO_BUS_COLLISION
  9201 ;;		i2_I2C2_DO_TX
  9202 ;;		i2_I2C2_DO_ADDRESS_NACK
  9203 ;;		i2_I2C2_DO_BUS_COLLISION
  9204 ;; This function uses a non-reentrant model
  9205 ;;
  9206                           
  9207                           	psect	text89
  9208  001B96                     __ptext89:
  9209                           	callstack 0
  9210  001B96                     _I2C2_CallbackReturnStop:
  9211                           	callstack 0
  9212                           
  9213                           ;Skip over the trampoline to the duplicate function for level 2
  9214  001B96  AED3               	btfss	211,7,c
  9215  001B98  EFD0  F00D         	goto	_I2C2_CallbackReturnStop$intlevel1
  9216  001B9C  EF9C  F00E         	goto	i2_I2C2_CallbackReturnStop
  9217  001BA0                     _I2C2_CallbackReturnStop$intlevel1:
  9218                           	callstack 13
  9219  001BA0                     
  9220                           ;../modbus/i2c2_master.c: 543:     return I2C2_STOP;
  9221  001BA0  0E01               	movlw	1
  9222  001BA2  0012               	return		;funcret
  9223  001BA4                     __end_of_I2C2_CallbackReturnStop:
  9224                           	callstack 0
  9225                           
  9226 ;; *************** function _I2C2_ClearInterruptFlags *****************
  9227 ;; Defined at:
  9228 ;;		line 339 in file "../modbus/i2c2_master.c"
  9229 ;; Parameters:    Size  Location     Type
  9230 ;;		None
  9231 ;; Auto vars:     Size  Location     Type
  9232 ;;		None
  9233 ;; Return value:  Size  Location     Type
  9234 ;;                  1    wreg      void 
  9235 ;; Registers used:
  9236 ;;		wreg, status,2, cstack
  9237 ;; Tracked objects:
  9238 ;;		On entry : 0/0
  9239 ;;		On exit  : 0/0
  9240 ;;		Unchanged: 0/0
  9241 ;; Data sizes:     COMRAM   BANK0   BANK1   BANK2   BANK3   BANK4   BANK5   BANK6   BANK7
  9242 ;;      Params:         0       0       0       0       0       0       0       0       0
  9243 ;;      Locals:         0       0       0       0       0       0       0       0       0
  9244 ;;      Temps:          0       0       0       0       0       0       0       0       0
  9245 ;;      Totals:         0       0       0       0       0       0       0       0       0
  9246 ;;Total ram usage:        0 bytes
  9247 ;; Hardware stack levels used: 1
  9248 ;; Hardware stack levels required when called: 9
  9249 ;; This function calls:
  9250 ;;		_I2C2_MasterClearCountFlag
  9251 ;;		_I2C2_MasterClearNackFlag
  9252 ;;		_I2C2_MasterClearStopFlag
  9253 ;;		_I2C2_MasterIsCountFlagSet
  9254 ;;		_I2C2_MasterIsNackFlagSet
  9255 ;;		_I2C2_MasterIsStopFlagSet
  9256 ;; This function is called by:
  9257 ;;		_I2C2_MasterFsm
  9258 ;; This function uses a non-reentrant model
  9259 ;;
  9260                           
  9261                           	psect	text90
  9262  00131C                     __ptext90:
  9263                           	callstack 0
  9264  00131C                     _I2C2_ClearInterruptFlags:
  9265                           	callstack 13
  9266  00131C                     
  9267                           ;../modbus/i2c2_master.c: 340:     if (I2C2_MasterIsCountFlagSet()) {
  9268  00131C  EC17  F00D         	call	_I2C2_MasterIsCountFlagSet	;wreg free
  9269  001320  0900               	iorlw	0
  9270  001322  B4D8               	btfsc	status,2,c
  9271  001324  EF96  F009         	goto	i1u229_21
  9272  001328  EF98  F009         	goto	i1u229_20
  9273  00132C                     i1u229_21:
  9274  00132C  EF9C  F009         	goto	i1l5533
  9275  001330                     i1u229_20:
  9276  001330                     
  9277                           ;../modbus/i2c2_master.c: 341:         I2C2_MasterClearCountFlag();
  9278  001330  EC72  F00E         	call	_I2C2_MasterClearCountFlag	;wreg free
  9279                           
  9280                           ;../modbus/i2c2_master.c: 342:     } else if (I2C2_MasterIsStopFlagSet()) {
  9281  001334  EFB6  F009         	goto	i1l1687
  9282  001338                     i1l5533:
  9283  001338  EC01  F00D         	call	_I2C2_MasterIsStopFlagSet	;wreg free
  9284  00133C  0900               	iorlw	0
  9285  00133E  B4D8               	btfsc	status,2,c
  9286  001340  EFA4  F009         	goto	i1u230_21
  9287  001344  EFA6  F009         	goto	i1u230_20
  9288  001348                     i1u230_21:
  9289  001348  EFAA  F009         	goto	i1l5537
  9290  00134C                     i1u230_20:
  9291  00134C                     
  9292                           ;../modbus/i2c2_master.c: 343:         I2C2_MasterClearStopFlag();
  9293  00134C  EC6C  F00E         	call	_I2C2_MasterClearStopFlag	;wreg free
  9294                           
  9295                           ;../modbus/i2c2_master.c: 344:     } else if (I2C2_MasterIsNackFlagSet()) {
  9296  001350  EFB6  F009         	goto	i1l1687
  9297  001354                     i1l5537:
  9298  001354  EC0C  F00D         	call	_I2C2_MasterIsNackFlagSet	;wreg free
  9299  001358  0900               	iorlw	0
  9300  00135A  B4D8               	btfsc	status,2,c
  9301  00135C  EFB2  F009         	goto	i1u231_21
  9302  001360  EFB4  F009         	goto	i1u231_20
  9303  001364                     i1u231_21:
  9304  001364  EFB6  F009         	goto	i1l1687
  9305  001368                     i1u231_20:
  9306  001368                     
  9307                           ;../modbus/i2c2_master.c: 345:         I2C2_MasterClearNackFlag();
  9308  001368  EC6F  F00E         	call	_I2C2_MasterClearNackFlag	;wreg free
  9309  00136C                     i1l1687:
  9310  00136C  0012               	return		;funcret
  9311  00136E                     __end_of_I2C2_ClearInterruptFlags:
  9312                           	callstack 0
  9313                           
  9314 ;; *************** function _I2C2_MasterIsStopFlagSet *****************
  9315 ;; Defined at:
  9316 ;;		line 657 in file "../modbus/i2c2_master.c"
  9317 ;; Parameters:    Size  Location     Type
  9318 ;;		None
  9319 ;; Auto vars:     Size  Location     Type
  9320 ;;		None
  9321 ;; Return value:  Size  Location     Type
  9322 ;;                  1    wreg      _Bool 
  9323 ;; Registers used:
  9324 ;;		wreg
  9325 ;; Tracked objects:
  9326 ;;		On entry : 0/0
  9327 ;;		On exit  : 0/0
  9328 ;;		Unchanged: 0/0
  9329 ;; Data sizes:     COMRAM   BANK0   BANK1   BANK2   BANK3   BANK4   BANK5   BANK6   BANK7
  9330 ;;      Params:         0       0       0       0       0       0       0       0       0
  9331 ;;      Locals:         0       0       0       0       0       0       0       0       0
  9332 ;;      Temps:          0       0       0       0       0       0       0       0       0
  9333 ;;      Totals:         0       0       0       0       0       0       0       0       0
  9334 ;;Total ram usage:        0 bytes
  9335 ;; Hardware stack levels used: 1
  9336 ;; Hardware stack levels required when called: 8
  9337 ;; This function calls:
  9338 ;;		Nothing
  9339 ;; This function is called by:
  9340 ;;		_I2C2_ClearInterruptFlags
  9341 ;; This function uses a non-reentrant model
  9342 ;;
  9343                           
  9344                           	psect	text91
  9345  001A02                     __ptext91:
  9346                           	callstack 0
  9347  001A02                     _I2C2_MasterIsStopFlagSet:
  9348                           	callstack 13
  9349  001A02                     
  9350                           ;../modbus/i2c2_master.c: 658:     return I2C2PIRbits.PCIF;
  9351  001A02  013D               	movlb	61	; () banked
  9352  001A04  B563               	btfsc	99,2,b	;volatile
  9353  001A06  EF07  F00D         	goto	i1u200_21
  9354  001A0A  EF0A  F00D         	goto	i1u200_20
  9355  001A0E                     i1u200_21:
  9356  001A0E  0E01               	movlw	1
  9357  001A10  EF0B  F00D         	goto	i1u200_26
  9358  001A14                     i1u200_20:
  9359  001A14  0E00               	movlw	0
  9360  001A16                     i1u200_26:
  9361  001A16                     
  9362                           ; BSR set to: 61
  9363  001A16  0012               	return		;funcret
  9364  001A18                     __end_of_I2C2_MasterIsStopFlagSet:
  9365                           	callstack 0
  9366                           
  9367 ;; *************** function _I2C2_MasterIsNackFlagSet *****************
  9368 ;; Defined at:
  9369 ;;		line 665 in file "../modbus/i2c2_master.c"
  9370 ;; Parameters:    Size  Location     Type
  9371 ;;		None
  9372 ;; Auto vars:     Size  Location     Type
  9373 ;;		None
  9374 ;; Return value:  Size  Location     Type
  9375 ;;                  1    wreg      _Bool 
  9376 ;; Registers used:
  9377 ;;		wreg
  9378 ;; Tracked objects:
  9379 ;;		On entry : 0/0
  9380 ;;		On exit  : 0/0
  9381 ;;		Unchanged: 0/0
  9382 ;; Data sizes:     COMRAM   BANK0   BANK1   BANK2   BANK3   BANK4   BANK5   BANK6   BANK7
  9383 ;;      Params:         0       0       0       0       0       0       0       0       0
  9384 ;;      Locals:         0       0       0       0       0       0       0       0       0
  9385 ;;      Temps:          0       0       0       0       0       0       0       0       0
  9386 ;;      Totals:         0       0       0       0       0       0       0       0       0
  9387 ;;Total ram usage:        0 bytes
  9388 ;; Hardware stack levels used: 1
  9389 ;; Hardware stack levels required when called: 8
  9390 ;; This function calls:
  9391 ;;		Nothing
  9392 ;; This function is called by:
  9393 ;;		_I2C2_ClearInterruptFlags
  9394 ;; This function uses a non-reentrant model
  9395 ;;
  9396                           
  9397                           	psect	text92
  9398  001A18                     __ptext92:
  9399                           	callstack 0
  9400  001A18                     _I2C2_MasterIsNackFlagSet:
  9401                           	callstack 13
  9402  001A18                     
  9403                           ;../modbus/i2c2_master.c: 666:     return I2C2ERRbits.NACKIF;
  9404  001A18  013D               	movlb	61	; () banked
  9405  001A1A  B960               	btfsc	96,4,b	;volatile
  9406  001A1C  EF12  F00D         	goto	i1u201_21
  9407  001A20  EF15  F00D         	goto	i1u201_20
  9408  001A24                     i1u201_21:
  9409  001A24  0E01               	movlw	1
  9410  001A26  EF16  F00D         	goto	i1u201_26
  9411  001A2A                     i1u201_20:
  9412  001A2A  0E00               	movlw	0
  9413  001A2C                     i1u201_26:
  9414  001A2C                     
  9415                           ; BSR set to: 61
  9416  001A2C  0012               	return		;funcret
  9417  001A2E                     __end_of_I2C2_MasterIsNackFlagSet:
  9418                           	callstack 0
  9419                           
  9420 ;; *************** function _I2C2_MasterIsCountFlagSet *****************
  9421 ;; Defined at:
  9422 ;;		line 661 in file "../modbus/i2c2_master.c"
  9423 ;; Parameters:    Size  Location     Type
  9424 ;;		None
  9425 ;; Auto vars:     Size  Location     Type
  9426 ;;		None
  9427 ;; Return value:  Size  Location     Type
  9428 ;;                  1    wreg      _Bool 
  9429 ;; Registers used:
  9430 ;;		wreg
  9431 ;; Tracked objects:
  9432 ;;		On entry : 0/0
  9433 ;;		On exit  : 0/0
  9434 ;;		Unchanged: 0/0
  9435 ;; Data sizes:     COMRAM   BANK0   BANK1   BANK2   BANK3   BANK4   BANK5   BANK6   BANK7
  9436 ;;      Params:         0       0       0       0       0       0       0       0       0
  9437 ;;      Locals:         0       0       0       0       0       0       0       0       0
  9438 ;;      Temps:          0       0       0       0       0       0       0       0       0
  9439 ;;      Totals:         0       0       0       0       0       0       0       0       0
  9440 ;;Total ram usage:        0 bytes
  9441 ;; Hardware stack levels used: 1
  9442 ;; Hardware stack levels required when called: 8
  9443 ;; This function calls:
  9444 ;;		Nothing
  9445 ;; This function is called by:
  9446 ;;		_I2C2_ClearInterruptFlags
  9447 ;; This function uses a non-reentrant model
  9448 ;;
  9449                           
  9450                           	psect	text93
  9451  001A2E                     __ptext93:
  9452                           	callstack 0
  9453  001A2E                     _I2C2_MasterIsCountFlagSet:
  9454                           	callstack 13
  9455  001A2E                     
  9456                           ;../modbus/i2c2_master.c: 662:     return I2C2PIRbits.CNTIF;
  9457  001A2E  013D               	movlb	61	; () banked
  9458  001A30  BF63               	btfsc	99,7,b	;volatile
  9459  001A32  EF1D  F00D         	goto	i1u199_21
  9460  001A36  EF20  F00D         	goto	i1u199_20
  9461  001A3A                     i1u199_21:
  9462  001A3A  0E01               	movlw	1
  9463  001A3C  EF21  F00D         	goto	i1u199_26
  9464  001A40                     i1u199_20:
  9465  001A40  0E00               	movlw	0
  9466  001A42                     i1u199_26:
  9467  001A42                     
  9468                           ; BSR set to: 61
  9469  001A42  0012               	return		;funcret
  9470  001A44                     __end_of_I2C2_MasterIsCountFlagSet:
  9471                           	callstack 0
  9472                           
  9473 ;; *************** function _I2C2_MasterClearStopFlag *****************
  9474 ;; Defined at:
  9475 ;;		line 669 in file "../modbus/i2c2_master.c"
  9476 ;; Parameters:    Size  Location     Type
  9477 ;;		None
  9478 ;; Auto vars:     Size  Location     Type
  9479 ;;		None
  9480 ;; Return value:  Size  Location     Type
  9481 ;;                  1    wreg      void 
  9482 ;; Registers used:
  9483 ;;		None
  9484 ;; Tracked objects:
  9485 ;;		On entry : 0/0
  9486 ;;		On exit  : 0/0
  9487 ;;		Unchanged: 0/0
  9488 ;; Data sizes:     COMRAM   BANK0   BANK1   BANK2   BANK3   BANK4   BANK5   BANK6   BANK7
  9489 ;;      Params:         0       0       0       0       0       0       0       0       0
  9490 ;;      Locals:         0       0       0       0       0       0       0       0       0
  9491 ;;      Temps:          0       0       0       0       0       0       0       0       0
  9492 ;;      Totals:         0       0       0       0       0       0       0       0       0
  9493 ;;Total ram usage:        0 bytes
  9494 ;; Hardware stack levels used: 1
  9495 ;; Hardware stack levels required when called: 8
  9496 ;; This function calls:
  9497 ;;		Nothing
  9498 ;; This function is called by:
  9499 ;;		_I2C2_ClearInterruptFlags
  9500 ;; This function uses a non-reentrant model
  9501 ;;
  9502                           
  9503                           	psect	text94
  9504  001CD8                     __ptext94:
  9505                           	callstack 0
  9506  001CD8                     _I2C2_MasterClearStopFlag:
  9507                           	callstack 13
  9508  001CD8                     
  9509                           ;../modbus/i2c2_master.c: 670:     I2C2PIRbits.PCIF = 0;
  9510  001CD8  013D               	movlb	61	; () banked
  9511  001CDA  9563               	bcf	99,2,b	;volatile
  9512  001CDC                     
  9513                           ; BSR set to: 61
  9514  001CDC  0012               	return		;funcret
  9515  001CDE                     __end_of_I2C2_MasterClearStopFlag:
  9516                           	callstack 0
  9517                           
  9518 ;; *************** function _I2C2_MasterClearNackFlag *****************
  9519 ;; Defined at:
  9520 ;;		line 677 in file "../modbus/i2c2_master.c"
  9521 ;; Parameters:    Size  Location     Type
  9522 ;;		None
  9523 ;; Auto vars:     Size  Location     Type
  9524 ;;		None
  9525 ;; Return value:  Size  Location     Type
  9526 ;;                  1    wreg      void 
  9527 ;; Registers used:
  9528 ;;		None
  9529 ;; Tracked objects:
  9530 ;;		On entry : 0/0
  9531 ;;		On exit  : 0/0
  9532 ;;		Unchanged: 0/0
  9533 ;; Data sizes:     COMRAM   BANK0   BANK1   BANK2   BANK3   BANK4   BANK5   BANK6   BANK7
  9534 ;;      Params:         0       0       0       0       0       0       0       0       0
  9535 ;;      Locals:         0       0       0       0       0       0       0       0       0
  9536 ;;      Temps:          0       0       0       0       0       0       0       0       0
  9537 ;;      Totals:         0       0       0       0       0       0       0       0       0
  9538 ;;Total ram usage:        0 bytes
  9539 ;; Hardware stack levels used: 1
  9540 ;; Hardware stack levels required when called: 8
  9541 ;; This function calls:
  9542 ;;		Nothing
  9543 ;; This function is called by:
  9544 ;;		_I2C2_ClearInterruptFlags
  9545 ;; This function uses a non-reentrant model
  9546 ;;
  9547                           
  9548                           	psect	text95
  9549  001CDE                     __ptext95:
  9550                           	callstack 0
  9551  001CDE                     _I2C2_MasterClearNackFlag:
  9552                           	callstack 13
  9553  001CDE                     
  9554                           ;../modbus/i2c2_master.c: 678:     I2C2ERRbits.NACKIF = 0;
  9555  001CDE  013D               	movlb	61	; () banked
  9556  001CE0  9960               	bcf	96,4,b	;volatile
  9557  001CE2                     
  9558                           ; BSR set to: 61
  9559  001CE2  0012               	return		;funcret
  9560  001CE4                     __end_of_I2C2_MasterClearNackFlag:
  9561                           	callstack 0
  9562                           
  9563 ;; *************** function _I2C2_MasterClearCountFlag *****************
  9564 ;; Defined at:
  9565 ;;		line 673 in file "../modbus/i2c2_master.c"
  9566 ;; Parameters:    Size  Location     Type
  9567 ;;		None
  9568 ;; Auto vars:     Size  Location     Type
  9569 ;;		None
  9570 ;; Return value:  Size  Location     Type
  9571 ;;                  1    wreg      void 
  9572 ;; Registers used:
  9573 ;;		None
  9574 ;; Tracked objects:
  9575 ;;		On entry : 0/0
  9576 ;;		On exit  : 0/0
  9577 ;;		Unchanged: 0/0
  9578 ;; Data sizes:     COMRAM   BANK0   BANK1   BANK2   BANK3   BANK4   BANK5   BANK6   BANK7
  9579 ;;      Params:         0       0       0       0       0       0       0       0       0
  9580 ;;      Locals:         0       0       0       0       0       0       0       0       0
  9581 ;;      Temps:          0       0       0       0       0       0       0       0       0
  9582 ;;      Totals:         0       0       0       0       0       0       0       0       0
  9583 ;;Total ram usage:        0 bytes
  9584 ;; Hardware stack levels used: 1
  9585 ;; Hardware stack levels required when called: 8
  9586 ;; This function calls:
  9587 ;;		Nothing
  9588 ;; This function is called by:
  9589 ;;		_I2C2_ClearInterruptFlags
  9590 ;; This function uses a non-reentrant model
  9591 ;;
  9592                           
  9593                           	psect	text96
  9594  001CE4                     __ptext96:
  9595                           	callstack 0
  9596  001CE4                     _I2C2_MasterClearCountFlag:
  9597                           	callstack 13
  9598  001CE4                     
  9599                           ;../modbus/i2c2_master.c: 674:     I2C2PIRbits.CNTIF = 0;
  9600  001CE4  013D               	movlb	61	; () banked
  9601  001CE6  9F63               	bcf	99,7,b	;volatile
  9602  001CE8                     
  9603                           ; BSR set to: 61
  9604  001CE8  0012               	return		;funcret
  9605  001CEA                     __end_of_I2C2_MasterClearCountFlag:
  9606                           	callstack 0
  9607                           
  9608 ;; *************** function _INTERRUPT_InterruptManagerHigh *****************
  9609 ;; Defined at:
  9610 ;;		line 81 in file "mcc_generated_files/interrupt_manager.c"
  9611 ;; Parameters:    Size  Location     Type
  9612 ;;		None
  9613 ;; Auto vars:     Size  Location     Type
  9614 ;;		None
  9615 ;; Return value:  Size  Location     Type
  9616 ;;                  1    wreg      void 
  9617 ;; Registers used:
  9618 ;;		wreg, fsr2l, fsr2h, status,2, status,0, pclath, tosl, tblptrl, tblptrh, tblptru, prodl, prodh, cstack
  9619 ;; Tracked objects:
  9620 ;;		On entry : 0/0
  9621 ;;		On exit  : 0/0
  9622 ;;		Unchanged: 0/0
  9623 ;; Data sizes:     COMRAM   BANK0   BANK1   BANK2   BANK3   BANK4   BANK5   BANK6   BANK7
  9624 ;;      Params:         0       0       0       0       0       0       0       0       0
  9625 ;;      Locals:         0       0       0       0       0       0       0       0       0
  9626 ;;      Temps:          4       0       0       0       0       0       0       0       0
  9627 ;;      Totals:         4       0       0       0       0       0       0       0       0
  9628 ;;Total ram usage:        4 bytes
  9629 ;; Hardware stack levels used: 1
  9630 ;; Hardware stack levels required when called: 7
  9631 ;; This function calls:
  9632 ;;		Absolute function
  9633 ;;		_UART1_Receive_ISR
  9634 ;;		i2_I2C2_MasterIsr
  9635 ;; This function is called by:
  9636 ;;		Interrupt level 2
  9637 ;; This function uses a non-reentrant model
  9638 ;;
  9639                           
  9640                           	psect	text97
  9641  0006FC                     __ptext97:
  9642                           	callstack 0
  9643  0006FC                     _INTERRUPT_InterruptManagerHigh:
  9644                           	callstack 10
  9645                           
  9646                           ; BSR set to: 61
  9647                           ;incstack = 0
  9648  0006FC  006F FFD8  F038    	movff	tblptrl,??_INTERRUPT_InterruptManagerHigh
  9649  000702  006F FFDC  F039    	movff	tblptrh,??_INTERRUPT_InterruptManagerHigh+1
  9650  000708  006F FFE0  F03A    	movff	tblptru,??_INTERRUPT_InterruptManagerHigh+2
  9651  00070E  006F FFD4  F03B    	movff	tablat,??_INTERRUPT_InterruptManagerHigh+3
  9652  000714                     
  9653                           ;mcc_generated_files/interrupt_manager.c: 83:     if (PIE3bits.U1RXIE == 1 && PIR3bits.U
      +                          1RXIF == 1) {
  9654  000714  0139               	movlb	57	; () banked
  9655  000716  A793               	btfss	147,3,b	;volatile
  9656  000718  EF90  F003         	goto	i2u296_41
  9657  00071C  EF92  F003         	goto	i2u296_40
  9658  000720                     i2u296_41:
  9659  000720  EFA7  F003         	goto	i2l6377
  9660  000724                     i2u296_40:
  9661  000724                     
  9662                           ; BSR set to: 57
  9663  000724  A7A3               	btfss	163,3,b	;volatile
  9664  000726  EF97  F003         	goto	i2u297_41
  9665  00072A  EF99  F003         	goto	i2u297_40
  9666  00072E                     i2u297_41:
  9667  00072E  EFA7  F003         	goto	i2l6377
  9668  000732                     i2u297_40:
  9669  000732                     
  9670                           ; BSR set to: 57
  9671                           ;mcc_generated_files/interrupt_manager.c: 84:         UART1_RxInterruptHandler();
  9672  000732  D802               	call	i2u298_48
  9673  000734  EFA7  F003         	goto	i2u298_49
  9674  000738                     i2u298_48:
  9675  000738  0005               	push	
  9676  00073A  0100               	movlb	0	; () banked
  9677  00073C  6EFA               	movwf	pclath,c
  9678  00073E  51F6               	movf	_UART1_RxInterruptHandler& (0+255),w,b
  9679  000740  6EFD               	movwf	tosl,c
  9680  000742  51F7               	movf	(_UART1_RxInterruptHandler+1)& (0+255),w,b
  9681  000744  6EFE               	movwf	tosh,c
  9682  000746  50F8               	movf	tblptru,w,c
  9683  000748  6EFF               	movwf	tosu,c
  9684  00074A  50FA               	movf	pclath,w,c
  9685  00074C  0012               	return		;indir
  9686  00074E                     i2u298_49:
  9687  00074E                     i2l6377:
  9688                           
  9689                           ;mcc_generated_files/interrupt_manager.c: 86:     if (PIE5bits.I2C2RXIE == 1 && PIR5bits
      +                          .I2C2RXIF == 1) {
  9690  00074E  0139               	movlb	57	; () banked
  9691  000750  AD95               	btfss	149,6,b	;volatile
  9692  000752  EFAD  F003         	goto	i2u299_41
  9693  000756  EFAF  F003         	goto	i2u299_40
  9694  00075A                     i2u299_41:
  9695  00075A  EFC5  F003         	goto	i2l276
  9696  00075E                     i2u299_40:
  9697  00075E                     
  9698                           ; BSR set to: 57
  9699  00075E  ADA5               	btfss	165,6,b	;volatile
  9700  000760  EFB4  F003         	goto	i2u300_41
  9701  000764  EFB6  F003         	goto	i2u300_40
  9702  000768                     i2u300_41:
  9703  000768  EFC5  F003         	goto	i2l276
  9704  00076C                     i2u300_40:
  9705  00076C                     i2l6381:
  9706                           
  9707                           ; BSR set to: 57
  9708                           ;mcc_generated_files/interrupt_manager.c: 87:         I2C2_InterruptHandler();
  9709  00076C  D802               	call	i2u301_48
  9710  00076E  EFC3  F003         	goto	i2u301_49
  9711  000772                     i2u301_48:
  9712  000772  0005               	push	
  9713  000774  6EFA               	movwf	pclath,c
  9714  000776  5005               	movf	_I2C2_InterruptHandler^0,w,c
  9715  000778  6EFD               	movwf	tosl,c
  9716  00077A  5006               	movf	(_I2C2_InterruptHandler+1)^0,w,c
  9717  00077C  6EFE               	movwf	tosh,c
  9718  00077E  50F8               	movf	tblptru,w,c
  9719  000780  6EFF               	movwf	tosu,c
  9720  000782  50FA               	movf	pclath,w,c
  9721  000784  0012               	return		;indir
  9722  000786                     i2u301_49:
  9723                           
  9724                           ;mcc_generated_files/interrupt_manager.c: 88:     } else if (PIE5bits.I2C2TXIE == 1 && P
      +                          IR5bits.I2C2TXIF == 1) {
  9725  000786  EFD5  F003         	goto	i2l280
  9726  00078A                     i2l276:
  9727                           
  9728                           ; BSR set to: 57
  9729  00078A  AF95               	btfss	149,7,b	;volatile
  9730  00078C  EFCA  F003         	goto	i2u302_41
  9731  000790  EFCC  F003         	goto	i2u302_40
  9732  000794                     i2u302_41:
  9733  000794  EFD5  F003         	goto	i2l280
  9734  000798                     i2u302_40:
  9735  000798                     
  9736                           ; BSR set to: 57
  9737  000798  AFA5               	btfss	165,7,b	;volatile
  9738  00079A  EFD1  F003         	goto	i2u303_41
  9739  00079E  EFD3  F003         	goto	i2u303_40
  9740  0007A2                     i2u303_41:
  9741  0007A2  EFD5  F003         	goto	i2l280
  9742  0007A6                     i2u303_40:
  9743  0007A6  EFB6  F003         	goto	i2l6381
  9744  0007AA                     i2l280:
  9745  0007AA  0060  F0EF  FFF5   	movff	??_INTERRUPT_InterruptManagerHigh+3,tablat
  9746  0007B0  0060  F0EB  FFF8   	movff	??_INTERRUPT_InterruptManagerHigh+2,tblptru
  9747  0007B6  0060  F0E7  FFF7   	movff	??_INTERRUPT_InterruptManagerHigh+1,tblptrh
  9748  0007BC  0060  F0E3  FFF6   	movff	??_INTERRUPT_InterruptManagerHigh,tblptrl
  9749  0007C2  0011               	retfie		f
  9750  0007C4                     __end_of_INTERRUPT_InterruptManagerHigh:
  9751                           	callstack 0
  9752                           
  9753 ;; *************** function i2_I2C2_MasterIsr *****************
  9754 ;; Defined at:
  9755 ;;		line 326 in file "../modbus/i2c2_master.c"
  9756 ;; Parameters:    Size  Location     Type
  9757 ;;		None
  9758 ;; Auto vars:     Size  Location     Type
  9759 ;;		None
  9760 ;; Return value:  Size  Location     Type
  9761 ;;                  1    wreg      void 
  9762 ;; Registers used:
  9763 ;;		wreg, fsr2l, fsr2h, status,2, status,0, pclath, tosl, tblptrl, tblptrh, tblptru, prodl, prodh, cstack
  9764 ;; Tracked objects:
  9765 ;;		On entry : 0/0
  9766 ;;		On exit  : 0/0
  9767 ;;		Unchanged: 0/0
  9768 ;; Data sizes:     COMRAM   BANK0   BANK1   BANK2   BANK3   BANK4   BANK5   BANK6   BANK7
  9769 ;;      Params:         0       0       0       0       0       0       0       0       0
  9770 ;;      Locals:         0       0       0       0       0       0       0       0       0
  9771 ;;      Temps:          0       0       0       0       0       0       0       0       0
  9772 ;;      Totals:         0       0       0       0       0       0       0       0       0
  9773 ;;Total ram usage:        0 bytes
  9774 ;; Hardware stack levels used: 1
  9775 ;; Hardware stack levels required when called: 6
  9776 ;; This function calls:
  9777 ;;		i2_I2C2_MasterFsm
  9778 ;; This function is called by:
  9779 ;;		_INTERRUPT_InterruptManagerHigh
  9780 ;;		_INTERRUPT_InterruptManagerLow
  9781 ;; This function uses a non-reentrant model
  9782 ;;
  9783                           
  9784                           	psect	text98
  9785  001CEA                     __ptext98:
  9786                           	callstack 0
  9787  001CEA                     i2_I2C2_MasterIsr:
  9788                           	callstack 10
  9789  001CEA                     
  9790                           ;../modbus/i2c2_master.c: 327:     I2C2_MasterFsm();
  9791  001CEA  EC74  F008         	call	i2_I2C2_MasterFsm	;wreg free
  9792  001CEE  0012               	return		;funcret
  9793  001CF0                     __end_ofi2_I2C2_MasterIsr:
  9794                           	callstack 0
  9795                           
  9796 ;; *************** function i2_I2C2_MasterFsm *****************
  9797 ;; Defined at:
  9798 ;;		line 330 in file "../modbus/i2c2_master.c"
  9799 ;; Parameters:    Size  Location     Type
  9800 ;;		None
  9801 ;; Auto vars:     Size  Location     Type
  9802 ;;		None
  9803 ;; Return value:  Size  Location     Type
  9804 ;;                  1    wreg      void 
  9805 ;; Registers used:
  9806 ;;		wreg, fsr2l, fsr2h, status,2, status,0, pclath, tosl, tblptrl, tblptrh, tblptru, prodl, prodh, cstack
  9807 ;; Tracked objects:
  9808 ;;		On entry : 0/0
  9809 ;;		On exit  : 0/0
  9810 ;;		Unchanged: 0/0
  9811 ;; Data sizes:     COMRAM   BANK0   BANK1   BANK2   BANK3   BANK4   BANK5   BANK6   BANK7
  9812 ;;      Params:         0       0       0       0       0       0       0       0       0
  9813 ;;      Locals:         0       0       0       0       0       0       0       0       0
  9814 ;;      Temps:          0       0       0       0       0       0       0       0       0
  9815 ;;      Totals:         0       0       0       0       0       0       0       0       0
  9816 ;;Total ram usage:        0 bytes
  9817 ;; Hardware stack levels used: 1
  9818 ;; Hardware stack levels required when called: 5
  9819 ;; This function calls:
  9820 ;;		i2_I2C2_ClearInterruptFlags
  9821 ;;		i2_I2C2_DO_ADDRESS_NACK
  9822 ;;		i2_I2C2_DO_BUS_COLLISION
  9823 ;;		i2_I2C2_DO_BUS_ERROR
  9824 ;;		i2_I2C2_DO_IDLE
  9825 ;;		i2_I2C2_DO_RESET
  9826 ;;		i2_I2C2_DO_RX
  9827 ;;		i2_I2C2_DO_RX_ACK
  9828 ;;		i2_I2C2_DO_RX_EMPTY
  9829 ;;		i2_I2C2_DO_RX_NACK_RESTART
  9830 ;;		i2_I2C2_DO_RX_NACK_STOP
  9831 ;;		i2_I2C2_DO_SEND_ADR_READ
  9832 ;;		i2_I2C2_DO_SEND_ADR_WRITE
  9833 ;;		i2_I2C2_DO_SEND_RESTART
  9834 ;;		i2_I2C2_DO_SEND_RESTART_READ
  9835 ;;		i2_I2C2_DO_SEND_RESTART_WRITE
  9836 ;;		i2_I2C2_DO_SEND_STOP
  9837 ;;		i2_I2C2_DO_TX
  9838 ;;		i2_I2C2_DO_TX_ACK
  9839 ;;		i2_I2C2_DO_TX_EMPTY
  9840 ;;		i2_I2C2_MasterIsNack
  9841 ;; This function is called by:
  9842 ;;		i2_I2C2_MasterIsr
  9843 ;; This function uses a non-reentrant model
  9844 ;;
  9845                           
  9846                           	psect	text99
  9847  0010E8                     __ptext99:
  9848                           	callstack 0
  9849  0010E8                     i2_I2C2_MasterFsm:
  9850                           	callstack 10
  9851  0010E8                     
  9852                           ;../modbus/i2c2_master.c: 331:     I2C2_ClearInterruptFlags();
  9853  0010E8  ECB7  F009         	call	i2_I2C2_ClearInterruptFlags	;wreg free
  9854  0010EC                     
  9855                           ;../modbus/i2c2_master.c: 333:     if (I2C2_Status.addressNackCheck && I2C2_MasterIsNack
      +                          ()) {
  9856  0010EC  0100               	movlb	0	; () banked
  9857  0010EE  5183               	movf	(_I2C2_Status+35)& (0+255),w,b
  9858  0010F0  0B03               	andlw	3
  9859  0010F2  0900               	iorlw	0
  9860  0010F4  B4D8               	btfsc	status,2,c
  9861  0010F6  EF7F  F008         	goto	i2u268_41
  9862  0010FA  EF81  F008         	goto	i2u268_40
  9863  0010FE                     i2u268_41:
  9864  0010FE  EF8E  F008         	goto	i2l6117
  9865  001102                     i2u268_40:
  9866  001102                     
  9867                           ; BSR set to: 0
  9868  001102  EC38  F00D         	call	i2_I2C2_MasterIsNack	;wreg free
  9869  001106  0900               	iorlw	0
  9870  001108  B4D8               	btfsc	status,2,c
  9871  00110A  EF89  F008         	goto	i2u269_41
  9872  00110E  EF8B  F008         	goto	i2u269_40
  9873  001112                     i2u269_41:
  9874  001112  EF8E  F008         	goto	i2l6117
  9875  001116                     i2u269_40:
  9876  001116                     
  9877                           ;../modbus/i2c2_master.c: 334:         I2C2_Status.state = I2C2_ADDRESS_NACK;
  9878  001116  0E10               	movlw	16
  9879  001118  0100               	movlb	0	; () banked
  9880  00111A  6F81               	movwf	(_I2C2_Status+33)& (0+255),b
  9881  00111C                     i2l6117:
  9882                           
  9883                           ;../modbus/i2c2_master.c: 336:     I2C2_Status.state = i2c2_fsmStateTable[I2C2_Status.st
      +                          ate]();
  9884  00111C  0100               	movlb	0	; () banked
  9885  00111E  5181               	movf	(_I2C2_Status+33)& (0+255),w,b
  9886  001120  0D02               	mullw	2
  9887  001122  0EBF               	movlw	low _i2c2_fsmStateTable
  9888  001124  24F3               	addwf	243,w,c
  9889  001126  6EF6               	movwf	tblptrl,c
  9890  001128  0E7F               	movlw	high _i2c2_fsmStateTable
  9891  00112A  20F4               	addwfc	244,w,c
  9892  00112C  6EF7               	movwf	tblptrh,c
  9893  00112E                     	if	0	;There are less than 3 active tblptr bytes
  9894  00112E                     	endif
  9895  00112E  D802               	call	i2u270_48
  9896  001130  EFA6  F008         	goto	i2u270_49
  9897  001134                     i2u270_48:
  9898  001134  0005               	push	
  9899  001136  6EFA               	movwf	pclath,c
  9900  001138  0009               	tblrd		*+
  9901  00113A  50F5               	movf	tablat,w,c
  9902  00113C  6EFD               	movwf	tosl,c
  9903  00113E  0009               	tblrd		*+
  9904  001140  50F5               	movf	tablat,w,c
  9905  001142  6EFE               	movwf	tosh,c
  9906  001144  50F8               	movf	tblptru,w,c
  9907  001146  6EFF               	movwf	tosu,c
  9908  001148  50FA               	movf	pclath,w,c
  9909  00114A  0012               	return		;indir
  9910  00114C                     i2u270_49:
  9911  00114C  0100               	movlb	0	; () banked
  9912  00114E  6F81               	movwf	(_I2C2_Status+33)& (0+255),b
  9913  001150                     
  9914                           ; BSR set to: 0
  9915  001150  0012               	return		;funcret
  9916  001152                     __end_ofi2_I2C2_MasterFsm:
  9917                           	callstack 0
  9918                           
  9919 ;; *************** function i2_I2C2_DO_BUS_ERROR *****************
  9920 ;; Defined at:
  9921 ;;		line 530 in file "../modbus/i2c2_master.c"
  9922 ;; Parameters:    Size  Location     Type
  9923 ;;		None
  9924 ;; Auto vars:     Size  Location     Type
  9925 ;;		None
  9926 ;; Return value:  Size  Location     Type
  9927 ;;                  1    wreg      enum E16535
  9928 ;; Registers used:
  9929 ;;		wreg, status,2, cstack
  9930 ;; Tracked objects:
  9931 ;;		On entry : 0/0
  9932 ;;		On exit  : 0/0
  9933 ;;		Unchanged: 0/0
  9934 ;; Data sizes:     COMRAM   BANK0   BANK1   BANK2   BANK3   BANK4   BANK5   BANK6   BANK7
  9935 ;;      Params:         0       0       0       0       0       0       0       0       0
  9936 ;;      Locals:         0       0       0       0       0       0       0       0       0
  9937 ;;      Temps:          0       0       0       0       0       0       0       0       0
  9938 ;;      Totals:         0       0       0       0       0       0       0       0       0
  9939 ;;Total ram usage:        0 bytes
  9940 ;; Hardware stack levels used: 1
  9941 ;; Hardware stack levels required when called: 1
  9942 ;; This function calls:
  9943 ;;		i2_I2C2_MasterResetBus
  9944 ;; This function is called by:
  9945 ;; This function uses a non-reentrant model
  9946 ;;
  9947                           
  9948                           	psect	text100
  9949  001B4C                     __ptext100:
  9950                           	callstack 0
  9951  001B4C                     i2_I2C2_DO_BUS_ERROR:
  9952                           	callstack 13
  9953  001B4C                     
  9954                           ;../modbus/i2c2_master.c: 531:     I2C2_MasterResetBus();
  9955  001B4C  EC31  F00E         	call	i2_I2C2_MasterResetBus	;wreg free
  9956  001B50                     
  9957                           ;../modbus/i2c2_master.c: 532:     I2C2_Status.busy = 0;
  9958  001B50  0100               	movlb	0	; () banked
  9959  001B52  9583               	bcf	(_I2C2_Status+35)& (0+255),2,b
  9960  001B54                     
  9961                           ; BSR set to: 0
  9962                           ;../modbus/i2c2_master.c: 533:     I2C2_Status.error = I2C2_FAIL;
  9963  001B54  0E02               	movlw	2
  9964  001B56  6F82               	movwf	(_I2C2_Status+34)& (0+255),b
  9965  001B58                     
  9966                           ; BSR set to: 0
  9967                           ;../modbus/i2c2_master.c: 534:     return I2C2_RESET;
  9968  001B58  0E0F               	movlw	15
  9969  001B5A                     
  9970                           ; BSR set to: 0
  9971  001B5A  0012               	return		;funcret
  9972  001B5C                     __end_ofi2_I2C2_DO_BUS_ERROR:
  9973                           	callstack 0
  9974                           
  9975 ;; *************** function i2_I2C2_DO_BUS_COLLISION *****************
  9976 ;; Defined at:
  9977 ;;		line 515 in file "../modbus/i2c2_master.c"
  9978 ;; Parameters:    Size  Location     Type
  9979 ;;		None
  9980 ;; Auto vars:     Size  Location     Type
  9981 ;;		None
  9982 ;; Return value:  Size  Location     Type
  9983 ;;                  1    wreg      enum E16535
  9984 ;; Registers used:
  9985 ;;		wreg, fsr2l, fsr2h, status,2, status,0, pclath, tosl, cstack
  9986 ;; Tracked objects:
  9987 ;;		On entry : 0/0
  9988 ;;		On exit  : 0/0
  9989 ;;		Unchanged: 0/0
  9990 ;; Data sizes:     COMRAM   BANK0   BANK1   BANK2   BANK3   BANK4   BANK5   BANK6   BANK7
  9991 ;;      Params:         0       0       0       0       0       0       0       0       0
  9992 ;;      Locals:         0       0       0       0       0       0       0       0       0
  9993 ;;      Temps:          2       0       0       0       0       0       0       0       0
  9994 ;;      Totals:         2       0       0       0       0       0       0       0       0
  9995 ;;Total ram usage:        2 bytes
  9996 ;; Hardware stack levels used: 1
  9997 ;; Hardware stack levels required when called: 4
  9998 ;; This function calls:
  9999 ;;		Absolute function
 10000 ;;		i2_I2C2_CallbackReturnReset
 10001 ;;		i2_I2C2_CallbackReturnStop
 10002 ;;		i2_I2C2_DO_RESET
 10003 ;;		i2_I2C2_DO_SEND_RESTART_READ
 10004 ;;		i2_I2C2_DO_SEND_RESTART_WRITE
 10005 ;;		i2_I2C2_MasterClearIrq
 10006 ;; This function is called by:
 10007 ;; This function uses a non-reentrant model
 10008 ;;
 10009                           
 10010                           	psect	text101
 10011  000F9A                     __ptext101:
 10012                           	callstack 0
 10013  000F9A                     i2_I2C2_DO_BUS_COLLISION:
 10014                           	callstack 10
 10015  000F9A                     
 10016                           ;../modbus/i2c2_master.c: 517:     I2C2_MasterClearIrq();
 10017  000F9A  EC53  F00E         	call	i2_I2C2_MasterClearIrq	;wreg free
 10018  000F9E                     
 10019                           ;../modbus/i2c2_master.c: 519:     I2C2_Status.error = I2C2_FAIL;
 10020  000F9E  0E02               	movlw	2
 10021  000FA0  0100               	movlb	0	; () banked
 10022  000FA2  6F82               	movwf	(_I2C2_Status+34)& (0+255),b
 10023                           
 10024                           ;../modbus/i2c2_master.c: 520:     switch (I2C2_Status.callbackTable[I2C2_WRITE_COLLISIO
      +                          N](I2C2_Status.callbackPayload[I2C2_WRITE_COLLISION])) {
 10025  000FA4  EFE0  F007         	goto	i2l5889
 10026  000FA8                     i2l5875:
 10027                           
 10028                           ;../modbus/i2c2_master.c: 522:             return I2C2_DO_SEND_RESTART_READ();
 10029  000FA8  ECD9  F00D         	call	i2_I2C2_DO_SEND_RESTART_READ	;wreg free
 10030  000FAC  EF07  F008         	goto	i2l1784
 10031  000FB0                     i2l5879:
 10032                           
 10033                           ;../modbus/i2c2_master.c: 524:             return I2C2_DO_SEND_RESTART_WRITE();
 10034  000FB0  EC98  F00E         	call	i2_I2C2_DO_SEND_RESTART_WRITE	;wreg free
 10035  000FB4  EF07  F008         	goto	i2l1784
 10036  000FB8                     i2l5883:
 10037                           
 10038                           ;../modbus/i2c2_master.c: 526:             return I2C2_DO_RESET();
 10039  000FB8  ECAE  F00D         	call	i2_I2C2_DO_RESET	;wreg free
 10040  000FBC  EF07  F008         	goto	i2l1784
 10041  000FC0                     i2l5889:
 10042                           
 10043                           ; BSR set to: 0
 10044  000FC0  C06E  F030         	movff	_I2C2_Status+14,i2I2C2_CallbackReturnReset@funPtr
 10045  000FC4  C06F  F031         	movff	_I2C2_Status+15,i2I2C2_CallbackReturnReset@funPtr+1
 10046  000FC8  EE20  F062         	lfsr	2,_I2C2_Status+2
 10047  000FCC  D802               	call	i2u256_48
 10048  000FCE  EFF3  F007         	goto	i2u256_49
 10049  000FD2                     i2u256_48:
 10050  000FD2  0005               	push	
 10051  000FD4  6EFA               	movwf	pclath,c
 10052  000FD6  50DE               	movf	postinc2,w,c
 10053  000FD8  6EFD               	movwf	tosl,c
 10054  000FDA  50DE               	movf	postinc2,w,c
 10055  000FDC  6EFE               	movwf	tosh,c
 10056  000FDE  50F8               	movf	tblptru,w,c
 10057  000FE0  6EFF               	movwf	tosu,c
 10058  000FE2  50FA               	movf	pclath,w,c
 10059  000FE4  0012               	return		;indir
 10060  000FE6                     i2u256_49:
 10061  000FE6  6E32               	movwf	??i2_I2C2_DO_BUS_COLLISION^0,c
 10062  000FE8  6A33               	clrf	(??i2_I2C2_DO_BUS_COLLISION+1)^0,c
 10063                           
 10064                           ; Switch on 2 bytes has been partitioned into a top level switch of size 1, and 1 sub-sw
      +                          itches
 10065                           ; Switch size 1, requested type "simple"
 10066                           ; Number of cases is 1, Range of values is 0 to 0
 10067                           ; switch strategies available:
 10068                           ; Name         Instructions Cycles
 10069                           ; simple_byte            4     3 (average)
 10070                           ;	Chosen strategy is simple_byte
 10071  000FEA  5033               	movf	(??i2_I2C2_DO_BUS_COLLISION+1)^0,w,c
 10072  000FEC  0A00               	xorlw	0	; case 0
 10073  000FEE  B4D8               	btfsc	status,2,c
 10074  000FF0  EFFC  F007         	goto	i2l8181
 10075  000FF4  EFDC  F007         	goto	i2l5883
 10076  000FF8                     i2l8181:
 10077                           
 10078                           ; Switch size 1, requested type "simple"
 10079                           ; Number of cases is 2, Range of values is 2 to 3
 10080                           ; switch strategies available:
 10081                           ; Name         Instructions Cycles
 10082                           ; simple_byte            7     4 (average)
 10083                           ;	Chosen strategy is simple_byte
 10084  000FF8  5032               	movf	??i2_I2C2_DO_BUS_COLLISION^0,w,c
 10085  000FFA  0A02               	xorlw	2	; case 2
 10086  000FFC  B4D8               	btfsc	status,2,c
 10087  000FFE  EFD4  F007         	goto	i2l5875
 10088  001002  0A01               	xorlw	1	; case 3
 10089  001004  B4D8               	btfsc	status,2,c
 10090  001006  EFD8  F007         	goto	i2l5879
 10091  00100A  EFDC  F007         	goto	i2l5883
 10092  00100E                     i2l1784:
 10093  00100E  0012               	return		;funcret
 10094  001010                     __end_ofi2_I2C2_DO_BUS_COLLISION:
 10095                           	callstack 0
 10096                           
 10097 ;; *************** function i2_I2C2_DO_ADDRESS_NACK *****************
 10098 ;; Defined at:
 10099 ;;		line 502 in file "../modbus/i2c2_master.c"
 10100 ;; Parameters:    Size  Location     Type
 10101 ;;		None
 10102 ;; Auto vars:     Size  Location     Type
 10103 ;;		None
 10104 ;; Return value:  Size  Location     Type
 10105 ;;                  1    wreg      enum E16535
 10106 ;; Registers used:
 10107 ;;		wreg, fsr2l, fsr2h, status,2, status,0, pclath, tosl, cstack
 10108 ;; Tracked objects:
 10109 ;;		On entry : 0/0
 10110 ;;		On exit  : 0/0
 10111 ;;		Unchanged: 0/0
 10112 ;; Data sizes:     COMRAM   BANK0   BANK1   BANK2   BANK3   BANK4   BANK5   BANK6   BANK7
 10113 ;;      Params:         0       0       0       0       0       0       0       0       0
 10114 ;;      Locals:         0       0       0       0       0       0       0       0       0
 10115 ;;      Temps:          2       0       0       0       0       0       0       0       0
 10116 ;;      Totals:         2       0       0       0       0       0       0       0       0
 10117 ;;Total ram usage:        2 bytes
 10118 ;; Hardware stack levels used: 1
 10119 ;; Hardware stack levels required when called: 1
 10120 ;; This function calls:
 10121 ;;		Absolute function
 10122 ;;		i2_I2C2_CallbackReturnReset
 10123 ;;		i2_I2C2_CallbackReturnStop
 10124 ;;		i2_I2C2_DO_SEND_RESTART
 10125 ;; This function is called by:
 10126 ;; This function uses a non-reentrant model
 10127 ;;
 10128                           
 10129                           	psect	text102
 10130  001010                     __ptext102:
 10131                           	callstack 0
 10132  001010                     i2_I2C2_DO_ADDRESS_NACK:
 10133                           	callstack 13
 10134  001010                     
 10135                           ;../modbus/i2c2_master.c: 503:     I2C2_Status.addressNackCheck = 0;
 10136  001010  0EFC               	movlw	-4
 10137  001012  0100               	movlb	0	; () banked
 10138  001014  1783               	andwf	(_I2C2_Status+35)& (0+255),f,b
 10139                           
 10140                           ;../modbus/i2c2_master.c: 504:     I2C2_Status.error = I2C2_FAIL;
 10141  001016  0E02               	movlw	2
 10142  001018  6F82               	movwf	(_I2C2_Status+34)& (0+255),b
 10143  00101A                     
 10144                           ; BSR set to: 0
 10145                           ;../modbus/i2c2_master.c: 505:     I2C2_Status.busy = 0;
 10146  00101A  9583               	bcf	(_I2C2_Status+35)& (0+255),2,b
 10147                           
 10148                           ;../modbus/i2c2_master.c: 506:     switch (I2C2_Status.callbackTable[I2C2_ADDR_NACK](I2C
      +                          2_Status.callbackPayload[I2C2_ADDR_NACK])) {
 10149  00101C  EF17  F008         	goto	i2l5865
 10150  001020                     i2l5855:
 10151                           
 10152                           ;../modbus/i2c2_master.c: 509:             return I2C2_DO_SEND_RESTART();
 10153  001020  EC96  F00E         	call	i2_I2C2_DO_SEND_RESTART	;wreg free
 10154  001024  EF3E  F008         	goto	i2l1777
 10155  001028                     i2l5859:
 10156                           
 10157                           ;../modbus/i2c2_master.c: 511:             return I2C2_RESET;
 10158  001028  0E0F               	movlw	15
 10159  00102A  EF3E  F008         	goto	i2l1777
 10160  00102E                     i2l5865:
 10161                           
 10162                           ; BSR set to: 0
 10163  00102E  C070  F030         	movff	_I2C2_Status+16,i2I2C2_CallbackReturnReset@funPtr
 10164  001032  C071  F031         	movff	_I2C2_Status+17,i2I2C2_CallbackReturnReset@funPtr+1
 10165  001036  EE20  F064         	lfsr	2,_I2C2_Status+4
 10166  00103A  D802               	call	i2u255_48
 10167  00103C  EF2A  F008         	goto	i2u255_49
 10168  001040                     i2u255_48:
 10169  001040  0005               	push	
 10170  001042  6EFA               	movwf	pclath,c
 10171  001044  50DE               	movf	postinc2,w,c
 10172  001046  6EFD               	movwf	tosl,c
 10173  001048  50DE               	movf	postinc2,w,c
 10174  00104A  6EFE               	movwf	tosh,c
 10175  00104C  50F8               	movf	tblptru,w,c
 10176  00104E  6EFF               	movwf	tosu,c
 10177  001050  50FA               	movf	pclath,w,c
 10178  001052  0012               	return		;indir
 10179  001054                     i2u255_49:
 10180  001054  6E32               	movwf	??i2_I2C2_DO_ADDRESS_NACK^0,c
 10181  001056  6A33               	clrf	(??i2_I2C2_DO_ADDRESS_NACK+1)^0,c
 10182                           
 10183                           ; Switch on 2 bytes has been partitioned into a top level switch of size 1, and 1 sub-sw
      +                          itches
 10184                           ; Switch size 1, requested type "simple"
 10185                           ; Number of cases is 1, Range of values is 0 to 0
 10186                           ; switch strategies available:
 10187                           ; Name         Instructions Cycles
 10188                           ; simple_byte            4     3 (average)
 10189                           ;	Chosen strategy is simple_byte
 10190  001058  5033               	movf	(??i2_I2C2_DO_ADDRESS_NACK+1)^0,w,c
 10191  00105A  0A00               	xorlw	0	; case 0
 10192  00105C  B4D8               	btfsc	status,2,c
 10193  00105E  EF33  F008         	goto	i2l8183
 10194  001062  EF14  F008         	goto	i2l5859
 10195  001066                     i2l8183:
 10196                           
 10197                           ; Switch size 1, requested type "simple"
 10198                           ; Number of cases is 2, Range of values is 2 to 3
 10199                           ; switch strategies available:
 10200                           ; Name         Instructions Cycles
 10201                           ; simple_byte            7     4 (average)
 10202                           ;	Chosen strategy is simple_byte
 10203  001066  5032               	movf	??i2_I2C2_DO_ADDRESS_NACK^0,w,c
 10204  001068  0A02               	xorlw	2	; case 2
 10205  00106A  B4D8               	btfsc	status,2,c
 10206  00106C  EF10  F008         	goto	i2l5855
 10207  001070  0A01               	xorlw	1	; case 3
 10208  001072  B4D8               	btfsc	status,2,c
 10209  001074  EF10  F008         	goto	i2l5855
 10210  001078  EF14  F008         	goto	i2l5859
 10211  00107C                     i2l1777:
 10212  00107C  0012               	return		;funcret
 10213  00107E                     __end_ofi2_I2C2_DO_ADDRESS_NACK:
 10214                           	callstack 0
 10215                           
 10216 ;; *************** function i2_I2C2_DO_RESET *****************
 10217 ;; Defined at:
 10218 ;;		line 495 in file "../modbus/i2c2_master.c"
 10219 ;; Parameters:    Size  Location     Type
 10220 ;;		None
 10221 ;; Auto vars:     Size  Location     Type
 10222 ;;		None
 10223 ;; Return value:  Size  Location     Type
 10224 ;;                  1    wreg      enum E16535
 10225 ;; Registers used:
 10226 ;;		wreg, status,2, cstack
 10227 ;; Tracked objects:
 10228 ;;		On entry : 0/0
 10229 ;;		On exit  : 0/0
 10230 ;;		Unchanged: 0/0
 10231 ;; Data sizes:     COMRAM   BANK0   BANK1   BANK2   BANK3   BANK4   BANK5   BANK6   BANK7
 10232 ;;      Params:         0       0       0       0       0       0       0       0       0
 10233 ;;      Locals:         0       0       0       0       0       0       0       0       0
 10234 ;;      Temps:          0       0       0       0       0       0       0       0       0
 10235 ;;      Totals:         0       0       0       0       0       0       0       0       0
 10236 ;;Total ram usage:        0 bytes
 10237 ;; Hardware stack levels used: 1
 10238 ;; Hardware stack levels required when called: 1
 10239 ;; This function calls:
 10240 ;;		i2_I2C2_MasterResetBus
 10241 ;; This function is called by:
 10242 ;;		i2_I2C2_DO_BUS_COLLISION
 10243 ;; This function uses a non-reentrant model
 10244 ;;
 10245                           
 10246                           	psect	text103
 10247  001B5C                     __ptext103:
 10248                           	callstack 0
 10249  001B5C                     i2_I2C2_DO_RESET:
 10250                           	callstack 13
 10251  001B5C                     
 10252                           ;../modbus/i2c2_master.c: 496:     I2C2_MasterResetBus();
 10253  001B5C  EC31  F00E         	call	i2_I2C2_MasterResetBus	;wreg free
 10254  001B60                     
 10255                           ;../modbus/i2c2_master.c: 497:     I2C2_Status.busy = 0;
 10256  001B60  0100               	movlb	0	; () banked
 10257  001B62  9583               	bcf	(_I2C2_Status+35)& (0+255),2,b
 10258  001B64                     
 10259                           ; BSR set to: 0
 10260                           ;../modbus/i2c2_master.c: 498:     I2C2_Status.error = I2C2_NOERR;
 10261  001B64  0E00               	movlw	0
 10262  001B66  6F82               	movwf	(_I2C2_Status+34)& (0+255),b
 10263  001B68                     
 10264                           ; BSR set to: 0
 10265                           ;../modbus/i2c2_master.c: 499:     return I2C2_RESET;
 10266  001B68  0E0F               	movlw	15
 10267  001B6A                     
 10268                           ; BSR set to: 0
 10269  001B6A  0012               	return		;funcret
 10270  001B6C                     __end_ofi2_I2C2_DO_RESET:
 10271                           	callstack 0
 10272                           
 10273 ;; *************** function i2_I2C2_DO_RX_NACK_RESTART *****************
 10274 ;; Defined at:
 10275 ;;		line 490 in file "../modbus/i2c2_master.c"
 10276 ;; Parameters:    Size  Location     Type
 10277 ;;		None
 10278 ;; Auto vars:     Size  Location     Type
 10279 ;;		None
 10280 ;; Return value:  Size  Location     Type
 10281 ;;                  1    wreg      enum E16535
 10282 ;; Registers used:
 10283 ;;		wreg, cstack
 10284 ;; Tracked objects:
 10285 ;;		On entry : 0/0
 10286 ;;		On exit  : 0/0
 10287 ;;		Unchanged: 0/0
 10288 ;; Data sizes:     COMRAM   BANK0   BANK1   BANK2   BANK3   BANK4   BANK5   BANK6   BANK7
 10289 ;;      Params:         0       0       0       0       0       0       0       0       0
 10290 ;;      Locals:         0       0       0       0       0       0       0       0       0
 10291 ;;      Temps:          0       0       0       0       0       0       0       0       0
 10292 ;;      Totals:         0       0       0       0       0       0       0       0       0
 10293 ;;Total ram usage:        0 bytes
 10294 ;; Hardware stack levels used: 1
 10295 ;; Hardware stack levels required when called: 1
 10296 ;; This function calls:
 10297 ;;		i2_I2C2_MasterSendNack@i2c2_master$F3141
 10298 ;; This function is called by:
 10299 ;; This function uses a non-reentrant model
 10300 ;;
 10301                           
 10302                           	psect	text104
 10303  001C8E                     __ptext104:
 10304                           	callstack 0
 10305  001C8E                     i2_I2C2_DO_RX_NACK_RESTART:
 10306                           	callstack 13
 10307  001C8E                     
 10308                           ;../modbus/i2c2_master.c: 491:     I2C2_MasterSendNack();
 10309  001C8E  EC7E  F00E         	call	i2_I2C2_MasterSendNack@i2c2_master$F3141	;wreg free
 10310  001C92                     
 10311                           ;../modbus/i2c2_master.c: 492:     return I2C2_SEND_RESTART;
 10312  001C92  0E09               	movlw	9
 10313  001C94  0012               	return		;funcret
 10314  001C96                     __end_ofi2_I2C2_DO_RX_NACK_RESTART:
 10315                           	callstack 0
 10316                           
 10317 ;; *************** function i2_I2C2_DO_RX_NACK_STOP *****************
 10318 ;; Defined at:
 10319 ;;		line 484 in file "../modbus/i2c2_master.c"
 10320 ;; Parameters:    Size  Location     Type
 10321 ;;		None
 10322 ;; Auto vars:     Size  Location     Type
 10323 ;;		None
 10324 ;; Return value:  Size  Location     Type
 10325 ;;                  1    wreg      enum E16535
 10326 ;; Registers used:
 10327 ;;		wreg, status,2, cstack
 10328 ;; Tracked objects:
 10329 ;;		On entry : 0/0
 10330 ;;		On exit  : 0/0
 10331 ;;		Unchanged: 0/0
 10332 ;; Data sizes:     COMRAM   BANK0   BANK1   BANK2   BANK3   BANK4   BANK5   BANK6   BANK7
 10333 ;;      Params:         0       0       0       0       0       0       0       0       0
 10334 ;;      Locals:         0       0       0       0       0       0       0       0       0
 10335 ;;      Temps:          0       0       0       0       0       0       0       0       0
 10336 ;;      Totals:         0       0       0       0       0       0       0       0       0
 10337 ;;Total ram usage:        0 bytes
 10338 ;; Hardware stack levels used: 1
 10339 ;; Hardware stack levels required when called: 1
 10340 ;; This function calls:
 10341 ;;		i2_I2C2_DO_IDLE
 10342 ;;		i2_I2C2_MasterSendNack@i2c2_master$F3141
 10343 ;;		i2_I2C2_MasterStop@i2c2_master$F3126
 10344 ;; This function is called by:
 10345 ;; This function uses a non-reentrant model
 10346 ;;
 10347                           
 10348                           	psect	text105
 10349  001BA4                     __ptext105:
 10350                           	callstack 0
 10351  001BA4                     i2_I2C2_DO_RX_NACK_STOP:
 10352                           	callstack 13
 10353  001BA4                     
 10354                           ;../modbus/i2c2_master.c: 485:     I2C2_MasterSendNack();
 10355  001BA4  EC7E  F00E         	call	i2_I2C2_MasterSendNack@i2c2_master$F3141	;wreg free
 10356                           
 10357                           ;../modbus/i2c2_master.c: 486:     I2C2_MasterStop();
 10358  001BA8  EC7B  F00E         	call	i2_I2C2_MasterStop@i2c2_master$F3126	;wreg free
 10359  001BAC                     
 10360                           ;../modbus/i2c2_master.c: 487:     return I2C2_DO_IDLE();
 10361  001BAC  ECE0  F00D         	call	i2_I2C2_DO_IDLE	;wreg free
 10362  001BB0  0012               	return		;funcret
 10363  001BB2                     __end_ofi2_I2C2_DO_RX_NACK_STOP:
 10364                           	callstack 0
 10365                           
 10366 ;; *************** function i2_I2C2_DO_RX_ACK *****************
 10367 ;; Defined at:
 10368 ;;		line 474 in file "../modbus/i2c2_master.c"
 10369 ;; Parameters:    Size  Location     Type
 10370 ;;		None
 10371 ;; Auto vars:     Size  Location     Type
 10372 ;;		None
 10373 ;; Return value:  Size  Location     Type
 10374 ;;                  1    wreg      enum E16535
 10375 ;; Registers used:
 10376 ;;		wreg, cstack
 10377 ;; Tracked objects:
 10378 ;;		On entry : 0/0
 10379 ;;		On exit  : 0/0
 10380 ;;		Unchanged: 0/0
 10381 ;; Data sizes:     COMRAM   BANK0   BANK1   BANK2   BANK3   BANK4   BANK5   BANK6   BANK7
 10382 ;;      Params:         0       0       0       0       0       0       0       0       0
 10383 ;;      Locals:         0       0       0       0       0       0       0       0       0
 10384 ;;      Temps:          0       0       0       0       0       0       0       0       0
 10385 ;;      Totals:         0       0       0       0       0       0       0       0       0
 10386 ;;Total ram usage:        0 bytes
 10387 ;; Hardware stack levels used: 1
 10388 ;; Hardware stack levels required when called: 1
 10389 ;; This function calls:
 10390 ;;		i2_I2C2_MasterSendAck@i2c2_master$F3136
 10391 ;; This function is called by:
 10392 ;; This function uses a non-reentrant model
 10393 ;;
 10394                           
 10395                           	psect	text106
 10396  001C96                     __ptext106:
 10397                           	callstack 0
 10398  001C96                     i2_I2C2_DO_RX_ACK:
 10399                           	callstack 13
 10400  001C96                     
 10401                           ;../modbus/i2c2_master.c: 475:     I2C2_MasterSendAck();
 10402  001C96  EC81  F00E         	call	i2_I2C2_MasterSendAck@i2c2_master$F3136	;wreg free
 10403  001C9A                     
 10404                           ;../modbus/i2c2_master.c: 476:     return I2C2_RX;
 10405  001C9A  0E04               	movlw	4
 10406  001C9C  0012               	return		;funcret
 10407  001C9E                     __end_ofi2_I2C2_DO_RX_ACK:
 10408                           	callstack 0
 10409                           
 10410 ;; *************** function i2_I2C2_DO_SEND_STOP *****************
 10411 ;; Defined at:
 10412 ;;		line 465 in file "../modbus/i2c2_master.c"
 10413 ;; Parameters:    Size  Location     Type
 10414 ;;		None
 10415 ;; Auto vars:     Size  Location     Type
 10416 ;;		None
 10417 ;; Return value:  Size  Location     Type
 10418 ;;                  1    wreg      enum E16535
 10419 ;; Registers used:
 10420 ;;		wreg, status,2, cstack
 10421 ;; Tracked objects:
 10422 ;;		On entry : 0/0
 10423 ;;		On exit  : 0/0
 10424 ;;		Unchanged: 0/0
 10425 ;; Data sizes:     COMRAM   BANK0   BANK1   BANK2   BANK3   BANK4   BANK5   BANK6   BANK7
 10426 ;;      Params:         0       0       0       0       0       0       0       0       0
 10427 ;;      Locals:         0       0       0       0       0       0       0       0       0
 10428 ;;      Temps:          0       0       0       0       0       0       0       0       0
 10429 ;;      Totals:         0       0       0       0       0       0       0       0       0
 10430 ;;Total ram usage:        0 bytes
 10431 ;; Hardware stack levels used: 1
 10432 ;; Hardware stack levels required when called: 1
 10433 ;; This function calls:
 10434 ;;		i2_I2C2_MasterGetCounter
 10435 ;;		i2_I2C2_MasterSendTxData@i2c2_master$F3095
 10436 ;;		i2_I2C2_MasterSetCounter
 10437 ;;		i2_I2C2_MasterStop@i2c2_master$F3126
 10438 ;; This function is called by:
 10439 ;; This function uses a non-reentrant model
 10440 ;;
 10441                           
 10442                           	psect	text107
 10443  001778                     __ptext107:
 10444                           	callstack 0
 10445  001778                     i2_I2C2_DO_SEND_STOP:
 10446                           	callstack 13
 10447  001778                     
 10448                           ;../modbus/i2c2_master.c: 466:     I2C2_MasterStop();
 10449  001778  EC7B  F00E         	call	i2_I2C2_MasterStop@i2c2_master$F3126	;wreg free
 10450  00177C                     
 10451                           ;../modbus/i2c2_master.c: 467:     if (I2C2_MasterGetCounter()) {
 10452  00177C  EC78  F00E         	call	i2_I2C2_MasterGetCounter	;wreg free
 10453  001780  0900               	iorlw	0
 10454  001782  B4D8               	btfsc	status,2,c
 10455  001784  EFC6  F00B         	goto	i2u254_41
 10456  001788  EFC8  F00B         	goto	i2u254_40
 10457  00178C                     i2u254_41:
 10458  00178C  EFCE  F00B         	goto	i2l5823
 10459  001790                     i2u254_40:
 10460  001790                     
 10461                           ;../modbus/i2c2_master.c: 468:         I2C2_MasterSetCounter(0);
 10462  001790  0E00               	movlw	0
 10463  001792  EC2C  F00E         	call	i2_I2C2_MasterSetCounter
 10464                           
 10465                           ;../modbus/i2c2_master.c: 469:         I2C2_MasterSendTxData(0);
 10466  001796  0E00               	movlw	0
 10467  001798  EC27  F00E         	call	i2_I2C2_MasterSendTxData@i2c2_master$F3095
 10468  00179C                     i2l5823:
 10469                           
 10470                           ;../modbus/i2c2_master.c: 471:     return I2C2_IDLE;
 10471  00179C  0E00               	movlw	0
 10472  00179E  0012               	return		;funcret
 10473  0017A0                     __end_ofi2_I2C2_DO_SEND_STOP:
 10474                           	callstack 0
 10475                           
 10476 ;; *************** function i2_I2C2_DO_SEND_RESTART *****************
 10477 ;; Defined at:
 10478 ;;		line 461 in file "../modbus/i2c2_master.c"
 10479 ;; Parameters:    Size  Location     Type
 10480 ;;		None
 10481 ;; Auto vars:     Size  Location     Type
 10482 ;;		None
 10483 ;; Return value:  Size  Location     Type
 10484 ;;                  1    wreg      enum E16535
 10485 ;; Registers used:
 10486 ;;		wreg
 10487 ;; Tracked objects:
 10488 ;;		On entry : 0/0
 10489 ;;		On exit  : 0/0
 10490 ;;		Unchanged: 0/0
 10491 ;; Data sizes:     COMRAM   BANK0   BANK1   BANK2   BANK3   BANK4   BANK5   BANK6   BANK7
 10492 ;;      Params:         0       0       0       0       0       0       0       0       0
 10493 ;;      Locals:         0       0       0       0       0       0       0       0       0
 10494 ;;      Temps:          0       0       0       0       0       0       0       0       0
 10495 ;;      Totals:         0       0       0       0       0       0       0       0       0
 10496 ;;Total ram usage:        0 bytes
 10497 ;; Hardware stack levels used: 1
 10498 ;; This function calls:
 10499 ;;		Nothing
 10500 ;; This function is called by:
 10501 ;;		i2_I2C2_DO_ADDRESS_NACK
 10502 ;; This function uses a non-reentrant model
 10503 ;;
 10504                           
 10505                           	psect	text108
 10506  001D2C                     __ptext108:
 10507                           	callstack 0
 10508  001D2C                     i2_I2C2_DO_SEND_RESTART:
 10509                           	callstack 14
 10510  001D2C                     
 10511                           ;../modbus/i2c2_master.c: 462:     return I2C2_SEND_ADR_READ;
 10512  001D2C  0E01               	movlw	1
 10513  001D2E  0012               	return		;funcret
 10514  001D30                     __end_ofi2_I2C2_DO_SEND_RESTART:
 10515                           	callstack 0
 10516                           
 10517 ;; *************** function i2_I2C2_DO_SEND_RESTART_WRITE *****************
 10518 ;; Defined at:
 10519 ;;		line 457 in file "../modbus/i2c2_master.c"
 10520 ;; Parameters:    Size  Location     Type
 10521 ;;		None
 10522 ;; Auto vars:     Size  Location     Type
 10523 ;;		None
 10524 ;; Return value:  Size  Location     Type
 10525 ;;                  1    wreg      enum E16535
 10526 ;; Registers used:
 10527 ;;		wreg
 10528 ;; Tracked objects:
 10529 ;;		On entry : 0/0
 10530 ;;		On exit  : 0/0
 10531 ;;		Unchanged: 0/0
 10532 ;; Data sizes:     COMRAM   BANK0   BANK1   BANK2   BANK3   BANK4   BANK5   BANK6   BANK7
 10533 ;;      Params:         0       0       0       0       0       0       0       0       0
 10534 ;;      Locals:         0       0       0       0       0       0       0       0       0
 10535 ;;      Temps:          0       0       0       0       0       0       0       0       0
 10536 ;;      Totals:         0       0       0       0       0       0       0       0       0
 10537 ;;Total ram usage:        0 bytes
 10538 ;; Hardware stack levels used: 1
 10539 ;; This function calls:
 10540 ;;		Nothing
 10541 ;; This function is called by:
 10542 ;;		i2_I2C2_DO_TX
 10543 ;;		i2_I2C2_DO_BUS_COLLISION
 10544 ;; This function uses a non-reentrant model
 10545 ;;
 10546                           
 10547                           	psect	text109
 10548  001D30                     __ptext109:
 10549                           	callstack 0
 10550  001D30                     i2_I2C2_DO_SEND_RESTART_WRITE:
 10551                           	callstack 13
 10552  001D30                     
 10553                           ;../modbus/i2c2_master.c: 458:     return I2C2_SEND_ADR_WRITE;
 10554  001D30  0E02               	movlw	2
 10555  001D32  0012               	return		;funcret
 10556  001D34                     __end_ofi2_I2C2_DO_SEND_RESTART_WRITE:
 10557                           	callstack 0
 10558                           
 10559 ;; *************** function i2_I2C2_DO_SEND_RESTART_READ *****************
 10560 ;; Defined at:
 10561 ;;		line 452 in file "../modbus/i2c2_master.c"
 10562 ;; Parameters:    Size  Location     Type
 10563 ;;		None
 10564 ;; Auto vars:     Size  Location     Type
 10565 ;;		None
 10566 ;; Return value:  Size  Location     Type
 10567 ;;                  1    wreg      enum E16535
 10568 ;; Registers used:
 10569 ;;		wreg, status,2, status,0, pclath, tosl, cstack
 10570 ;; Tracked objects:
 10571 ;;		On entry : 0/0
 10572 ;;		On exit  : 0/0
 10573 ;;		Unchanged: 0/0
 10574 ;; Data sizes:     COMRAM   BANK0   BANK1   BANK2   BANK3   BANK4   BANK5   BANK6   BANK7
 10575 ;;      Params:         0       0       0       0       0       0       0       0       0
 10576 ;;      Locals:         0       0       0       0       0       0       0       0       0
 10577 ;;      Temps:          0       0       0       0       0       0       0       0       0
 10578 ;;      Totals:         0       0       0       0       0       0       0       0       0
 10579 ;;Total ram usage:        0 bytes
 10580 ;; Hardware stack levels used: 1
 10581 ;; Hardware stack levels required when called: 3
 10582 ;; This function calls:
 10583 ;;		i2_I2C2_DO_SEND_ADR_READ
 10584 ;;		i2_I2C2_MasterSetCounter
 10585 ;; This function is called by:
 10586 ;;		i2_I2C2_DO_TX
 10587 ;;		i2_I2C2_DO_BUS_COLLISION
 10588 ;; This function uses a non-reentrant model
 10589 ;;
 10590                           
 10591                           	psect	text110
 10592  001BB2                     __ptext110:
 10593                           	callstack 0
 10594  001BB2                     i2_I2C2_DO_SEND_RESTART_READ:
 10595                           	callstack 10
 10596  001BB2                     
 10597                           ;../modbus/i2c2_master.c: 453:     I2C2_MasterSetCounter((uint8_t) I2C2_Status.data_leng
      +                          th);
 10598  001BB2  0100               	movlb	0	; () banked
 10599  001BB4  517F               	movf	(_I2C2_Status+31)& (0+255),w,b
 10600  001BB6  EC2C  F00E         	call	i2_I2C2_MasterSetCounter
 10601  001BBA                     
 10602                           ;../modbus/i2c2_master.c: 454:     return I2C2_DO_SEND_ADR_READ();
 10603  001BBA  EC7C  F00B         	call	i2_I2C2_DO_SEND_ADR_READ	;wreg free
 10604  001BBE  0012               	return		;funcret
 10605  001BC0                     __end_ofi2_I2C2_DO_SEND_RESTART_READ:
 10606                           	callstack 0
 10607                           
 10608 ;; *************** function i2_I2C2_DO_RX_EMPTY *****************
 10609 ;; Defined at:
 10610 ;;		line 430 in file "../modbus/i2c2_master.c"
 10611 ;; Parameters:    Size  Location     Type
 10612 ;;		None
 10613 ;; Auto vars:     Size  Location     Type
 10614 ;;		None
 10615 ;; Return value:  Size  Location     Type
 10616 ;;                  1    wreg      enum E16535
 10617 ;; Registers used:
 10618 ;;		wreg, status,2, status,0, pclath, tosl, cstack
 10619 ;; Tracked objects:
 10620 ;;		On entry : 0/0
 10621 ;;		On exit  : 0/0
 10622 ;;		Unchanged: 0/0
 10623 ;; Data sizes:     COMRAM   BANK0   BANK1   BANK2   BANK3   BANK4   BANK5   BANK6   BANK7
 10624 ;;      Params:         0       0       0       0       0       0       0       0       0
 10625 ;;      Locals:         0       0       0       0       0       0       0       0       0
 10626 ;;      Temps:          2       0       0       0       0       0       0       0       0
 10627 ;;      Totals:         2       0       0       0       0       0       0       0       0
 10628 ;;Total ram usage:        2 bytes
 10629 ;; Hardware stack levels used: 1
 10630 ;; Hardware stack levels required when called: 1
 10631 ;; This function calls:
 10632 ;;		Absolute function
 10633 ;;		i2_I2C2_CallbackReturnReset
 10634 ;;		i2_I2C2_CallbackReturnStop
 10635 ;;		i2_I2C2_MasterDisableRestart
 10636 ;;		i2_I2C2_MasterEnableRestart@i2c2_master$F3116
 10637 ;;		i2_I2C2_MasterSetCounter
 10638 ;; This function is called by:
 10639 ;;		i2_I2C2_DO_SEND_ADR_READ
 10640 ;;		i2_I2C2_DO_RX
 10641 ;; This function uses a non-reentrant model
 10642 ;;
 10643                           
 10644                           	psect	text111
 10645  0009D0                     __ptext111:
 10646                           	callstack 0
 10647  0009D0                     i2_I2C2_DO_RX_EMPTY:
 10648                           	callstack 10
 10649  0009D0                     
 10650                           ;../modbus/i2c2_master.c: 431:     I2C2_Status.bufferFree = 1;
 10651  0009D0  0100               	movlb	0	; () banked
 10652  0009D2  8983               	bsf	(_I2C2_Status+35)& (0+255),4,b
 10653                           
 10654                           ;../modbus/i2c2_master.c: 432:     switch (I2C2_Status.callbackTable[I2C2_DATA_COMPLETE]
      +                          (I2C2_Status.callbackPayload[I2C2_DATA_COMPLETE])) {
 10655  0009D4  EF0C  F005         	goto	i2l5105
 10656  0009D8                     i2l5077:
 10657                           
 10658                           ;../modbus/i2c2_master.c: 434:             I2C2_MasterEnableRestart();
 10659  0009D8  EC87  F00E         	call	i2_I2C2_MasterEnableRestart@i2c2_master$F3116	;wreg free
 10660  0009DC                     
 10661                           ;../modbus/i2c2_master.c: 435:             return I2C2_SEND_RESTART_WRITE;
 10662  0009DC  0E08               	movlw	8
 10663  0009DE  EF39  F005         	goto	i2l1737
 10664  0009E2                     i2l5083:
 10665                           
 10666                           ;../modbus/i2c2_master.c: 437:             I2C2_MasterEnableRestart();
 10667  0009E2  EC87  F00E         	call	i2_I2C2_MasterEnableRestart@i2c2_master$F3116	;wreg free
 10668  0009E6                     
 10669                           ;../modbus/i2c2_master.c: 438:             return I2C2_SEND_RESTART_READ;
 10670  0009E6  0E07               	movlw	7
 10671  0009E8  EF39  F005         	goto	i2l1737
 10672  0009EC                     i2l5089:
 10673                           
 10674                           ;../modbus/i2c2_master.c: 441:             I2C2_MasterSetCounter((uint8_t) I2C2_Status.d
      +                          ata_length + 1);
 10675  0009EC  0100               	movlb	0	; () banked
 10676  0009EE  297F               	incf	(_I2C2_Status+31)& (0+255),w,b
 10677  0009F0  EC2C  F00E         	call	i2_I2C2_MasterSetCounter
 10678  0009F4                     
 10679                           ;../modbus/i2c2_master.c: 442:             return I2C2_RX;
 10680  0009F4  0E04               	movlw	4
 10681  0009F6  EF39  F005         	goto	i2l1737
 10682  0009FA                     i2l5095:
 10683                           
 10684                           ;../modbus/i2c2_master.c: 445:             if (I2C2_Status.state != I2C2_SEND_RESTART_RE
      +                          AD) {
 10685  0009FA  0E07               	movlw	7
 10686  0009FC  0100               	movlb	0	; () banked
 10687  0009FE  1981               	xorwf	(_I2C2_Status+33)& (0+255),w,b
 10688  000A00  B4D8               	btfsc	status,2,c
 10689  000A02  EF05  F005         	goto	i2u188_41
 10690  000A06  EF07  F005         	goto	i2u188_40
 10691  000A0A                     i2u188_41:
 10692  000A0A  EF09  F005         	goto	i2l5099
 10693  000A0E                     i2u188_40:
 10694  000A0E                     
 10695                           ; BSR set to: 0
 10696                           ;../modbus/i2c2_master.c: 446:                 I2C2_MasterDisableRestart();
 10697  000A0E  EC8A  F00E         	call	i2_I2C2_MasterDisableRestart	;wreg free
 10698  000A12                     i2l5099:
 10699                           
 10700                           ;../modbus/i2c2_master.c: 448:             return I2C2_RESET;
 10701  000A12  0E0F               	movlw	15
 10702  000A14  EF39  F005         	goto	i2l1737
 10703  000A18                     i2l5105:
 10704                           
 10705                           ; BSR set to: 0
 10706  000A18  C06C  F030         	movff	_I2C2_Status+12,i2I2C2_CallbackReturnReset@funPtr
 10707  000A1C  C06D  F031         	movff	_I2C2_Status+13,i2I2C2_CallbackReturnReset@funPtr+1
 10708  000A20  D802               	call	i2u189_48
 10709  000A22  EF1D  F005         	goto	i2u189_49
 10710  000A26                     i2u189_48:
 10711  000A26  0005               	push	
 10712  000A28  6EFA               	movwf	pclath,c
 10713  000A2A  5160               	movf	_I2C2_Status& (0+255),w,b
 10714  000A2C  6EFD               	movwf	tosl,c
 10715  000A2E  5161               	movf	(_I2C2_Status+1)& (0+255),w,b
 10716  000A30  6EFE               	movwf	tosh,c
 10717  000A32  50F8               	movf	tblptru,w,c
 10718  000A34  6EFF               	movwf	tosu,c
 10719  000A36  50FA               	movf	pclath,w,c
 10720  000A38  0012               	return		;indir
 10721  000A3A                     i2u189_49:
 10722  000A3A  6E32               	movwf	??i2_I2C2_DO_RX_EMPTY^0,c
 10723  000A3C  6A33               	clrf	(??i2_I2C2_DO_RX_EMPTY+1)^0,c
 10724                           
 10725                           ; Switch on 2 bytes has been partitioned into a top level switch of size 1, and 1 sub-sw
      +                          itches
 10726                           ; Switch size 1, requested type "simple"
 10727                           ; Number of cases is 1, Range of values is 0 to 0
 10728                           ; switch strategies available:
 10729                           ; Name         Instructions Cycles
 10730                           ; simple_byte            4     3 (average)
 10731                           ;	Chosen strategy is simple_byte
 10732  000A3E  5033               	movf	(??i2_I2C2_DO_RX_EMPTY+1)^0,w,c
 10733  000A40  0A00               	xorlw	0	; case 0
 10734  000A42  B4D8               	btfsc	status,2,c
 10735  000A44  EF26  F005         	goto	i2l8185
 10736  000A48  EFFD  F004         	goto	i2l5095
 10737  000A4C                     i2l8185:
 10738                           
 10739                           ; Switch size 1, requested type "simple"
 10740                           ; Number of cases is 4, Range of values is 1 to 4
 10741                           ; switch strategies available:
 10742                           ; Name         Instructions Cycles
 10743                           ; simple_byte           13     7 (average)
 10744                           ;	Chosen strategy is simple_byte
 10745  000A4C  5032               	movf	??i2_I2C2_DO_RX_EMPTY^0,w,c
 10746  000A4E  0A01               	xorlw	1	; case 1
 10747  000A50  B4D8               	btfsc	status,2,c
 10748  000A52  EFFD  F004         	goto	i2l5095
 10749  000A56  0A03               	xorlw	3	; case 2
 10750  000A58  B4D8               	btfsc	status,2,c
 10751  000A5A  EFF1  F004         	goto	i2l5083
 10752  000A5E  0A01               	xorlw	1	; case 3
 10753  000A60  B4D8               	btfsc	status,2,c
 10754  000A62  EFEC  F004         	goto	i2l5077
 10755  000A66  0A07               	xorlw	7	; case 4
 10756  000A68  B4D8               	btfsc	status,2,c
 10757  000A6A  EFF6  F004         	goto	i2l5089
 10758  000A6E  EFFD  F004         	goto	i2l5095
 10759  000A72                     i2l1737:
 10760  000A72  0012               	return		;funcret
 10761  000A74                     __end_ofi2_I2C2_DO_RX_EMPTY:
 10762                           	callstack 0
 10763                           
 10764 ;; *************** function i2_I2C2_DO_TX_EMPTY *****************
 10765 ;; Defined at:
 10766 ;;		line 413 in file "../modbus/i2c2_master.c"
 10767 ;; Parameters:    Size  Location     Type
 10768 ;;		None
 10769 ;; Auto vars:     Size  Location     Type
 10770 ;;		None
 10771 ;; Return value:  Size  Location     Type
 10772 ;;                  1    wreg      enum E16535
 10773 ;; Registers used:
 10774 ;;		wreg, status,2, status,0, pclath, tosl, cstack
 10775 ;; Tracked objects:
 10776 ;;		On entry : 0/0
 10777 ;;		On exit  : 0/0
 10778 ;;		Unchanged: 0/0
 10779 ;; Data sizes:     COMRAM   BANK0   BANK1   BANK2   BANK3   BANK4   BANK5   BANK6   BANK7
 10780 ;;      Params:         0       0       0       0       0       0       0       0       0
 10781 ;;      Locals:         0       0       0       0       0       0       0       0       0
 10782 ;;      Temps:          2       0       0       0       0       0       0       0       0
 10783 ;;      Totals:         2       0       0       0       0       0       0       0       0
 10784 ;;Total ram usage:        2 bytes
 10785 ;; Hardware stack levels used: 1
 10786 ;; Hardware stack levels required when called: 1
 10787 ;; This function calls:
 10788 ;;		Absolute function
 10789 ;;		i2_I2C2_CallbackReturnReset
 10790 ;;		i2_I2C2_CallbackReturnStop
 10791 ;;		i2_I2C2_MasterDisableRestart
 10792 ;;		i2_I2C2_MasterEnableRestart@i2c2_master$F3116
 10793 ;;		i2_I2C2_MasterSetCounter
 10794 ;; This function is called by:
 10795 ;;		i2_I2C2_DO_TX
 10796 ;; This function uses a non-reentrant model
 10797 ;;
 10798                           
 10799                           	psect	text112
 10800  000DAE                     __ptext112:
 10801                           	callstack 0
 10802  000DAE                     i2_I2C2_DO_TX_EMPTY:
 10803                           	callstack 13
 10804  000DAE                     
 10805                           ;../modbus/i2c2_master.c: 414:     I2C2_Status.bufferFree = 1;
 10806  000DAE  0100               	movlb	0	; () banked
 10807  000DB0  8983               	bsf	(_I2C2_Status+35)& (0+255),4,b
 10808                           
 10809                           ;../modbus/i2c2_master.c: 415:     switch (I2C2_Status.callbackTable[I2C2_DATA_COMPLETE]
      +                          (I2C2_Status.callbackPayload[I2C2_DATA_COMPLETE])) {
 10810  000DB2  EFEC  F006         	goto	i2l5317
 10811  000DB6                     i2l5297:
 10812                           
 10813                           ;../modbus/i2c2_master.c: 417:             I2C2_MasterEnableRestart();
 10814  000DB6  EC87  F00E         	call	i2_I2C2_MasterEnableRestart@i2c2_master$F3116	;wreg free
 10815  000DBA                     
 10816                           ;../modbus/i2c2_master.c: 418:             return I2C2_SEND_RESTART_READ;
 10817  000DBA  0E07               	movlw	7
 10818  000DBC  EF15  F007         	goto	i2l1728
 10819  000DC0                     i2l5303:
 10820                           
 10821                           ;../modbus/i2c2_master.c: 421:             I2C2_MasterSetCounter((uint8_t) (I2C2_Status.
      +                          data_length + 1));
 10822  000DC0  0100               	movlb	0	; () banked
 10823  000DC2  297F               	incf	(_I2C2_Status+31)& (0+255),w,b
 10824  000DC4  EC2C  F00E         	call	i2_I2C2_MasterSetCounter
 10825  000DC8                     
 10826                           ;../modbus/i2c2_master.c: 422:             return I2C2_TX;
 10827  000DC8  0E03               	movlw	3
 10828  000DCA  EF15  F007         	goto	i2l1728
 10829  000DCE                     i2l5309:
 10830                           
 10831                           ;../modbus/i2c2_master.c: 425:             I2C2_MasterDisableRestart();
 10832  000DCE  EC8A  F00E         	call	i2_I2C2_MasterDisableRestart	;wreg free
 10833  000DD2                     
 10834                           ;../modbus/i2c2_master.c: 426:             return I2C2_SEND_STOP;
 10835  000DD2  0E0A               	movlw	10
 10836  000DD4  EF15  F007         	goto	i2l1728
 10837  000DD8                     i2l5317:
 10838                           
 10839                           ; BSR set to: 0
 10840  000DD8  C06C  F030         	movff	_I2C2_Status+12,i2I2C2_CallbackReturnReset@funPtr
 10841  000DDC  C06D  F031         	movff	_I2C2_Status+13,i2I2C2_CallbackReturnReset@funPtr+1
 10842  000DE0  D802               	call	i2u209_48
 10843  000DE2  EFFD  F006         	goto	i2u209_49
 10844  000DE6                     i2u209_48:
 10845  000DE6  0005               	push	
 10846  000DE8  6EFA               	movwf	pclath,c
 10847  000DEA  5160               	movf	_I2C2_Status& (0+255),w,b
 10848  000DEC  6EFD               	movwf	tosl,c
 10849  000DEE  5161               	movf	(_I2C2_Status+1)& (0+255),w,b
 10850  000DF0  6EFE               	movwf	tosh,c
 10851  000DF2  50F8               	movf	tblptru,w,c
 10852  000DF4  6EFF               	movwf	tosu,c
 10853  000DF6  50FA               	movf	pclath,w,c
 10854  000DF8  0012               	return		;indir
 10855  000DFA                     i2u209_49:
 10856  000DFA  6E32               	movwf	??i2_I2C2_DO_TX_EMPTY^0,c
 10857  000DFC  6A33               	clrf	(??i2_I2C2_DO_TX_EMPTY+1)^0,c
 10858                           
 10859                           ; Switch on 2 bytes has been partitioned into a top level switch of size 1, and 1 sub-sw
      +                          itches
 10860                           ; Switch size 1, requested type "simple"
 10861                           ; Number of cases is 1, Range of values is 0 to 0
 10862                           ; switch strategies available:
 10863                           ; Name         Instructions Cycles
 10864                           ; simple_byte            4     3 (average)
 10865                           ;	Chosen strategy is simple_byte
 10866  000DFE  5033               	movf	(??i2_I2C2_DO_TX_EMPTY+1)^0,w,c
 10867  000E00  0A00               	xorlw	0	; case 0
 10868  000E02  B4D8               	btfsc	status,2,c
 10869  000E04  EF06  F007         	goto	i2l8187
 10870  000E08  EFE7  F006         	goto	i2l5309
 10871  000E0C                     i2l8187:
 10872                           
 10873                           ; Switch size 1, requested type "simple"
 10874                           ; Number of cases is 3, Range of values is 1 to 4
 10875                           ; switch strategies available:
 10876                           ; Name         Instructions Cycles
 10877                           ; simple_byte           10     6 (average)
 10878                           ;	Chosen strategy is simple_byte
 10879  000E0C  5032               	movf	??i2_I2C2_DO_TX_EMPTY^0,w,c
 10880  000E0E  0A01               	xorlw	1	; case 1
 10881  000E10  B4D8               	btfsc	status,2,c
 10882  000E12  EFE7  F006         	goto	i2l5309
 10883  000E16  0A03               	xorlw	3	; case 2
 10884  000E18  B4D8               	btfsc	status,2,c
 10885  000E1A  EFDB  F006         	goto	i2l5297
 10886  000E1E  0A06               	xorlw	6	; case 4
 10887  000E20  B4D8               	btfsc	status,2,c
 10888  000E22  EFE0  F006         	goto	i2l5303
 10889  000E26  EFE7  F006         	goto	i2l5309
 10890  000E2A                     i2l1728:
 10891  000E2A  0012               	return		;funcret
 10892  000E2C                     __end_ofi2_I2C2_DO_TX_EMPTY:
 10893                           	callstack 0
 10894                           
 10895 ;; *************** function i2_I2C2_DO_RX *****************
 10896 ;; Defined at:
 10897 ;;		line 395 in file "../modbus/i2c2_master.c"
 10898 ;; Parameters:    Size  Location     Type
 10899 ;;		None
 10900 ;; Auto vars:     Size  Location     Type
 10901 ;;  retFsmState     1    2[COMRAM] enum E16535
 10902 ;; Return value:  Size  Location     Type
 10903 ;;                  1    wreg      enum E16535
 10904 ;; Registers used:
 10905 ;;		wreg, fsr2l, fsr2h, status,2, status,0, pclath, tosl, cstack
 10906 ;; Tracked objects:
 10907 ;;		On entry : 0/0
 10908 ;;		On exit  : 0/0
 10909 ;;		Unchanged: 0/0
 10910 ;; Data sizes:     COMRAM   BANK0   BANK1   BANK2   BANK3   BANK4   BANK5   BANK6   BANK7
 10911 ;;      Params:         0       0       0       0       0       0       0       0       0
 10912 ;;      Locals:         1       0       0       0       0       0       0       0       0
 10913 ;;      Temps:          2       0       0       0       0       0       0       0       0
 10914 ;;      Totals:         3       0       0       0       0       0       0       0       0
 10915 ;;Total ram usage:        3 bytes
 10916 ;; Hardware stack levels used: 1
 10917 ;; Hardware stack levels required when called: 2
 10918 ;; This function calls:
 10919 ;;		i2_I2C2_DO_RX_EMPTY
 10920 ;;		i2_I2C2_MasterGetRxData@i2c2_master$F3111
 10921 ;;		i2_I2C2_MasterIsRxBufFull
 10922 ;; This function is called by:
 10923 ;; This function uses a non-reentrant model
 10924 ;;
 10925                           
 10926                           	psect	text113
 10927  000A74                     __ptext113:
 10928                           	callstack 0
 10929  000A74                     i2_I2C2_DO_RX:
 10930                           	callstack 12
 10931  000A74                     
 10932                           ;../modbus/i2c2_master.c: 396:     if (!I2C2_MasterIsRxBufFull()) {
 10933  000A74  EC43  F00D         	call	i2_I2C2_MasterIsRxBufFull	;wreg free
 10934  000A78  0900               	iorlw	0
 10935  000A7A  A4D8               	btfss	status,2,c
 10936  000A7C  EF42  F005         	goto	i2u251_41
 10937  000A80  EF44  F005         	goto	i2u251_40
 10938  000A84                     i2u251_41:
 10939  000A84  EF47  F005         	goto	i2l5793
 10940  000A88                     i2u251_40:
 10941  000A88                     i2l5789:
 10942                           
 10943                           ;../modbus/i2c2_master.c: 397:         return I2C2_RX;
 10944  000A88  0E04               	movlw	4
 10945  000A8A  EF88  F005         	goto	i2l1720
 10946  000A8E                     i2l5793:
 10947                           
 10948                           ;../modbus/i2c2_master.c: 399:     if (I2C2_Status.addressNackCheck) {
 10949  000A8E  0100               	movlb	0	; () banked
 10950  000A90  5183               	movf	(_I2C2_Status+35)& (0+255),w,b
 10951  000A92  0B03               	andlw	3
 10952  000A94  0900               	iorlw	0
 10953  000A96  B4D8               	btfsc	status,2,c
 10954  000A98  EF50  F005         	goto	i2u252_41
 10955  000A9C  EF52  F005         	goto	i2u252_40
 10956  000AA0                     i2u252_41:
 10957  000AA0  EF5E  F005         	goto	i2l1721
 10958  000AA4                     i2u252_40:
 10959  000AA4                     
 10960                           ; BSR set to: 0
 10961                           ;../modbus/i2c2_master.c: 400:         I2C2_Status.addressNackCheck--;
 10962  000AA4  0E01               	movlw	1
 10963  000AA6  6E30               	movwf	??i2_I2C2_DO_RX^0,c
 10964  000AA8  5183               	movf	(_I2C2_Status+35)& (0+255),w,b
 10965  000AAA  0B03               	andlw	3
 10966  000AAC  6E31               	movwf	(??i2_I2C2_DO_RX+1)^0,c
 10967  000AAE  5030               	movf	??i2_I2C2_DO_RX^0,w,c
 10968  000AB0  5E31               	subwf	(??i2_I2C2_DO_RX+1)^0,f,c
 10969  000AB2  5183               	movf	(_I2C2_Status+35)& (0+255),w,b
 10970  000AB4  1831               	xorwf	(??i2_I2C2_DO_RX+1)^0,w,c
 10971  000AB6  0BFC               	andlw	-4
 10972  000AB8  1831               	xorwf	(??i2_I2C2_DO_RX+1)^0,w,c
 10973  000ABA  6F83               	movwf	(_I2C2_Status+35)& (0+255),b
 10974  000ABC                     i2l1721:
 10975                           
 10976                           ; BSR set to: 0
 10977                           ;../modbus/i2c2_master.c: 403:     if (--I2C2_Status.data_length) {
 10978  000ABC  077F               	decf	(_I2C2_Status+31)& (0+255),f,b
 10979  000ABE  A0D8               	btfss	status,0,c
 10980  000AC0  0780               	decf	(_I2C2_Status+32)& (0+255),f,b
 10981  000AC2  517F               	movf	(_I2C2_Status+31)& (0+255),w,b
 10982  000AC4  1180               	iorwf	(_I2C2_Status+32)& (0+255),w,b
 10983  000AC6  B4D8               	btfsc	status,2,c
 10984  000AC8  EF68  F005         	goto	i2u253_41
 10985  000ACC  EF6A  F005         	goto	i2u253_40
 10986  000AD0                     i2u253_41:
 10987  000AD0  EF78  F005         	goto	i2l5807
 10988  000AD4                     i2u253_40:
 10989  000AD4                     
 10990                           ; BSR set to: 0
 10991                           ;../modbus/i2c2_master.c: 404:         *I2C2_Status.data_ptr++ = I2C2_MasterGetRxData();
 10992  000AD4  EC84  F00E         	call	i2_I2C2_MasterGetRxData@i2c2_master$F3111	;wreg free
 10993  000AD8  0060  F1F7  FFD9   	movff	_I2C2_Status+29,fsr2l
 10994  000ADE  0060  F1FB  FFDA   	movff	_I2C2_Status+30,fsr2h
 10995  000AE4  6EDF               	movwf	indf2,c
 10996  000AE6  0100               	movlb	0	; () banked
 10997  000AE8  4B7D               	infsnz	(_I2C2_Status+29)& (0+255),f,b
 10998  000AEA  2B7E               	incf	(_I2C2_Status+30)& (0+255),f,b
 10999  000AEC  EF44  F005         	goto	i2l5789
 11000  000AF0                     i2l5807:
 11001                           
 11002                           ; BSR set to: 0
 11003                           ;../modbus/i2c2_master.c: 407:         i2c2_fsm_states_t retFsmState = I2C2_DO_RX_EMPTY(
      +                          );
 11004  000AF0  ECE8  F004         	call	i2_I2C2_DO_RX_EMPTY	;wreg free
 11005  000AF4  6E32               	movwf	i2I2C2_DO_RX@retFsmState^0,c
 11006  000AF6                     
 11007                           ;../modbus/i2c2_master.c: 408:         *I2C2_Status.data_ptr++ = I2C2_MasterGetRxData();
 11008  000AF6  EC84  F00E         	call	i2_I2C2_MasterGetRxData@i2c2_master$F3111	;wreg free
 11009  000AFA  0060  F1F7  FFD9   	movff	_I2C2_Status+29,fsr2l
 11010  000B00  0060  F1FB  FFDA   	movff	_I2C2_Status+30,fsr2h
 11011  000B06  6EDF               	movwf	indf2,c
 11012  000B08  0100               	movlb	0	; () banked
 11013  000B0A  4B7D               	infsnz	(_I2C2_Status+29)& (0+255),f,b
 11014  000B0C  2B7E               	incf	(_I2C2_Status+30)& (0+255),f,b
 11015  000B0E                     
 11016                           ; BSR set to: 0
 11017                           ;../modbus/i2c2_master.c: 409:         return retFsmState;
 11018  000B0E  5032               	movf	i2I2C2_DO_RX@retFsmState^0,w,c
 11019  000B10                     i2l1720:
 11020  000B10  0012               	return		;funcret
 11021  000B12                     __end_ofi2_I2C2_DO_RX:
 11022                           	callstack 0
 11023                           
 11024 ;; *************** function i2_I2C2_DO_TX *****************
 11025 ;; Defined at:
 11026 ;;		line 370 in file "../modbus/i2c2_master.c"
 11027 ;; Parameters:    Size  Location     Type
 11028 ;;		None
 11029 ;; Auto vars:     Size  Location     Type
 11030 ;;  retFsmState     1    7[COMRAM] enum E16535
 11031 ;;  dataTx          1    6[COMRAM] unsigned char 
 11032 ;; Return value:  Size  Location     Type
 11033 ;;                  1    wreg      enum E16535
 11034 ;; Registers used:
 11035 ;;		wreg, fsr2l, fsr2h, status,2, status,0, pclath, tosl, cstack
 11036 ;; Tracked objects:
 11037 ;;		On entry : 0/0
 11038 ;;		On exit  : 0/0
 11039 ;;		Unchanged: 0/0
 11040 ;; Data sizes:     COMRAM   BANK0   BANK1   BANK2   BANK3   BANK4   BANK5   BANK6   BANK7
 11041 ;;      Params:         0       0       0       0       0       0       0       0       0
 11042 ;;      Locals:         4       0       0       0       0       0       0       0       0
 11043 ;;      Temps:          2       0       0       0       0       0       0       0       0
 11044 ;;      Totals:         6       0       0       0       0       0       0       0       0
 11045 ;;Total ram usage:        6 bytes
 11046 ;; Hardware stack levels used: 1
 11047 ;; Hardware stack levels required when called: 4
 11048 ;; This function calls:
 11049 ;;		Absolute function
 11050 ;;		i2_I2C2_CallbackReturnReset
 11051 ;;		i2_I2C2_CallbackReturnStop
 11052 ;;		i2_I2C2_DO_SEND_RESTART_READ
 11053 ;;		i2_I2C2_DO_SEND_RESTART_WRITE
 11054 ;;		i2_I2C2_DO_TX_EMPTY
 11055 ;;		i2_I2C2_MasterIsNack
 11056 ;;		i2_I2C2_MasterIsTxBufEmpty
 11057 ;;		i2_I2C2_MasterSendTxData@i2c2_master$F3095
 11058 ;; This function is called by:
 11059 ;; This function uses a non-reentrant model
 11060 ;;
 11061                           
 11062                           	psect	text114
 11063  000150                     __ptext114:
 11064                           	callstack 0
 11065  000150                     i2_I2C2_DO_TX:
 11066                           	callstack 10
 11067  000150                     
 11068                           ;../modbus/i2c2_master.c: 371:     if (I2C2_MasterIsNack()) {
 11069  000150  EC38  F00D         	call	i2_I2C2_MasterIsNack	;wreg free
 11070  000154  0900               	iorlw	0
 11071  000156  B4D8               	btfsc	status,2,c
 11072  000158  EFB0  F000         	goto	i2u246_41
 11073  00015C  EFB2  F000         	goto	i2u246_40
 11074  000160                     i2u246_41:
 11075  000160  EFEE  F000         	goto	i2l5753
 11076  000164                     i2u246_40:
 11077  000164  EFBF  F000         	goto	i2l5751
 11078  000168                     i2l5737:
 11079                           
 11080                           ;../modbus/i2c2_master.c: 374:                 return I2C2_DO_SEND_RESTART_READ();
 11081  000168  ECD9  F00D         	call	i2_I2C2_DO_SEND_RESTART_READ	;wreg free
 11082  00016C  EF3A  F001         	goto	i2l1703
 11083  000170                     i2l5741:
 11084                           
 11085                           ;../modbus/i2c2_master.c: 376:                 return I2C2_DO_SEND_RESTART_WRITE();
 11086  000170  EC98  F00E         	call	i2_I2C2_DO_SEND_RESTART_WRITE	;wreg free
 11087  000174  EF3A  F001         	goto	i2l1703
 11088  000178                     i2l5745:
 11089                           
 11090                           ;../modbus/i2c2_master.c: 380:                 return I2C2_IDLE;
 11091  000178  0E00               	movlw	0
 11092  00017A  EF3A  F001         	goto	i2l1703
 11093  00017E                     i2l5751:
 11094  00017E  C072  F030         	movff	_I2C2_Status+18,i2I2C2_CallbackReturnReset@funPtr
 11095  000182  C073  F031         	movff	_I2C2_Status+19,i2I2C2_CallbackReturnReset@funPtr+1
 11096  000186  EE20  F066         	lfsr	2,_I2C2_Status+6
 11097  00018A  D802               	call	i2u247_48
 11098  00018C  EFD2  F000         	goto	i2u247_49
 11099  000190                     i2u247_48:
 11100  000190  0005               	push	
 11101  000192  6EFA               	movwf	pclath,c
 11102  000194  50DE               	movf	postinc2,w,c
 11103  000196  6EFD               	movwf	tosl,c
 11104  000198  50DE               	movf	postinc2,w,c
 11105  00019A  6EFE               	movwf	tosh,c
 11106  00019C  50F8               	movf	tblptru,w,c
 11107  00019E  6EFF               	movwf	tosu,c
 11108  0001A0  50FA               	movf	pclath,w,c
 11109  0001A2  0012               	return		;indir
 11110  0001A4                     i2u247_49:
 11111  0001A4  6E32               	movwf	??i2_I2C2_DO_TX^0,c
 11112  0001A6  6A33               	clrf	(??i2_I2C2_DO_TX+1)^0,c
 11113                           
 11114                           ; Switch on 2 bytes has been partitioned into a top level switch of size 1, and 1 sub-sw
      +                          itches
 11115                           ; Switch size 1, requested type "simple"
 11116                           ; Number of cases is 1, Range of values is 0 to 0
 11117                           ; switch strategies available:
 11118                           ; Name         Instructions Cycles
 11119                           ; simple_byte            4     3 (average)
 11120                           ;	Chosen strategy is simple_byte
 11121  0001A8  5033               	movf	(??i2_I2C2_DO_TX+1)^0,w,c
 11122  0001AA  0A00               	xorlw	0	; case 0
 11123  0001AC  B4D8               	btfsc	status,2,c
 11124  0001AE  EFDB  F000         	goto	i2l8189
 11125  0001B2  EFBC  F000         	goto	i2l5745
 11126  0001B6                     i2l8189:
 11127                           
 11128                           ; Switch size 1, requested type "simple"
 11129                           ; Number of cases is 4, Range of values is 1 to 4
 11130                           ; switch strategies available:
 11131                           ; Name         Instructions Cycles
 11132                           ; simple_byte           13     7 (average)
 11133                           ;	Chosen strategy is simple_byte
 11134  0001B6  5032               	movf	??i2_I2C2_DO_TX^0,w,c
 11135  0001B8  0A01               	xorlw	1	; case 1
 11136  0001BA  B4D8               	btfsc	status,2,c
 11137  0001BC  EFBC  F000         	goto	i2l5745
 11138  0001C0  0A03               	xorlw	3	; case 2
 11139  0001C2  B4D8               	btfsc	status,2,c
 11140  0001C4  EFB4  F000         	goto	i2l5737
 11141  0001C8  0A01               	xorlw	1	; case 3
 11142  0001CA  B4D8               	btfsc	status,2,c
 11143  0001CC  EFB8  F000         	goto	i2l5741
 11144  0001D0  0A07               	xorlw	7	; case 4
 11145  0001D2  B4D8               	btfsc	status,2,c
 11146  0001D4  EFBC  F000         	goto	i2l5745
 11147  0001D8  EFBC  F000         	goto	i2l5745
 11148  0001DC                     i2l5753:
 11149  0001DC  EC2D  F00D         	call	i2_I2C2_MasterIsTxBufEmpty	;wreg free
 11150  0001E0  0900               	iorlw	0
 11151  0001E2  B4D8               	btfsc	status,2,c
 11152  0001E4  EFF6  F000         	goto	i2u248_41
 11153  0001E8  EFF8  F000         	goto	i2u248_40
 11154  0001EC                     i2u248_41:
 11155  0001EC  EF39  F001         	goto	i2l5779
 11156  0001F0                     i2u248_40:
 11157  0001F0                     
 11158                           ;../modbus/i2c2_master.c: 383:         if (I2C2_Status.addressNackCheck) {
 11159  0001F0  0100               	movlb	0	; () banked
 11160  0001F2  5183               	movf	(_I2C2_Status+35)& (0+255),w,b
 11161  0001F4  0B03               	andlw	3
 11162  0001F6  0900               	iorlw	0
 11163  0001F8  B4D8               	btfsc	status,2,c
 11164  0001FA  EF01  F001         	goto	i2u249_41
 11165  0001FE  EF03  F001         	goto	i2u249_40
 11166  000202                     i2u249_41:
 11167  000202  EF0F  F001         	goto	i2l5759
 11168  000206                     i2u249_40:
 11169  000206                     
 11170                           ; BSR set to: 0
 11171                           ;../modbus/i2c2_master.c: 384:             I2C2_Status.addressNackCheck--;
 11172  000206  0E01               	movlw	1
 11173  000208  6E32               	movwf	??i2_I2C2_DO_TX^0,c
 11174  00020A  5183               	movf	(_I2C2_Status+35)& (0+255),w,b
 11175  00020C  0B03               	andlw	3
 11176  00020E  6E33               	movwf	(??i2_I2C2_DO_TX+1)^0,c
 11177  000210  5032               	movf	??i2_I2C2_DO_TX^0,w,c
 11178  000212  5E33               	subwf	(??i2_I2C2_DO_TX+1)^0,f,c
 11179  000214  5183               	movf	(_I2C2_Status+35)& (0+255),w,b
 11180  000216  1833               	xorwf	(??i2_I2C2_DO_TX+1)^0,w,c
 11181  000218  0BFC               	andlw	-4
 11182  00021A  1833               	xorwf	(??i2_I2C2_DO_TX+1)^0,w,c
 11183  00021C  6F83               	movwf	(_I2C2_Status+35)& (0+255),b
 11184  00021E                     i2l5759:
 11185                           
 11186                           ; BSR set to: 0
 11187                           ;../modbus/i2c2_master.c: 386:         uint8_t dataTx = *I2C2_Status.data_ptr++;
 11188  00021E  0060  F1F7  FFD9   	movff	_I2C2_Status+29,fsr2l
 11189  000224  0060  F1FB  FFDA   	movff	_I2C2_Status+30,fsr2h
 11190  00022A  50DF               	movf	indf2,w,c
 11191  00022C  6E36               	movwf	i2I2C2_DO_TX@dataTx^0,c
 11192  00022E                     
 11193                           ; BSR set to: 0
 11194  00022E  4B7D               	infsnz	(_I2C2_Status+29)& (0+255),f,b
 11195  000230  2B7E               	incf	(_I2C2_Status+30)& (0+255),f,b
 11196  000232                     
 11197                           ; BSR set to: 0
 11198                           ;../modbus/i2c2_master.c: 387:         i2c2_fsm_states_t retFsmState = (--I2C2_Status.da
      +                          ta_length) ? I2C2_TX : I2C2_DO_TX_EMPTY();
 11199  000232  077F               	decf	(_I2C2_Status+31)& (0+255),f,b
 11200  000234  A0D8               	btfss	status,0,c
 11201  000236  0780               	decf	(_I2C2_Status+32)& (0+255),f,b
 11202  000238  517F               	movf	(_I2C2_Status+31)& (0+255),w,b
 11203  00023A  1180               	iorwf	(_I2C2_Status+32)& (0+255),w,b
 11204  00023C  A4D8               	btfss	status,2,c
 11205  00023E  EF23  F001         	goto	i2u250_41
 11206  000242  EF25  F001         	goto	i2u250_40
 11207  000246                     i2u250_41:
 11208  000246  EF2D  F001         	goto	i2l5767
 11209  00024A                     i2u250_40:
 11210  00024A                     
 11211                           ; BSR set to: 0
 11212  00024A  ECD7  F006         	call	i2_I2C2_DO_TX_EMPTY	;wreg free
 11213  00024E  6E32               	movwf	??i2_I2C2_DO_TX^0,c
 11214  000250  5032               	movf	??i2_I2C2_DO_TX^0,w,c
 11215  000252  6E34               	movwf	i2_I2C2_DO_TX$3425^0,c
 11216  000254  6A35               	clrf	(i2_I2C2_DO_TX$3425+1)^0,c
 11217  000256  EF31  F001         	goto	i2l5769
 11218  00025A                     i2l5767:
 11219                           
 11220                           ; BSR set to: 0
 11221  00025A  0E00               	movlw	0
 11222  00025C  6E35               	movwf	(i2_I2C2_DO_TX$3425+1)^0,c
 11223  00025E  0E03               	movlw	3
 11224  000260  6E34               	movwf	i2_I2C2_DO_TX$3425^0,c
 11225  000262                     i2l5769:
 11226  000262  C034  F037         	movff	i2_I2C2_DO_TX$3425,i2I2C2_DO_TX@retFsmState
 11227  000266                     
 11228                           ;../modbus/i2c2_master.c: 388:         I2C2_MasterSendTxData(dataTx);
 11229  000266  5036               	movf	i2I2C2_DO_TX@dataTx^0,w,c
 11230  000268  EC27  F00E         	call	i2_I2C2_MasterSendTxData@i2c2_master$F3095
 11231  00026C                     
 11232                           ;../modbus/i2c2_master.c: 389:         return retFsmState;
 11233  00026C  5037               	movf	i2I2C2_DO_TX@retFsmState^0,w,c
 11234  00026E  EF3A  F001         	goto	i2l1703
 11235  000272                     i2l5779:
 11236                           
 11237                           ;../modbus/i2c2_master.c: 391:         return I2C2_TX;
 11238  000272  0E03               	movlw	3
 11239  000274                     i2l1703:
 11240  000274  0012               	return		;funcret
 11241  000276                     __end_ofi2_I2C2_DO_TX:
 11242                           	callstack 0
 11243                           
 11244 ;; *************** function i2_I2C2_DO_SEND_ADR_WRITE *****************
 11245 ;; Defined at:
 11246 ;;		line 364 in file "../modbus/i2c2_master.c"
 11247 ;; Parameters:    Size  Location     Type
 11248 ;;		None
 11249 ;; Auto vars:     Size  Location     Type
 11250 ;;		None
 11251 ;; Return value:  Size  Location     Type
 11252 ;;                  1    wreg      enum E16535
 11253 ;; Registers used:
 11254 ;;		wreg, status,2, status,0, cstack
 11255 ;; Tracked objects:
 11256 ;;		On entry : 0/0
 11257 ;;		On exit  : 0/0
 11258 ;;		Unchanged: 0/0
 11259 ;; Data sizes:     COMRAM   BANK0   BANK1   BANK2   BANK3   BANK4   BANK5   BANK6   BANK7
 11260 ;;      Params:         0       0       0       0       0       0       0       0       0
 11261 ;;      Locals:         0       0       0       0       0       0       0       0       0
 11262 ;;      Temps:          0       0       0       0       0       0       0       0       0
 11263 ;;      Totals:         0       0       0       0       0       0       0       0       0
 11264 ;;Total ram usage:        0 bytes
 11265 ;; Hardware stack levels used: 1
 11266 ;; Hardware stack levels required when called: 1
 11267 ;; This function calls:
 11268 ;;		i2_I2C2_MasterSendTxData@i2c2_master$F3095
 11269 ;; This function is called by:
 11270 ;; This function uses a non-reentrant model
 11271 ;;
 11272                           
 11273                           	psect	text115
 11274  001A44                     __ptext115:
 11275                           	callstack 0
 11276  001A44                     i2_I2C2_DO_SEND_ADR_WRITE:
 11277                           	callstack 13
 11278  001A44                     
 11279                           ;../modbus/i2c2_master.c: 365:     I2C2_Status.addressNackCheck = 2;
 11280  001A44  0100               	movlb	0	; () banked
 11281  001A46  5183               	movf	(_I2C2_Status+35)& (0+255),w,b
 11282  001A48  0BFC               	andlw	-4
 11283  001A4A  0902               	iorlw	2
 11284  001A4C  6F83               	movwf	(_I2C2_Status+35)& (0+255),b
 11285  001A4E                     
 11286                           ; BSR set to: 0
 11287                           ;../modbus/i2c2_master.c: 366:     I2C2_MasterSendTxData((uint8_t) (I2C2_Status.address 
      +                          << 1));
 11288  001A4E  517C               	movf	(_I2C2_Status+28)& (0+255),w,b
 11289  001A50  257C               	addwf	(_I2C2_Status+28)& (0+255),w,b
 11290  001A52  EC27  F00E         	call	i2_I2C2_MasterSendTxData@i2c2_master$F3095
 11291  001A56                     
 11292                           ;../modbus/i2c2_master.c: 367:     return I2C2_TX;
 11293  001A56  0E03               	movlw	3
 11294  001A58  0012               	return		;funcret
 11295  001A5A                     __end_ofi2_I2C2_DO_SEND_ADR_WRITE:
 11296                           	callstack 0
 11297                           
 11298 ;; *************** function i2_I2C2_DO_SEND_ADR_READ *****************
 11299 ;; Defined at:
 11300 ;;		line 355 in file "../modbus/i2c2_master.c"
 11301 ;; Parameters:    Size  Location     Type
 11302 ;;		None
 11303 ;; Auto vars:     Size  Location     Type
 11304 ;;		None
 11305 ;; Return value:  Size  Location     Type
 11306 ;;                  1    wreg      enum E16535
 11307 ;; Registers used:
 11308 ;;		wreg, status,2, status,0, pclath, tosl, cstack
 11309 ;; Tracked objects:
 11310 ;;		On entry : 0/0
 11311 ;;		On exit  : 0/0
 11312 ;;		Unchanged: 0/0
 11313 ;; Data sizes:     COMRAM   BANK0   BANK1   BANK2   BANK3   BANK4   BANK5   BANK6   BANK7
 11314 ;;      Params:         0       0       0       0       0       0       0       0       0
 11315 ;;      Locals:         0       0       0       0       0       0       0       0       0
 11316 ;;      Temps:          0       0       0       0       0       0       0       0       0
 11317 ;;      Totals:         0       0       0       0       0       0       0       0       0
 11318 ;;Total ram usage:        0 bytes
 11319 ;; Hardware stack levels used: 1
 11320 ;; Hardware stack levels required when called: 2
 11321 ;; This function calls:
 11322 ;;		i2_I2C2_DO_RX_EMPTY
 11323 ;;		i2_I2C2_MasterSendTxData@i2c2_master$F3095
 11324 ;; This function is called by:
 11325 ;;		i2_I2C2_DO_SEND_RESTART_READ
 11326 ;; This function uses a non-reentrant model
 11327 ;;
 11328                           
 11329                           	psect	text116
 11330  0016F8                     __ptext116:
 11331                           	callstack 0
 11332  0016F8                     i2_I2C2_DO_SEND_ADR_READ:
 11333                           	callstack 10
 11334  0016F8                     
 11335                           ;../modbus/i2c2_master.c: 356:     I2C2_Status.addressNackCheck = 2;
 11336  0016F8  0100               	movlb	0	; () banked
 11337  0016FA  5183               	movf	(_I2C2_Status+35)& (0+255),w,b
 11338  0016FC  0BFC               	andlw	-4
 11339  0016FE  0902               	iorlw	2
 11340  001700  6F83               	movwf	(_I2C2_Status+35)& (0+255),b
 11341  001702                     
 11342                           ; BSR set to: 0
 11343                           ;../modbus/i2c2_master.c: 357:     if (I2C2_Status.data_length == 1) {
 11344  001702  057F               	decf	(_I2C2_Status+31)& (0+255),w,b
 11345  001704  1180               	iorwf	(_I2C2_Status+32)& (0+255),w,b
 11346  001706  A4D8               	btfss	status,2,c
 11347  001708  EF88  F00B         	goto	i2u192_41
 11348  00170C  EF8A  F00B         	goto	i2u192_40
 11349  001710                     i2u192_41:
 11350  001710  EF8C  F00B         	goto	i2l5137
 11351  001714                     i2u192_40:
 11352  001714                     
 11353                           ; BSR set to: 0
 11354                           ;../modbus/i2c2_master.c: 358:         I2C2_DO_RX_EMPTY();
 11355  001714  ECE8  F004         	call	i2_I2C2_DO_RX_EMPTY	;wreg free
 11356  001718                     i2l5137:
 11357                           
 11358                           ;../modbus/i2c2_master.c: 360:     I2C2_MasterSendTxData((uint8_t) (I2C2_Status.address 
      +                          << 1 | 1));
 11359  001718  80D8               	bsf	status,0,c
 11360  00171A  0100               	movlb	0	; () banked
 11361  00171C  357C               	rlcf	(_I2C2_Status+28)& (0+255),w,b
 11362  00171E  EC27  F00E         	call	i2_I2C2_MasterSendTxData@i2c2_master$F3095
 11363  001722                     
 11364                           ;../modbus/i2c2_master.c: 361:     return I2C2_RX;
 11365  001722  0E04               	movlw	4
 11366  001724  0012               	return		;funcret
 11367  001726                     __end_ofi2_I2C2_DO_SEND_ADR_READ:
 11368                           	callstack 0
 11369                           
 11370 ;; *************** function i2_I2C2_DO_IDLE *****************
 11371 ;; Defined at:
 11372 ;;		line 349 in file "../modbus/i2c2_master.c"
 11373 ;; Parameters:    Size  Location     Type
 11374 ;;		None
 11375 ;; Auto vars:     Size  Location     Type
 11376 ;;		None
 11377 ;; Return value:  Size  Location     Type
 11378 ;;                  1    wreg      enum E16535
 11379 ;; Registers used:
 11380 ;;		wreg, status,2
 11381 ;; Tracked objects:
 11382 ;;		On entry : 0/0
 11383 ;;		On exit  : 0/0
 11384 ;;		Unchanged: 0/0
 11385 ;; Data sizes:     COMRAM   BANK0   BANK1   BANK2   BANK3   BANK4   BANK5   BANK6   BANK7
 11386 ;;      Params:         0       0       0       0       0       0       0       0       0
 11387 ;;      Locals:         0       0       0       0       0       0       0       0       0
 11388 ;;      Temps:          0       0       0       0       0       0       0       0       0
 11389 ;;      Totals:         0       0       0       0       0       0       0       0       0
 11390 ;;Total ram usage:        0 bytes
 11391 ;; Hardware stack levels used: 1
 11392 ;; This function calls:
 11393 ;;		Nothing
 11394 ;; This function is called by:
 11395 ;;		i2_I2C2_DO_RX_NACK_STOP
 11396 ;; This function uses a non-reentrant model
 11397 ;;
 11398                           
 11399                           	psect	text117
 11400  001BC0                     __ptext117:
 11401                           	callstack 0
 11402  001BC0                     i2_I2C2_DO_IDLE:
 11403                           	callstack 13
 11404  001BC0                     
 11405                           ;../modbus/i2c2_master.c: 350:     I2C2_Status.busy = 0;
 11406  001BC0  0100               	movlb	0	; () banked
 11407  001BC2  9583               	bcf	(_I2C2_Status+35)& (0+255),2,b
 11408  001BC4                     
 11409                           ; BSR set to: 0
 11410                           ;../modbus/i2c2_master.c: 351:     I2C2_Status.error = I2C2_NOERR;
 11411  001BC4  0E00               	movlw	0
 11412  001BC6  6F82               	movwf	(_I2C2_Status+34)& (0+255),b
 11413  001BC8                     
 11414                           ; BSR set to: 0
 11415                           ;../modbus/i2c2_master.c: 352:     return I2C2_RESET;
 11416  001BC8  0E0F               	movlw	15
 11417  001BCA                     
 11418                           ; BSR set to: 0
 11419  001BCA  0012               	return		;funcret
 11420  001BCC                     __end_ofi2_I2C2_DO_IDLE:
 11421                           	callstack 0
 11422                           
 11423 ;; *************** function i2_I2C2_DO_TX_ACK *****************
 11424 ;; Defined at:
 11425 ;;		line 479 in file "../modbus/i2c2_master.c"
 11426 ;; Parameters:    Size  Location     Type
 11427 ;;		None
 11428 ;; Auto vars:     Size  Location     Type
 11429 ;;		None
 11430 ;; Return value:  Size  Location     Type
 11431 ;;                  1    wreg      enum E16535
 11432 ;; Registers used:
 11433 ;;		wreg, cstack
 11434 ;; Tracked objects:
 11435 ;;		On entry : 0/0
 11436 ;;		On exit  : 0/0
 11437 ;;		Unchanged: 0/0
 11438 ;; Data sizes:     COMRAM   BANK0   BANK1   BANK2   BANK3   BANK4   BANK5   BANK6   BANK7
 11439 ;;      Params:         0       0       0       0       0       0       0       0       0
 11440 ;;      Locals:         0       0       0       0       0       0       0       0       0
 11441 ;;      Temps:          0       0       0       0       0       0       0       0       0
 11442 ;;      Totals:         0       0       0       0       0       0       0       0       0
 11443 ;;Total ram usage:        0 bytes
 11444 ;; Hardware stack levels used: 1
 11445 ;; Hardware stack levels required when called: 1
 11446 ;; This function calls:
 11447 ;;		i2_I2C2_MasterSendAck@i2c2_master$F3136
 11448 ;; This function is called by:
 11449 ;; This function uses a non-reentrant model
 11450 ;;
 11451                           
 11452                           	psect	text118
 11453  001C9E                     __ptext118:
 11454                           	callstack 0
 11455  001C9E                     i2_I2C2_DO_TX_ACK:
 11456                           	callstack 13
 11457  001C9E                     
 11458                           ;../modbus/i2c2_master.c: 480:     I2C2_MasterSendAck();
 11459  001C9E  EC81  F00E         	call	i2_I2C2_MasterSendAck@i2c2_master$F3136	;wreg free
 11460  001CA2                     
 11461                           ;../modbus/i2c2_master.c: 481:     return I2C2_TX;
 11462  001CA2  0E03               	movlw	3
 11463  001CA4  0012               	return		;funcret
 11464  001CA6                     __end_ofi2_I2C2_DO_TX_ACK:
 11465                           	callstack 0
 11466                           
 11467 ;; *************** function i2_I2C2_MasterIsTxBufEmpty *****************
 11468 ;; Defined at:
 11469 ;;		line 653 in file "../modbus/i2c2_master.c"
 11470 ;; Parameters:    Size  Location     Type
 11471 ;;		None
 11472 ;; Auto vars:     Size  Location     Type
 11473 ;;		None
 11474 ;; Return value:  Size  Location     Type
 11475 ;;                  1    wreg      _Bool 
 11476 ;; Registers used:
 11477 ;;		wreg
 11478 ;; Tracked objects:
 11479 ;;		On entry : 0/0
 11480 ;;		On exit  : 0/0
 11481 ;;		Unchanged: 0/0
 11482 ;; Data sizes:     COMRAM   BANK0   BANK1   BANK2   BANK3   BANK4   BANK5   BANK6   BANK7
 11483 ;;      Params:         0       0       0       0       0       0       0       0       0
 11484 ;;      Locals:         0       0       0       0       0       0       0       0       0
 11485 ;;      Temps:          0       0       0       0       0       0       0       0       0
 11486 ;;      Totals:         0       0       0       0       0       0       0       0       0
 11487 ;;Total ram usage:        0 bytes
 11488 ;; Hardware stack levels used: 1
 11489 ;; This function calls:
 11490 ;;		Nothing
 11491 ;; This function is called by:
 11492 ;;		i2_I2C2_DO_TX
 11493 ;; This function uses a non-reentrant model
 11494 ;;
 11495                           
 11496                           	psect	text119
 11497  001A5A                     __ptext119:
 11498                           	callstack 0
 11499  001A5A                     i2_I2C2_MasterIsTxBufEmpty:
 11500                           	callstack 13
 11501  001A5A                     
 11502                           ;../modbus/i2c2_master.c: 654:     return I2C2STAT1bits.TXBE;
 11503  001A5A  013D               	movlb	61	; () banked
 11504  001A5C  BB62               	btfsc	98,5,b	;volatile
 11505  001A5E  EF33  F00D         	goto	i2u212_41
 11506  001A62  EF36  F00D         	goto	i2u212_40
 11507  001A66                     i2u212_41:
 11508  001A66  0E01               	movlw	1
 11509  001A68  EF37  F00D         	goto	i2u212_46
 11510  001A6C                     i2u212_40:
 11511  001A6C  0E00               	movlw	0
 11512  001A6E                     i2u212_46:
 11513  001A6E                     
 11514                           ; BSR set to: 61
 11515  001A6E  0012               	return		;funcret
 11516  001A70                     __end_ofi2_I2C2_MasterIsTxBufEmpty:
 11517                           	callstack 0
 11518                           
 11519 ;; *************** function i2_I2C2_MasterIsNack *****************
 11520 ;; Defined at:
 11521 ;;		line 630 in file "../modbus/i2c2_master.c"
 11522 ;; Parameters:    Size  Location     Type
 11523 ;;		None
 11524 ;; Auto vars:     Size  Location     Type
 11525 ;;		None
 11526 ;; Return value:  Size  Location     Type
 11527 ;;                  1    wreg      _Bool 
 11528 ;; Registers used:
 11529 ;;		wreg
 11530 ;; Tracked objects:
 11531 ;;		On entry : 0/0
 11532 ;;		On exit  : 0/0
 11533 ;;		Unchanged: 0/0
 11534 ;; Data sizes:     COMRAM   BANK0   BANK1   BANK2   BANK3   BANK4   BANK5   BANK6   BANK7
 11535 ;;      Params:         0       0       0       0       0       0       0       0       0
 11536 ;;      Locals:         0       0       0       0       0       0       0       0       0
 11537 ;;      Temps:          0       0       0       0       0       0       0       0       0
 11538 ;;      Totals:         0       0       0       0       0       0       0       0       0
 11539 ;;Total ram usage:        0 bytes
 11540 ;; Hardware stack levels used: 1
 11541 ;; This function calls:
 11542 ;;		Nothing
 11543 ;; This function is called by:
 11544 ;;		i2_I2C2_MasterFsm
 11545 ;;		i2_I2C2_DO_TX
 11546 ;; This function uses a non-reentrant model
 11547 ;;
 11548                           
 11549                           	psect	text120
 11550  001A70                     __ptext120:
 11551                           	callstack 0
 11552  001A70                     i2_I2C2_MasterIsNack:
 11553                           	callstack 14
 11554  001A70                     
 11555                           ;../modbus/i2c2_master.c: 631:     return I2C2CON1bits.ACKSTAT;
 11556  001A70  013D               	movlb	61	; () banked
 11557  001A72  BB5E               	btfsc	94,5,b	;volatile
 11558  001A74  EF3E  F00D         	goto	i2u210_41
 11559  001A78  EF41  F00D         	goto	i2u210_40
 11560  001A7C                     i2u210_41:
 11561  001A7C  0E01               	movlw	1
 11562  001A7E  EF42  F00D         	goto	i2u210_46
 11563  001A82                     i2u210_40:
 11564  001A82  0E00               	movlw	0
 11565  001A84                     i2u210_46:
 11566  001A84                     
 11567                           ; BSR set to: 61
 11568  001A84  0012               	return		;funcret
 11569  001A86                     __end_ofi2_I2C2_MasterIsNack:
 11570                           	callstack 0
 11571                           
 11572 ;; *************** function i2_I2C2_MasterGetCounter *****************
 11573 ;; Defined at:
 11574 ;;		line 598 in file "../modbus/i2c2_master.c"
 11575 ;; Parameters:    Size  Location     Type
 11576 ;;		None
 11577 ;; Auto vars:     Size  Location     Type
 11578 ;;		None
 11579 ;; Return value:  Size  Location     Type
 11580 ;;                  1    wreg      unsigned char 
 11581 ;; Registers used:
 11582 ;;		wreg, status,2
 11583 ;; Tracked objects:
 11584 ;;		On entry : 0/0
 11585 ;;		On exit  : 0/0
 11586 ;;		Unchanged: 0/0
 11587 ;; Data sizes:     COMRAM   BANK0   BANK1   BANK2   BANK3   BANK4   BANK5   BANK6   BANK7
 11588 ;;      Params:         0       0       0       0       0       0       0       0       0
 11589 ;;      Locals:         0       0       0       0       0       0       0       0       0
 11590 ;;      Temps:          0       0       0       0       0       0       0       0       0
 11591 ;;      Totals:         0       0       0       0       0       0       0       0       0
 11592 ;;Total ram usage:        0 bytes
 11593 ;; Hardware stack levels used: 1
 11594 ;; This function calls:
 11595 ;;		Nothing
 11596 ;; This function is called by:
 11597 ;;		i2_I2C2_DO_SEND_STOP
 11598 ;; This function uses a non-reentrant model
 11599 ;;
 11600                           
 11601                           	psect	text121
 11602  001CF0                     __ptext121:
 11603                           	callstack 0
 11604  001CF0                     i2_I2C2_MasterGetCounter:
 11605                           	callstack 13
 11606  001CF0                     
 11607                           ;../modbus/i2c2_master.c: 599:     return I2C2CNT;
 11608  001CF0  013D               	movlb	61	; () banked
 11609  001CF2  5156               	movf	86,w,b	;volatile
 11610  001CF4                     
 11611                           ; BSR set to: 61
 11612  001CF4  0012               	return		;funcret
 11613  001CF6                     __end_ofi2_I2C2_MasterGetCounter:
 11614                           	callstack 0
 11615                           
 11616 ;; *************** function i2_I2C2_MasterStop@i2c2_master$F3126 *****************
 11617 ;; Defined at:
 11618 ;;		line 625 in file "../modbus/i2c2_master.c"
 11619 ;; Parameters:    Size  Location     Type
 11620 ;;		None
 11621 ;; Auto vars:     Size  Location     Type
 11622 ;;		None
 11623 ;; Return value:  Size  Location     Type
 11624 ;;                  1    wreg      void 
 11625 ;; Registers used:
 11626 ;;		None
 11627 ;; Tracked objects:
 11628 ;;		On entry : 0/0
 11629 ;;		On exit  : 0/0
 11630 ;;		Unchanged: 0/0
 11631 ;; Data sizes:     COMRAM   BANK0   BANK1   BANK2   BANK3   BANK4   BANK5   BANK6   BANK7
 11632 ;;      Params:         0       0       0       0       0       0       0       0       0
 11633 ;;      Locals:         0       0       0       0       0       0       0       0       0
 11634 ;;      Temps:          0       0       0       0       0       0       0       0       0
 11635 ;;      Totals:         0       0       0       0       0       0       0       0       0
 11636 ;;Total ram usage:        0 bytes
 11637 ;; Hardware stack levels used: 1
 11638 ;; This function calls:
 11639 ;;		Nothing
 11640 ;; This function is called by:
 11641 ;;		i2_I2C2_DO_SEND_STOP
 11642 ;;		i2_I2C2_DO_RX_NACK_STOP
 11643 ;; This function uses a non-reentrant model
 11644 ;;
 11645                           
 11646                           	psect	text122
 11647  001CF6                     __ptext122:
 11648                           	callstack 0
 11649  001CF6                     i2_I2C2_MasterStop@i2c2_master$F3126:
 11650                           	callstack 13
 11651  001CF6                     
 11652                           ;../modbus/i2c2_master.c: 627:     I2C2CON0bits.S = 0;
 11653  001CF6  013D               	movlb	61	; () banked
 11654  001CF8  9B5D               	bcf	93,5,b	;volatile
 11655  001CFA                     
 11656                           ; BSR set to: 61
 11657  001CFA  0012               	return		;funcret
 11658  001CFC                     __end_ofi2_I2C2_MasterStop@i2c2_master$F3126:
 11659                           	callstack 0
 11660                           
 11661 ;; *************** function i2_I2C2_MasterSendNack@i2c2_master$F3141 *****************
 11662 ;; Defined at:
 11663 ;;		line 638 in file "../modbus/i2c2_master.c"
 11664 ;; Parameters:    Size  Location     Type
 11665 ;;		None
 11666 ;; Auto vars:     Size  Location     Type
 11667 ;;		None
 11668 ;; Return value:  Size  Location     Type
 11669 ;;                  1    wreg      void 
 11670 ;; Registers used:
 11671 ;;		None
 11672 ;; Tracked objects:
 11673 ;;		On entry : 0/0
 11674 ;;		On exit  : 0/0
 11675 ;;		Unchanged: 0/0
 11676 ;; Data sizes:     COMRAM   BANK0   BANK1   BANK2   BANK3   BANK4   BANK5   BANK6   BANK7
 11677 ;;      Params:         0       0       0       0       0       0       0       0       0
 11678 ;;      Locals:         0       0       0       0       0       0       0       0       0
 11679 ;;      Temps:          0       0       0       0       0       0       0       0       0
 11680 ;;      Totals:         0       0       0       0       0       0       0       0       0
 11681 ;;Total ram usage:        0 bytes
 11682 ;; Hardware stack levels used: 1
 11683 ;; This function calls:
 11684 ;;		Nothing
 11685 ;; This function is called by:
 11686 ;;		i2_I2C2_DO_RX_NACK_STOP
 11687 ;;		i2_I2C2_DO_RX_NACK_RESTART
 11688 ;; This function uses a non-reentrant model
 11689 ;;
 11690                           
 11691                           	psect	text123
 11692  001CFC                     __ptext123:
 11693                           	callstack 0
 11694  001CFC                     i2_I2C2_MasterSendNack@i2c2_master$F3141:
 11695                           	callstack 13
 11696  001CFC                     
 11697                           ;../modbus/i2c2_master.c: 639:     I2C2CON1bits.ACKDT = 1;
 11698  001CFC  013D               	movlb	61	; () banked
 11699  001CFE  8D5E               	bsf	94,6,b	;volatile
 11700  001D00                     
 11701                           ; BSR set to: 61
 11702  001D00  0012               	return		;funcret
 11703  001D02                     __end_ofi2_I2C2_MasterSendNack@i2c2_master$F3141:
 11704                           	callstack 0
 11705                           
 11706 ;; *************** function i2_I2C2_MasterSendAck@i2c2_master$F3136 *****************
 11707 ;; Defined at:
 11708 ;;		line 634 in file "../modbus/i2c2_master.c"
 11709 ;; Parameters:    Size  Location     Type
 11710 ;;		None
 11711 ;; Auto vars:     Size  Location     Type
 11712 ;;		None
 11713 ;; Return value:  Size  Location     Type
 11714 ;;                  1    wreg      void 
 11715 ;; Registers used:
 11716 ;;		None
 11717 ;; Tracked objects:
 11718 ;;		On entry : 0/0
 11719 ;;		On exit  : 0/0
 11720 ;;		Unchanged: 0/0
 11721 ;; Data sizes:     COMRAM   BANK0   BANK1   BANK2   BANK3   BANK4   BANK5   BANK6   BANK7
 11722 ;;      Params:         0       0       0       0       0       0       0       0       0
 11723 ;;      Locals:         0       0       0       0       0       0       0       0       0
 11724 ;;      Temps:          0       0       0       0       0       0       0       0       0
 11725 ;;      Totals:         0       0       0       0       0       0       0       0       0
 11726 ;;Total ram usage:        0 bytes
 11727 ;; Hardware stack levels used: 1
 11728 ;; This function calls:
 11729 ;;		Nothing
 11730 ;; This function is called by:
 11731 ;;		i2_I2C2_DO_RX_ACK
 11732 ;;		i2_I2C2_DO_TX_ACK
 11733 ;; This function uses a non-reentrant model
 11734 ;;
 11735                           
 11736                           	psect	text124
 11737  001D02                     __ptext124:
 11738                           	callstack 0
 11739  001D02                     i2_I2C2_MasterSendAck@i2c2_master$F3136:
 11740                           	callstack 13
 11741  001D02                     
 11742                           ;../modbus/i2c2_master.c: 635:     I2C2CON1bits.ACKDT = 0;
 11743  001D02  013D               	movlb	61	; () banked
 11744  001D04  9D5E               	bcf	94,6,b	;volatile
 11745  001D06                     
 11746                           ; BSR set to: 61
 11747  001D06  0012               	return		;funcret
 11748  001D08                     __end_ofi2_I2C2_MasterSendAck@i2c2_master$F3136:
 11749                           	callstack 0
 11750                           
 11751 ;; *************** function i2_I2C2_MasterIsRxBufFull *****************
 11752 ;; Defined at:
 11753 ;;		line 649 in file "../modbus/i2c2_master.c"
 11754 ;; Parameters:    Size  Location     Type
 11755 ;;		None
 11756 ;; Auto vars:     Size  Location     Type
 11757 ;;		None
 11758 ;; Return value:  Size  Location     Type
 11759 ;;                  1    wreg      _Bool 
 11760 ;; Registers used:
 11761 ;;		wreg
 11762 ;; Tracked objects:
 11763 ;;		On entry : 0/0
 11764 ;;		On exit  : 0/0
 11765 ;;		Unchanged: 0/0
 11766 ;; Data sizes:     COMRAM   BANK0   BANK1   BANK2   BANK3   BANK4   BANK5   BANK6   BANK7
 11767 ;;      Params:         0       0       0       0       0       0       0       0       0
 11768 ;;      Locals:         0       0       0       0       0       0       0       0       0
 11769 ;;      Temps:          0       0       0       0       0       0       0       0       0
 11770 ;;      Totals:         0       0       0       0       0       0       0       0       0
 11771 ;;Total ram usage:        0 bytes
 11772 ;; Hardware stack levels used: 1
 11773 ;; This function calls:
 11774 ;;		Nothing
 11775 ;; This function is called by:
 11776 ;;		i2_I2C2_DO_RX
 11777 ;; This function uses a non-reentrant model
 11778 ;;
 11779                           
 11780                           	psect	text125
 11781  001A86                     __ptext125:
 11782                           	callstack 0
 11783  001A86                     i2_I2C2_MasterIsRxBufFull:
 11784                           	callstack 13
 11785  001A86                     
 11786                           ;../modbus/i2c2_master.c: 650:     return I2C2STAT1bits.RXBF;
 11787  001A86  013D               	movlb	61	; () banked
 11788  001A88  B162               	btfsc	98,0,b	;volatile
 11789  001A8A  EF49  F00D         	goto	i2u211_41
 11790  001A8E  EF4C  F00D         	goto	i2u211_40
 11791  001A92                     i2u211_41:
 11792  001A92  0E01               	movlw	1
 11793  001A94  EF4D  F00D         	goto	i2u211_46
 11794  001A98                     i2u211_40:
 11795  001A98  0E00               	movlw	0
 11796  001A9A                     i2u211_46:
 11797  001A9A                     
 11798                           ; BSR set to: 61
 11799  001A9A  0012               	return		;funcret
 11800  001A9C                     __end_ofi2_I2C2_MasterIsRxBufFull:
 11801                           	callstack 0
 11802                           
 11803 ;; *************** function i2_I2C2_MasterGetRxData@i2c2_master$F3111 *****************
 11804 ;; Defined at:
 11805 ;;		line 590 in file "../modbus/i2c2_master.c"
 11806 ;; Parameters:    Size  Location     Type
 11807 ;;		None
 11808 ;; Auto vars:     Size  Location     Type
 11809 ;;		None
 11810 ;; Return value:  Size  Location     Type
 11811 ;;                  1    wreg      unsigned char 
 11812 ;; Registers used:
 11813 ;;		wreg, status,2
 11814 ;; Tracked objects:
 11815 ;;		On entry : 0/0
 11816 ;;		On exit  : 0/0
 11817 ;;		Unchanged: 0/0
 11818 ;; Data sizes:     COMRAM   BANK0   BANK1   BANK2   BANK3   BANK4   BANK5   BANK6   BANK7
 11819 ;;      Params:         0       0       0       0       0       0       0       0       0
 11820 ;;      Locals:         0       0       0       0       0       0       0       0       0
 11821 ;;      Temps:          0       0       0       0       0       0       0       0       0
 11822 ;;      Totals:         0       0       0       0       0       0       0       0       0
 11823 ;;Total ram usage:        0 bytes
 11824 ;; Hardware stack levels used: 1
 11825 ;; This function calls:
 11826 ;;		Nothing
 11827 ;; This function is called by:
 11828 ;;		i2_I2C2_DO_RX
 11829 ;; This function uses a non-reentrant model
 11830 ;;
 11831                           
 11832                           	psect	text126
 11833  001D08                     __ptext126:
 11834                           	callstack 0
 11835  001D08                     i2_I2C2_MasterGetRxData@i2c2_master$F3111:
 11836                           	callstack 13
 11837  001D08                     
 11838                           ;../modbus/i2c2_master.c: 591:     return I2C2RXB;
 11839  001D08  013D               	movlb	61	; () banked
 11840  001D0A  5154               	movf	84,w,b	;volatile
 11841  001D0C                     
 11842                           ; BSR set to: 61
 11843  001D0C  0012               	return		;funcret
 11844  001D0E                     __end_ofi2_I2C2_MasterGetRxData@i2c2_master$F3111:
 11845                           	callstack 0
 11846                           
 11847 ;; *************** function i2_I2C2_MasterClearIrq *****************
 11848 ;; Defined at:
 11849 ;;		line 700 in file "../modbus/i2c2_master.c"
 11850 ;; Parameters:    Size  Location     Type
 11851 ;;		None
 11852 ;; Auto vars:     Size  Location     Type
 11853 ;;		None
 11854 ;; Return value:  Size  Location     Type
 11855 ;;                  1    wreg      void 
 11856 ;; Registers used:
 11857 ;;		wreg, status,2
 11858 ;; Tracked objects:
 11859 ;;		On entry : 0/0
 11860 ;;		On exit  : 0/0
 11861 ;;		Unchanged: 0/0
 11862 ;; Data sizes:     COMRAM   BANK0   BANK1   BANK2   BANK3   BANK4   BANK5   BANK6   BANK7
 11863 ;;      Params:         0       0       0       0       0       0       0       0       0
 11864 ;;      Locals:         0       0       0       0       0       0       0       0       0
 11865 ;;      Temps:          0       0       0       0       0       0       0       0       0
 11866 ;;      Totals:         0       0       0       0       0       0       0       0       0
 11867 ;;Total ram usage:        0 bytes
 11868 ;; Hardware stack levels used: 1
 11869 ;; This function calls:
 11870 ;;		Nothing
 11871 ;; This function is called by:
 11872 ;;		i2_I2C2_DO_BUS_COLLISION
 11873 ;; This function uses a non-reentrant model
 11874 ;;
 11875                           
 11876                           	psect	text127
 11877  001CA6                     __ptext127:
 11878                           	callstack 0
 11879  001CA6                     i2_I2C2_MasterClearIrq:
 11880                           	callstack 13
 11881  001CA6                     
 11882                           ;../modbus/i2c2_master.c: 701:     I2C2PIR = 0x00;
 11883  001CA6  0E00               	movlw	0
 11884  001CA8  013D               	movlb	61	; () banked
 11885  001CAA  6F63               	movwf	99,b	;volatile
 11886  001CAC                     
 11887                           ; BSR set to: 61
 11888  001CAC  0012               	return		;funcret
 11889  001CAE                     __end_ofi2_I2C2_MasterClearIrq:
 11890                           	callstack 0
 11891                           
 11892 ;; *************** function i2_I2C2_MasterSendTxData@i2c2_master$F3095 *****************
 11893 ;; Defined at:
 11894 ;;		line 594 in file "../modbus/i2c2_master.c"
 11895 ;; Parameters:    Size  Location     Type
 11896 ;;  data            1    wreg     unsigned char 
 11897 ;; Auto vars:     Size  Location     Type
 11898 ;;  data            1    0[COMRAM] unsigned char 
 11899 ;; Return value:  Size  Location     Type
 11900 ;;                  1    wreg      void 
 11901 ;; Registers used:
 11902 ;;		wreg
 11903 ;; Tracked objects:
 11904 ;;		On entry : 0/0
 11905 ;;		On exit  : 0/0
 11906 ;;		Unchanged: 0/0
 11907 ;; Data sizes:     COMRAM   BANK0   BANK1   BANK2   BANK3   BANK4   BANK5   BANK6   BANK7
 11908 ;;      Params:         0       0       0       0       0       0       0       0       0
 11909 ;;      Locals:         1       0       0       0       0       0       0       0       0
 11910 ;;      Temps:          0       0       0       0       0       0       0       0       0
 11911 ;;      Totals:         1       0       0       0       0       0       0       0       0
 11912 ;;Total ram usage:        1 bytes
 11913 ;; Hardware stack levels used: 1
 11914 ;; This function calls:
 11915 ;;		Nothing
 11916 ;; This function is called by:
 11917 ;;		i2_I2C2_DO_SEND_ADR_READ
 11918 ;;		i2_I2C2_DO_SEND_ADR_WRITE
 11919 ;;		i2_I2C2_DO_TX
 11920 ;;		i2_I2C2_DO_SEND_STOP
 11921 ;; This function uses a non-reentrant model
 11922 ;;
 11923                           
 11924                           	psect	text128
 11925  001C4E                     __ptext128:
 11926                           	callstack 0
 11927  001C4E                     i2_I2C2_MasterSendTxData@i2c2_master$F3095:
 11928                           	callstack 13
 11929                           
 11930                           ; BSR set to: 61
 11931                           ;incstack = 0
 11932                           ;i2I2C2_MasterSendTxData@i2c2_master$F3095@data stored from wreg
 11933  001C4E  6E30               	movwf	i2I2C2_MasterSendTxData@i2c2_master$F3095@data^0,c
 11934  001C50                     
 11935                           ;../modbus/i2c2_master.c: 595:     I2C2TXB = data;
 11936  001C50  0060  F0C3  FD55   	movff	i2I2C2_MasterSendTxData@i2c2_master$F3095@data,15701	;volatile
 11937  001C56  0012               	return		;funcret
 11938  001C58                     __end_ofi2_I2C2_MasterSendTxData@i2c2_master$F3095:
 11939                           	callstack 0
 11940                           
 11941 ;; *************** function i2_I2C2_MasterSetCounter *****************
 11942 ;; Defined at:
 11943 ;;		line 602 in file "../modbus/i2c2_master.c"
 11944 ;; Parameters:    Size  Location     Type
 11945 ;;  counter         1    wreg     unsigned char 
 11946 ;; Auto vars:     Size  Location     Type
 11947 ;;  counter         1    0[COMRAM] unsigned char 
 11948 ;; Return value:  Size  Location     Type
 11949 ;;                  1    wreg      void 
 11950 ;; Registers used:
 11951 ;;		wreg
 11952 ;; Tracked objects:
 11953 ;;		On entry : 0/0
 11954 ;;		On exit  : 0/0
 11955 ;;		Unchanged: 0/0
 11956 ;; Data sizes:     COMRAM   BANK0   BANK1   BANK2   BANK3   BANK4   BANK5   BANK6   BANK7
 11957 ;;      Params:         0       0       0       0       0       0       0       0       0
 11958 ;;      Locals:         1       0       0       0       0       0       0       0       0
 11959 ;;      Temps:          0       0       0       0       0       0       0       0       0
 11960 ;;      Totals:         1       0       0       0       0       0       0       0       0
 11961 ;;Total ram usage:        1 bytes
 11962 ;; Hardware stack levels used: 1
 11963 ;; This function calls:
 11964 ;;		Nothing
 11965 ;; This function is called by:
 11966 ;;		i2_I2C2_DO_TX_EMPTY
 11967 ;;		i2_I2C2_DO_RX_EMPTY
 11968 ;;		i2_I2C2_DO_SEND_RESTART_READ
 11969 ;;		i2_I2C2_DO_SEND_STOP
 11970 ;; This function uses a non-reentrant model
 11971 ;;
 11972                           
 11973                           	psect	text129
 11974  001C58                     __ptext129:
 11975                           	callstack 0
 11976  001C58                     i2_I2C2_MasterSetCounter:
 11977                           	callstack 13
 11978                           
 11979                           ;incstack = 0
 11980                           ;i2I2C2_MasterSetCounter@counter stored from wreg
 11981  001C58  6E30               	movwf	i2I2C2_MasterSetCounter@counter^0,c
 11982  001C5A                     
 11983                           ;../modbus/i2c2_master.c: 603:     I2C2CNT = counter;
 11984  001C5A  0060  F0C3  FD56   	movff	i2I2C2_MasterSetCounter@counter,15702	;volatile
 11985  001C60  0012               	return		;funcret
 11986  001C62                     __end_ofi2_I2C2_MasterSetCounter:
 11987                           	callstack 0
 11988                           
 11989 ;; *************** function i2_I2C2_MasterEnableRestart@i2c2_master$F3116 *****************
 11990 ;; Defined at:
 11991 ;;		line 615 in file "../modbus/i2c2_master.c"
 11992 ;; Parameters:    Size  Location     Type
 11993 ;;		None
 11994 ;; Auto vars:     Size  Location     Type
 11995 ;;		None
 11996 ;; Return value:  Size  Location     Type
 11997 ;;                  1    wreg      void 
 11998 ;; Registers used:
 11999 ;;		None
 12000 ;; Tracked objects:
 12001 ;;		On entry : 0/0
 12002 ;;		On exit  : 0/0
 12003 ;;		Unchanged: 0/0
 12004 ;; Data sizes:     COMRAM   BANK0   BANK1   BANK2   BANK3   BANK4   BANK5   BANK6   BANK7
 12005 ;;      Params:         0       0       0       0       0       0       0       0       0
 12006 ;;      Locals:         0       0       0       0       0       0       0       0       0
 12007 ;;      Temps:          0       0       0       0       0       0       0       0       0
 12008 ;;      Totals:         0       0       0       0       0       0       0       0       0
 12009 ;;Total ram usage:        0 bytes
 12010 ;; Hardware stack levels used: 1
 12011 ;; This function calls:
 12012 ;;		Nothing
 12013 ;; This function is called by:
 12014 ;;		i2_I2C2_DO_TX_EMPTY
 12015 ;;		i2_I2C2_DO_RX_EMPTY
 12016 ;; This function uses a non-reentrant model
 12017 ;;
 12018                           
 12019                           	psect	text130
 12020  001D0E                     __ptext130:
 12021                           	callstack 0
 12022  001D0E                     i2_I2C2_MasterEnableRestart@i2c2_master$F3116:
 12023                           	callstack 13
 12024  001D0E                     
 12025                           ;../modbus/i2c2_master.c: 617:     I2C2CON0bits.RSEN = 1;
 12026  001D0E  013D               	movlb	61	; () banked
 12027  001D10  8D5D               	bsf	93,6,b	;volatile
 12028  001D12                     
 12029                           ; BSR set to: 61
 12030  001D12  0012               	return		;funcret
 12031  001D14                     __end_ofi2_I2C2_MasterEnableRestart@i2c2_master$F3116:
 12032                           	callstack 0
 12033                           
 12034 ;; *************** function i2_I2C2_MasterDisableRestart *****************
 12035 ;; Defined at:
 12036 ;;		line 620 in file "../modbus/i2c2_master.c"
 12037 ;; Parameters:    Size  Location     Type
 12038 ;;		None
 12039 ;; Auto vars:     Size  Location     Type
 12040 ;;		None
 12041 ;; Return value:  Size  Location     Type
 12042 ;;                  1    wreg      void 
 12043 ;; Registers used:
 12044 ;;		None
 12045 ;; Tracked objects:
 12046 ;;		On entry : 0/0
 12047 ;;		On exit  : 0/0
 12048 ;;		Unchanged: 0/0
 12049 ;; Data sizes:     COMRAM   BANK0   BANK1   BANK2   BANK3   BANK4   BANK5   BANK6   BANK7
 12050 ;;      Params:         0       0       0       0       0       0       0       0       0
 12051 ;;      Locals:         0       0       0       0       0       0       0       0       0
 12052 ;;      Temps:          0       0       0       0       0       0       0       0       0
 12053 ;;      Totals:         0       0       0       0       0       0       0       0       0
 12054 ;;Total ram usage:        0 bytes
 12055 ;; Hardware stack levels used: 1
 12056 ;; This function calls:
 12057 ;;		Nothing
 12058 ;; This function is called by:
 12059 ;;		i2_I2C2_DO_TX_EMPTY
 12060 ;;		i2_I2C2_DO_RX_EMPTY
 12061 ;; This function uses a non-reentrant model
 12062 ;;
 12063                           
 12064                           	psect	text131
 12065  001D14                     __ptext131:
 12066                           	callstack 0
 12067  001D14                     i2_I2C2_MasterDisableRestart:
 12068                           	callstack 13
 12069  001D14                     
 12070                           ;../modbus/i2c2_master.c: 622:     I2C2CON0bits.RSEN = 0;
 12071  001D14  013D               	movlb	61	; () banked
 12072  001D16  9D5D               	bcf	93,6,b	;volatile
 12073  001D18                     
 12074                           ; BSR set to: 61
 12075  001D18  0012               	return		;funcret
 12076  001D1A                     __end_ofi2_I2C2_MasterDisableRestart:
 12077                           	callstack 0
 12078                           
 12079 ;; *************** function i2_I2C2_MasterResetBus *****************
 12080 ;; Defined at:
 12081 ;;		line 606 in file "../modbus/i2c2_master.c"
 12082 ;; Parameters:    Size  Location     Type
 12083 ;;		None
 12084 ;; Auto vars:     Size  Location     Type
 12085 ;;		None
 12086 ;; Return value:  Size  Location     Type
 12087 ;;                  1    wreg      void 
 12088 ;; Registers used:
 12089 ;;		None
 12090 ;; Tracked objects:
 12091 ;;		On entry : 0/0
 12092 ;;		On exit  : 0/0
 12093 ;;		Unchanged: 0/0
 12094 ;; Data sizes:     COMRAM   BANK0   BANK1   BANK2   BANK3   BANK4   BANK5   BANK6   BANK7
 12095 ;;      Params:         0       0       0       0       0       0       0       0       0
 12096 ;;      Locals:         0       0       0       0       0       0       0       0       0
 12097 ;;      Temps:          0       0       0       0       0       0       0       0       0
 12098 ;;      Totals:         0       0       0       0       0       0       0       0       0
 12099 ;;Total ram usage:        0 bytes
 12100 ;; Hardware stack levels used: 1
 12101 ;; This function calls:
 12102 ;;		Nothing
 12103 ;; This function is called by:
 12104 ;;		i2_I2C2_DO_RESET
 12105 ;;		i2_I2C2_DO_BUS_ERROR
 12106 ;; This function uses a non-reentrant model
 12107 ;;
 12108                           
 12109                           	psect	text132
 12110  001C62                     __ptext132:
 12111                           	callstack 0
 12112  001C62                     i2_I2C2_MasterResetBus:
 12113                           	callstack 13
 12114  001C62                     
 12115                           ;../modbus/i2c2_master.c: 608:     I2C2CON0bits.EN = 0;
 12116  001C62  013D               	movlb	61	; () banked
 12117  001C64  9F5D               	bcf	93,7,b	;volatile
 12118                           
 12119                           ;../modbus/i2c2_master.c: 610:     I2C2STAT1bits.CLRBF = 1;
 12120  001C66  8562               	bsf	98,2,b	;volatile
 12121                           
 12122                           ;../modbus/i2c2_master.c: 612:     I2C2CON0bits.EN = 1;
 12123  001C68  8F5D               	bsf	93,7,b	;volatile
 12124  001C6A                     
 12125                           ; BSR set to: 61
 12126  001C6A  0012               	return		;funcret
 12127  001C6C                     __end_ofi2_I2C2_MasterResetBus:
 12128                           	callstack 0
 12129                           
 12130 ;; *************** function i2_I2C2_CallbackReturnReset *****************
 12131 ;; Defined at:
 12132 ;;		line 546 in file "../modbus/i2c2_master.c"
 12133 ;; Parameters:    Size  Location     Type
 12134 ;;  funPtr          2    0[COMRAM] PTR void 
 12135 ;;		 -> NULL(0), 
 12136 ;; Auto vars:     Size  Location     Type
 12137 ;;		None
 12138 ;; Return value:  Size  Location     Type
 12139 ;;                  1    wreg      enum E360
 12140 ;; Registers used:
 12141 ;;		wreg
 12142 ;; Tracked objects:
 12143 ;;		On entry : 0/0
 12144 ;;		On exit  : 0/0
 12145 ;;		Unchanged: 0/0
 12146 ;; Data sizes:     COMRAM   BANK0   BANK1   BANK2   BANK3   BANK4   BANK5   BANK6   BANK7
 12147 ;;      Params:         2       0       0       0       0       0       0       0       0
 12148 ;;      Locals:         0       0       0       0       0       0       0       0       0
 12149 ;;      Temps:          0       0       0       0       0       0       0       0       0
 12150 ;;      Totals:         2       0       0       0       0       0       0       0       0
 12151 ;;Total ram usage:        2 bytes
 12152 ;; Hardware stack levels used: 1
 12153 ;; This function calls:
 12154 ;;		Nothing
 12155 ;; This function is called by:
 12156 ;;		_I2C2_DO_RX_EMPTY
 12157 ;;		i2_I2C2_DO_RX_EMPTY
 12158 ;;		_I2C2_DO_TX_EMPTY
 12159 ;;		i2_I2C2_DO_TX_EMPTY
 12160 ;;		_I2C2_DO_TX
 12161 ;;		_I2C2_DO_ADDRESS_NACK
 12162 ;;		_I2C2_DO_BUS_COLLISION
 12163 ;;		i2_I2C2_DO_TX
 12164 ;;		i2_I2C2_DO_ADDRESS_NACK
 12165 ;;		i2_I2C2_DO_BUS_COLLISION
 12166 ;; This function uses a non-reentrant model
 12167 ;;
 12168                           
 12169                           	psect	text133
 12170  001D34                     __ptext133:
 12171                           	callstack 0
 12172  001D34                     i2_I2C2_CallbackReturnReset:
 12173                           	callstack 13
 12174  001D34                     
 12175                           ;../modbus/i2c2_master.c: 547:     return I2C2_RESET_LINK;
 12176  001D34  0E05               	movlw	5
 12177  001D36  0012               	return		;funcret
 12178  001D38                     __end_ofi2_I2C2_CallbackReturnReset:
 12179                           	callstack 0
 12180                           
 12181 ;; *************** function i2_I2C2_CallbackReturnStop *****************
 12182 ;; Defined at:
 12183 ;;		line 542 in file "../modbus/i2c2_master.c"
 12184 ;; Parameters:    Size  Location     Type
 12185 ;;  funPtr          2    0[COMRAM] PTR void 
 12186 ;;		 -> NULL(0), 
 12187 ;; Auto vars:     Size  Location     Type
 12188 ;;		None
 12189 ;; Return value:  Size  Location     Type
 12190 ;;                  1    wreg      enum E360
 12191 ;; Registers used:
 12192 ;;		wreg
 12193 ;; Tracked objects:
 12194 ;;		On entry : 0/0
 12195 ;;		On exit  : 0/0
 12196 ;;		Unchanged: 0/0
 12197 ;; Data sizes:     COMRAM   BANK0   BANK1   BANK2   BANK3   BANK4   BANK5   BANK6   BANK7
 12198 ;;      Params:         2       0       0       0       0       0       0       0       0
 12199 ;;      Locals:         0       0       0       0       0       0       0       0       0
 12200 ;;      Temps:          0       0       0       0       0       0       0       0       0
 12201 ;;      Totals:         2       0       0       0       0       0       0       0       0
 12202 ;;Total ram usage:        2 bytes
 12203 ;; Hardware stack levels used: 1
 12204 ;; This function calls:
 12205 ;;		Nothing
 12206 ;; This function is called by:
 12207 ;;		_I2C2_DO_RX_EMPTY
 12208 ;;		i2_I2C2_DO_RX_EMPTY
 12209 ;;		_I2C2_DO_TX_EMPTY
 12210 ;;		i2_I2C2_DO_TX_EMPTY
 12211 ;;		_I2C2_DO_TX
 12212 ;;		_I2C2_DO_ADDRESS_NACK
 12213 ;;		_I2C2_DO_BUS_COLLISION
 12214 ;;		i2_I2C2_DO_TX
 12215 ;;		i2_I2C2_DO_ADDRESS_NACK
 12216 ;;		i2_I2C2_DO_BUS_COLLISION
 12217 ;; This function uses a non-reentrant model
 12218 ;;
 12219                           
 12220                           	psect	text134
 12221  001D38                     __ptext134:
 12222                           	callstack 0
 12223  001D38                     i2_I2C2_CallbackReturnStop:
 12224                           	callstack 13
 12225  001D38                     
 12226                           ;../modbus/i2c2_master.c: 543:     return I2C2_STOP;
 12227  001D38  0E01               	movlw	1
 12228  001D3A  0012               	return		;funcret
 12229  001D3C                     __end_ofi2_I2C2_CallbackReturnStop:
 12230                           	callstack 0
 12231                           
 12232 ;; *************** function i2_I2C2_ClearInterruptFlags *****************
 12233 ;; Defined at:
 12234 ;;		line 339 in file "../modbus/i2c2_master.c"
 12235 ;; Parameters:    Size  Location     Type
 12236 ;;		None
 12237 ;; Auto vars:     Size  Location     Type
 12238 ;;		None
 12239 ;; Return value:  Size  Location     Type
 12240 ;;                  1    wreg      void 
 12241 ;; Registers used:
 12242 ;;		wreg, status,2, cstack
 12243 ;; Tracked objects:
 12244 ;;		On entry : 0/0
 12245 ;;		On exit  : 0/0
 12246 ;;		Unchanged: 0/0
 12247 ;; Data sizes:     COMRAM   BANK0   BANK1   BANK2   BANK3   BANK4   BANK5   BANK6   BANK7
 12248 ;;      Params:         0       0       0       0       0       0       0       0       0
 12249 ;;      Locals:         0       0       0       0       0       0       0       0       0
 12250 ;;      Temps:          0       0       0       0       0       0       0       0       0
 12251 ;;      Totals:         0       0       0       0       0       0       0       0       0
 12252 ;;Total ram usage:        0 bytes
 12253 ;; Hardware stack levels used: 1
 12254 ;; Hardware stack levels required when called: 1
 12255 ;; This function calls:
 12256 ;;		i2_I2C2_MasterClearCountFlag
 12257 ;;		i2_I2C2_MasterClearNackFlag
 12258 ;;		i2_I2C2_MasterClearStopFlag
 12259 ;;		i2_I2C2_MasterIsCountFlagSet
 12260 ;;		i2_I2C2_MasterIsNackFlagSet
 12261 ;;		i2_I2C2_MasterIsStopFlagSet
 12262 ;; This function is called by:
 12263 ;;		i2_I2C2_MasterFsm
 12264 ;; This function uses a non-reentrant model
 12265 ;;
 12266                           
 12267                           	psect	text135
 12268  00136E                     __ptext135:
 12269                           	callstack 0
 12270  00136E                     i2_I2C2_ClearInterruptFlags:
 12271                           	callstack 13
 12272  00136E                     
 12273                           ;../modbus/i2c2_master.c: 340:     if (I2C2_MasterIsCountFlagSet()) {
 12274  00136E  EC64  F00D         	call	i2_I2C2_MasterIsCountFlagSet	;wreg free
 12275  001372  0900               	iorlw	0
 12276  001374  B4D8               	btfsc	status,2,c
 12277  001376  EFBF  F009         	goto	i2u243_41
 12278  00137A  EFC1  F009         	goto	i2u243_40
 12279  00137E                     i2u243_41:
 12280  00137E  EFC5  F009         	goto	i2l5717
 12281  001382                     i2u243_40:
 12282  001382                     
 12283                           ;../modbus/i2c2_master.c: 341:         I2C2_MasterClearCountFlag();
 12284  001382  EC93  F00E         	call	i2_I2C2_MasterClearCountFlag	;wreg free
 12285                           
 12286                           ;../modbus/i2c2_master.c: 342:     } else if (I2C2_MasterIsStopFlagSet()) {
 12287  001386  EFDF  F009         	goto	i2l1687
 12288  00138A                     i2l5717:
 12289  00138A  EC4E  F00D         	call	i2_I2C2_MasterIsStopFlagSet	;wreg free
 12290  00138E  0900               	iorlw	0
 12291  001390  B4D8               	btfsc	status,2,c
 12292  001392  EFCD  F009         	goto	i2u244_41
 12293  001396  EFCF  F009         	goto	i2u244_40
 12294  00139A                     i2u244_41:
 12295  00139A  EFD3  F009         	goto	i2l5721
 12296  00139E                     i2u244_40:
 12297  00139E                     
 12298                           ;../modbus/i2c2_master.c: 343:         I2C2_MasterClearStopFlag();
 12299  00139E  EC8D  F00E         	call	i2_I2C2_MasterClearStopFlag	;wreg free
 12300                           
 12301                           ;../modbus/i2c2_master.c: 344:     } else if (I2C2_MasterIsNackFlagSet()) {
 12302  0013A2  EFDF  F009         	goto	i2l1687
 12303  0013A6                     i2l5721:
 12304  0013A6  EC59  F00D         	call	i2_I2C2_MasterIsNackFlagSet	;wreg free
 12305  0013AA  0900               	iorlw	0
 12306  0013AC  B4D8               	btfsc	status,2,c
 12307  0013AE  EFDB  F009         	goto	i2u245_41
 12308  0013B2  EFDD  F009         	goto	i2u245_40
 12309  0013B6                     i2u245_41:
 12310  0013B6  EFDF  F009         	goto	i2l1687
 12311  0013BA                     i2u245_40:
 12312  0013BA                     
 12313                           ;../modbus/i2c2_master.c: 345:         I2C2_MasterClearNackFlag();
 12314  0013BA  EC90  F00E         	call	i2_I2C2_MasterClearNackFlag	;wreg free
 12315  0013BE                     i2l1687:
 12316  0013BE  0012               	return		;funcret
 12317  0013C0                     __end_ofi2_I2C2_ClearInterruptFlags:
 12318                           	callstack 0
 12319                           
 12320 ;; *************** function i2_I2C2_MasterIsStopFlagSet *****************
 12321 ;; Defined at:
 12322 ;;		line 657 in file "../modbus/i2c2_master.c"
 12323 ;; Parameters:    Size  Location     Type
 12324 ;;		None
 12325 ;; Auto vars:     Size  Location     Type
 12326 ;;		None
 12327 ;; Return value:  Size  Location     Type
 12328 ;;                  1    wreg      _Bool 
 12329 ;; Registers used:
 12330 ;;		wreg
 12331 ;; Tracked objects:
 12332 ;;		On entry : 0/0
 12333 ;;		On exit  : 0/0
 12334 ;;		Unchanged: 0/0
 12335 ;; Data sizes:     COMRAM   BANK0   BANK1   BANK2   BANK3   BANK4   BANK5   BANK6   BANK7
 12336 ;;      Params:         0       0       0       0       0       0       0       0       0
 12337 ;;      Locals:         0       0       0       0       0       0       0       0       0
 12338 ;;      Temps:          0       0       0       0       0       0       0       0       0
 12339 ;;      Totals:         0       0       0       0       0       0       0       0       0
 12340 ;;Total ram usage:        0 bytes
 12341 ;; Hardware stack levels used: 1
 12342 ;; This function calls:
 12343 ;;		Nothing
 12344 ;; This function is called by:
 12345 ;;		i2_I2C2_ClearInterruptFlags
 12346 ;; This function uses a non-reentrant model
 12347 ;;
 12348                           
 12349                           	psect	text136
 12350  001A9C                     __ptext136:
 12351                           	callstack 0
 12352  001A9C                     i2_I2C2_MasterIsStopFlagSet:
 12353                           	callstack 13
 12354  001A9C                     
 12355                           ;../modbus/i2c2_master.c: 658:     return I2C2PIRbits.PCIF;
 12356  001A9C  013D               	movlb	61	; () banked
 12357  001A9E  B563               	btfsc	99,2,b	;volatile
 12358  001AA0  EF54  F00D         	goto	i2u213_41
 12359  001AA4  EF57  F00D         	goto	i2u213_40
 12360  001AA8                     i2u213_41:
 12361  001AA8  0E01               	movlw	1
 12362  001AAA  EF58  F00D         	goto	i2u213_46
 12363  001AAE                     i2u213_40:
 12364  001AAE  0E00               	movlw	0
 12365  001AB0                     i2u213_46:
 12366  001AB0                     
 12367                           ; BSR set to: 61
 12368  001AB0  0012               	return		;funcret
 12369  001AB2                     __end_ofi2_I2C2_MasterIsStopFlagSet:
 12370                           	callstack 0
 12371                           
 12372 ;; *************** function i2_I2C2_MasterIsNackFlagSet *****************
 12373 ;; Defined at:
 12374 ;;		line 665 in file "../modbus/i2c2_master.c"
 12375 ;; Parameters:    Size  Location     Type
 12376 ;;		None
 12377 ;; Auto vars:     Size  Location     Type
 12378 ;;		None
 12379 ;; Return value:  Size  Location     Type
 12380 ;;                  1    wreg      _Bool 
 12381 ;; Registers used:
 12382 ;;		wreg
 12383 ;; Tracked objects:
 12384 ;;		On entry : 0/0
 12385 ;;		On exit  : 0/0
 12386 ;;		Unchanged: 0/0
 12387 ;; Data sizes:     COMRAM   BANK0   BANK1   BANK2   BANK3   BANK4   BANK5   BANK6   BANK7
 12388 ;;      Params:         0       0       0       0       0       0       0       0       0
 12389 ;;      Locals:         0       0       0       0       0       0       0       0       0
 12390 ;;      Temps:          0       0       0       0       0       0       0       0       0
 12391 ;;      Totals:         0       0       0       0       0       0       0       0       0
 12392 ;;Total ram usage:        0 bytes
 12393 ;; Hardware stack levels used: 1
 12394 ;; This function calls:
 12395 ;;		Nothing
 12396 ;; This function is called by:
 12397 ;;		i2_I2C2_ClearInterruptFlags
 12398 ;; This function uses a non-reentrant model
 12399 ;;
 12400                           
 12401                           	psect	text137
 12402  001AB2                     __ptext137:
 12403                           	callstack 0
 12404  001AB2                     i2_I2C2_MasterIsNackFlagSet:
 12405                           	callstack 13
 12406  001AB2                     
 12407                           ;../modbus/i2c2_master.c: 666:     return I2C2ERRbits.NACKIF;
 12408  001AB2  013D               	movlb	61	; () banked
 12409  001AB4  B960               	btfsc	96,4,b	;volatile
 12410  001AB6  EF5F  F00D         	goto	i2u215_41
 12411  001ABA  EF62  F00D         	goto	i2u215_40
 12412  001ABE                     i2u215_41:
 12413  001ABE  0E01               	movlw	1
 12414  001AC0  EF63  F00D         	goto	i2u215_46
 12415  001AC4                     i2u215_40:
 12416  001AC4  0E00               	movlw	0
 12417  001AC6                     i2u215_46:
 12418  001AC6                     
 12419                           ; BSR set to: 61
 12420  001AC6  0012               	return		;funcret
 12421  001AC8                     __end_ofi2_I2C2_MasterIsNackFlagSet:
 12422                           	callstack 0
 12423                           
 12424 ;; *************** function i2_I2C2_MasterIsCountFlagSet *****************
 12425 ;; Defined at:
 12426 ;;		line 661 in file "../modbus/i2c2_master.c"
 12427 ;; Parameters:    Size  Location     Type
 12428 ;;		None
 12429 ;; Auto vars:     Size  Location     Type
 12430 ;;		None
 12431 ;; Return value:  Size  Location     Type
 12432 ;;                  1    wreg      _Bool 
 12433 ;; Registers used:
 12434 ;;		wreg
 12435 ;; Tracked objects:
 12436 ;;		On entry : 0/0
 12437 ;;		On exit  : 0/0
 12438 ;;		Unchanged: 0/0
 12439 ;; Data sizes:     COMRAM   BANK0   BANK1   BANK2   BANK3   BANK4   BANK5   BANK6   BANK7
 12440 ;;      Params:         0       0       0       0       0       0       0       0       0
 12441 ;;      Locals:         0       0       0       0       0       0       0       0       0
 12442 ;;      Temps:          0       0       0       0       0       0       0       0       0
 12443 ;;      Totals:         0       0       0       0       0       0       0       0       0
 12444 ;;Total ram usage:        0 bytes
 12445 ;; Hardware stack levels used: 1
 12446 ;; This function calls:
 12447 ;;		Nothing
 12448 ;; This function is called by:
 12449 ;;		i2_I2C2_ClearInterruptFlags
 12450 ;; This function uses a non-reentrant model
 12451 ;;
 12452                           
 12453                           	psect	text138
 12454  001AC8                     __ptext138:
 12455                           	callstack 0
 12456  001AC8                     i2_I2C2_MasterIsCountFlagSet:
 12457                           	callstack 13
 12458  001AC8                     
 12459                           ;../modbus/i2c2_master.c: 662:     return I2C2PIRbits.CNTIF;
 12460  001AC8  013D               	movlb	61	; () banked
 12461  001ACA  BF63               	btfsc	99,7,b	;volatile
 12462  001ACC  EF6A  F00D         	goto	i2u214_41
 12463  001AD0  EF6D  F00D         	goto	i2u214_40
 12464  001AD4                     i2u214_41:
 12465  001AD4  0E01               	movlw	1
 12466  001AD6  EF6E  F00D         	goto	i2u214_46
 12467  001ADA                     i2u214_40:
 12468  001ADA  0E00               	movlw	0
 12469  001ADC                     i2u214_46:
 12470  001ADC                     
 12471                           ; BSR set to: 61
 12472  001ADC  0012               	return		;funcret
 12473  001ADE                     __end_ofi2_I2C2_MasterIsCountFlagSet:
 12474                           	callstack 0
 12475                           
 12476 ;; *************** function i2_I2C2_MasterClearStopFlag *****************
 12477 ;; Defined at:
 12478 ;;		line 669 in file "../modbus/i2c2_master.c"
 12479 ;; Parameters:    Size  Location     Type
 12480 ;;		None
 12481 ;; Auto vars:     Size  Location     Type
 12482 ;;		None
 12483 ;; Return value:  Size  Location     Type
 12484 ;;                  1    wreg      void 
 12485 ;; Registers used:
 12486 ;;		None
 12487 ;; Tracked objects:
 12488 ;;		On entry : 0/0
 12489 ;;		On exit  : 0/0
 12490 ;;		Unchanged: 0/0
 12491 ;; Data sizes:     COMRAM   BANK0   BANK1   BANK2   BANK3   BANK4   BANK5   BANK6   BANK7
 12492 ;;      Params:         0       0       0       0       0       0       0       0       0
 12493 ;;      Locals:         0       0       0       0       0       0       0       0       0
 12494 ;;      Temps:          0       0       0       0       0       0       0       0       0
 12495 ;;      Totals:         0       0       0       0       0       0       0       0       0
 12496 ;;Total ram usage:        0 bytes
 12497 ;; Hardware stack levels used: 1
 12498 ;; This function calls:
 12499 ;;		Nothing
 12500 ;; This function is called by:
 12501 ;;		i2_I2C2_ClearInterruptFlags
 12502 ;; This function uses a non-reentrant model
 12503 ;;
 12504                           
 12505                           	psect	text139
 12506  001D1A                     __ptext139:
 12507                           	callstack 0
 12508  001D1A                     i2_I2C2_MasterClearStopFlag:
 12509                           	callstack 13
 12510  001D1A                     
 12511                           ;../modbus/i2c2_master.c: 670:     I2C2PIRbits.PCIF = 0;
 12512  001D1A  013D               	movlb	61	; () banked
 12513  001D1C  9563               	bcf	99,2,b	;volatile
 12514  001D1E                     
 12515                           ; BSR set to: 61
 12516  001D1E  0012               	return		;funcret
 12517  001D20                     __end_ofi2_I2C2_MasterClearStopFlag:
 12518                           	callstack 0
 12519                           
 12520 ;; *************** function i2_I2C2_MasterClearNackFlag *****************
 12521 ;; Defined at:
 12522 ;;		line 677 in file "../modbus/i2c2_master.c"
 12523 ;; Parameters:    Size  Location     Type
 12524 ;;		None
 12525 ;; Auto vars:     Size  Location     Type
 12526 ;;		None
 12527 ;; Return value:  Size  Location     Type
 12528 ;;                  1    wreg      void 
 12529 ;; Registers used:
 12530 ;;		None
 12531 ;; Tracked objects:
 12532 ;;		On entry : 0/0
 12533 ;;		On exit  : 0/0
 12534 ;;		Unchanged: 0/0
 12535 ;; Data sizes:     COMRAM   BANK0   BANK1   BANK2   BANK3   BANK4   BANK5   BANK6   BANK7
 12536 ;;      Params:         0       0       0       0       0       0       0       0       0
 12537 ;;      Locals:         0       0       0       0       0       0       0       0       0
 12538 ;;      Temps:          0       0       0       0       0       0       0       0       0
 12539 ;;      Totals:         0       0       0       0       0       0       0       0       0
 12540 ;;Total ram usage:        0 bytes
 12541 ;; Hardware stack levels used: 1
 12542 ;; This function calls:
 12543 ;;		Nothing
 12544 ;; This function is called by:
 12545 ;;		i2_I2C2_ClearInterruptFlags
 12546 ;; This function uses a non-reentrant model
 12547 ;;
 12548                           
 12549                           	psect	text140
 12550  001D20                     __ptext140:
 12551                           	callstack 0
 12552  001D20                     i2_I2C2_MasterClearNackFlag:
 12553                           	callstack 13
 12554  001D20                     
 12555                           ;../modbus/i2c2_master.c: 678:     I2C2ERRbits.NACKIF = 0;
 12556  001D20  013D               	movlb	61	; () banked
 12557  001D22  9960               	bcf	96,4,b	;volatile
 12558  001D24                     
 12559                           ; BSR set to: 61
 12560  001D24  0012               	return		;funcret
 12561  001D26                     __end_ofi2_I2C2_MasterClearNackFlag:
 12562                           	callstack 0
 12563                           
 12564 ;; *************** function i2_I2C2_MasterClearCountFlag *****************
 12565 ;; Defined at:
 12566 ;;		line 673 in file "../modbus/i2c2_master.c"
 12567 ;; Parameters:    Size  Location     Type
 12568 ;;		None
 12569 ;; Auto vars:     Size  Location     Type
 12570 ;;		None
 12571 ;; Return value:  Size  Location     Type
 12572 ;;                  1    wreg      void 
 12573 ;; Registers used:
 12574 ;;		None
 12575 ;; Tracked objects:
 12576 ;;		On entry : 0/0
 12577 ;;		On exit  : 0/0
 12578 ;;		Unchanged: 0/0
 12579 ;; Data sizes:     COMRAM   BANK0   BANK1   BANK2   BANK3   BANK4   BANK5   BANK6   BANK7
 12580 ;;      Params:         0       0       0       0       0       0       0       0       0
 12581 ;;      Locals:         0       0       0       0       0       0       0       0       0
 12582 ;;      Temps:          0       0       0       0       0       0       0       0       0
 12583 ;;      Totals:         0       0       0       0       0       0       0       0       0
 12584 ;;Total ram usage:        0 bytes
 12585 ;; Hardware stack levels used: 1
 12586 ;; This function calls:
 12587 ;;		Nothing
 12588 ;; This function is called by:
 12589 ;;		i2_I2C2_ClearInterruptFlags
 12590 ;; This function uses a non-reentrant model
 12591 ;;
 12592                           
 12593                           	psect	text141
 12594  001D26                     __ptext141:
 12595                           	callstack 0
 12596  001D26                     i2_I2C2_MasterClearCountFlag:
 12597                           	callstack 13
 12598  001D26                     
 12599                           ;../modbus/i2c2_master.c: 674:     I2C2PIRbits.CNTIF = 0;
 12600  001D26  013D               	movlb	61	; () banked
 12601  001D28  9F63               	bcf	99,7,b	;volatile
 12602  001D2A                     
 12603                           ; BSR set to: 61
 12604  001D2A  0012               	return		;funcret
 12605  001D2C                     __end_ofi2_I2C2_MasterClearCountFlag:
 12606                           	callstack 0
 12607                           
 12608 ;; *************** function _UART1_Receive_ISR *****************
 12609 ;; Defined at:
 12610 ;;		line 234 in file "mcc_generated_files/uart1.c"
 12611 ;; Parameters:    Size  Location     Type
 12612 ;;		None
 12613 ;; Auto vars:     Size  Location     Type
 12614 ;;		None
 12615 ;; Return value:  Size  Location     Type
 12616 ;;                  1    wreg      void 
 12617 ;; Registers used:
 12618 ;;		wreg, fsr2l, fsr2h, status,2, status,0, tblptrl, tblptrh, tblptru, cstack
 12619 ;; Tracked objects:
 12620 ;;		On entry : 0/0
 12621 ;;		On exit  : 0/0
 12622 ;;		Unchanged: 0/0
 12623 ;; Data sizes:     COMRAM   BANK0   BANK1   BANK2   BANK3   BANK4   BANK5   BANK6   BANK7
 12624 ;;      Params:         0       0       0       0       0       0       0       0       0
 12625 ;;      Locals:         0       0       0       0       0       0       0       0       0
 12626 ;;      Temps:          0       0       0       0       0       0       0       0       0
 12627 ;;      Totals:         0       0       0       0       0       0       0       0       0
 12628 ;;Total ram usage:        0 bytes
 12629 ;; Hardware stack levels used: 1
 12630 ;; Hardware stack levels required when called: 3
 12631 ;; This function calls:
 12632 ;;		_UART1_RxDataHandler
 12633 ;; This function is called by:
 12634 ;;		_UART1_Initialize
 12635 ;;		_INTERRUPT_InterruptManagerHigh
 12636 ;; This function uses a non-reentrant model
 12637 ;;
 12638                           
 12639                           	psect	text142
 12640  0017A0                     __ptext142:
 12641                           	callstack 0
 12642  0017A0                     _UART1_Receive_ISR:
 12643                           	callstack 13
 12644  0017A0                     
 12645                           ;mcc_generated_files/uart1.c: 239:      if(U1ERRIRbits.FERIF){
 12646  0017A0  013D               	movlb	61	; () banked
 12647  0017A2  A7F9               	btfss	249,3,b	;volatile
 12648  0017A4  EFD6  F00B         	goto	i2u271_41
 12649  0017A8  EFD8  F00B         	goto	i2u271_40
 12650  0017AC                     i2u271_41:
 12651  0017AC  EFD9  F00B         	goto	i2l430
 12652  0017B0                     i2u271_40:
 12653  0017B0                     
 12654                           ; BSR set to: 61
 12655                           ;mcc_generated_files/uart1.c: 242:          U1ERRIRbits.FERIF =0;
 12656  0017B0  97F9               	bcf	249,3,b	;volatile
 12657  0017B2                     i2l430:
 12658                           
 12659                           ; BSR set to: 61
 12660                           ;mcc_generated_files/uart1.c: 245:      if(U1ERRIRbits.RXFOIF){
 12661  0017B2  A3F9               	btfss	249,1,b	;volatile
 12662  0017B4  EFDE  F00B         	goto	i2u272_41
 12663  0017B8  EFE0  F00B         	goto	i2u272_40
 12664  0017BC                     i2u272_41:
 12665  0017BC  EFE1  F00B         	goto	i2l6133
 12666  0017C0                     i2u272_40:
 12667  0017C0                     
 12668                           ; BSR set to: 61
 12669                           ;mcc_generated_files/uart1.c: 248:          U1ERRIRbits.RXFOIF =0;
 12670  0017C0  93F9               	bcf	249,1,b	;volatile
 12671  0017C2                     i2l6133:
 12672                           
 12673                           ; BSR set to: 61
 12674                           ;mcc_generated_files/uart1.c: 254:         UART1_RxDataHandler();
 12675  0017C2  EC36  F00E         	call	_UART1_RxDataHandler	;wreg free
 12676  0017C6  0012               	return		;funcret
 12677  0017C8                     __end_of_UART1_Receive_ISR:
 12678                           	callstack 0
 12679                           
 12680 ;; *************** function _UART1_RxDataHandler *****************
 12681 ;; Defined at:
 12682 ;;		line 260 in file "mcc_generated_files/uart1.c"
 12683 ;; Parameters:    Size  Location     Type
 12684 ;;		None
 12685 ;; Auto vars:     Size  Location     Type
 12686 ;;		None
 12687 ;; Return value:  Size  Location     Type
 12688 ;;                  1    wreg      void 
 12689 ;; Registers used:
 12690 ;;		wreg, fsr2l, fsr2h, status,2, status,0, tblptrl, tblptrh, tblptru, cstack
 12691 ;; Tracked objects:
 12692 ;;		On entry : 0/0
 12693 ;;		On exit  : 0/0
 12694 ;;		Unchanged: 0/0
 12695 ;; Data sizes:     COMRAM   BANK0   BANK1   BANK2   BANK3   BANK4   BANK5   BANK6   BANK7
 12696 ;;      Params:         0       0       0       0       0       0       0       0       0
 12697 ;;      Locals:         0       0       0       0       0       0       0       0       0
 12698 ;;      Temps:          0       0       0       0       0       0       0       0       0
 12699 ;;      Totals:         0       0       0       0       0       0       0       0       0
 12700 ;;Total ram usage:        0 bytes
 12701 ;; Hardware stack levels used: 1
 12702 ;; Hardware stack levels required when called: 2
 12703 ;; This function calls:
 12704 ;;		_modbusReceivedDataRS485
 12705 ;; This function is called by:
 12706 ;;		_UART1_Receive_ISR
 12707 ;;		_UART1_DefaultErrorHandler
 12708 ;; This function uses a non-reentrant model
 12709 ;;
 12710                           
 12711                           	psect	text143
 12712  001C6C                     __ptext143:
 12713                           	callstack 0
 12714  001C6C                     _UART1_RxDataHandler:
 12715                           	callstack 13
 12716  001C6C                     
 12717                           ;mcc_generated_files/uart1.c: 274:     modbusReceivedDataRS485();
 12718  001C6C  ECB7  F001         	call	_modbusReceivedDataRS485	;wreg free
 12719  001C70                     
 12720                           ;mcc_generated_files/uart1.c: 275:     PIR3bits.U1RXIF = 0;
 12721  001C70  0139               	movlb	57	; () banked
 12722  001C72  97A3               	bcf	163,3,b	;volatile
 12723  001C74                     
 12724                           ; BSR set to: 57
 12725  001C74  0012               	return		;funcret
 12726  001C76                     __end_of_UART1_RxDataHandler:
 12727                           	callstack 0
 12728                           
 12729 ;; *************** function _modbusReceivedDataRS485 *****************
 12730 ;; Defined at:
 12731 ;;		line 247 in file "../modbus/modbus_phy_layer_rtu_slave.c"
 12732 ;; Parameters:    Size  Location     Type
 12733 ;;		None
 12734 ;; Auto vars:     Size  Location     Type
 12735 ;;  c               1    4[COMRAM] unsigned char 
 12736 ;; Return value:  Size  Location     Type
 12737 ;;                  1    wreg      void 
 12738 ;; Registers used:
 12739 ;;		wreg, fsr2l, fsr2h, status,2, status,0, tblptrl, tblptrh, tblptru, cstack
 12740 ;; Tracked objects:
 12741 ;;		On entry : 0/0
 12742 ;;		On exit  : 0/0
 12743 ;;		Unchanged: 0/0
 12744 ;; Data sizes:     COMRAM   BANK0   BANK1   BANK2   BANK3   BANK4   BANK5   BANK6   BANK7
 12745 ;;      Params:         0       0       0       0       0       0       0       0       0
 12746 ;;      Locals:         1       0       0       0       0       0       0       0       0
 12747 ;;      Temps:          2       0       0       0       0       0       0       0       0
 12748 ;;      Totals:         3       0       0       0       0       0       0       0       0
 12749 ;;Total ram usage:        3 bytes
 12750 ;; Hardware stack levels used: 1
 12751 ;; Hardware stack levels required when called: 1
 12752 ;; This function calls:
 12753 ;;		i2_modbus_calc_crc
 12754 ;;		i2_modbus_enable_timeout
 12755 ;; This function is called by:
 12756 ;;		_UART1_RxDataHandler
 12757 ;; This function uses a non-reentrant model
 12758 ;;
 12759                           
 12760                           	psect	text144
 12761  00036E                     __ptext144:
 12762                           	callstack 0
 12763  00036E                     _modbusReceivedDataRS485:
 12764                           	callstack 13
 12765  00036E                     
 12766                           ;../modbus/modbus_phy_layer_rtu_slave.c: 248:     char c;;../modbus/modbus_phy_layer_rtu
      +                          _slave.c: 249:     flagReceiveRS485LoRa = 1;
 12767  00036E  0E01               	movlw	1
 12768  000370  6E1A               	movwf	_flagReceiveRS485LoRa^0,c
 12769  000372                     
 12770                           ;../modbus/modbus_phy_layer_rtu_slave.c: 250:     c = U1RXB;
 12771  000372  006F F7A0  F034    	movff	15848,modbusReceivedDataRS485@c	;volatile
 12772  000378                     
 12773                           ;../modbus/modbus_phy_layer_rtu_slave.c: 251:     count++;
 12774  000378  2A21               	incf	_count^0,f,c
 12775  00037A                     
 12776                           ;../modbus/modbus_phy_layer_rtu_slave.c: 252:     number++;
 12777  00037A  2A09               	incf	_number^0,f,c
 12778                           
 12779                           ;../modbus/modbus_phy_layer_rtu_slave.c: 253:     if (!modbus_serial_new) {
 12780  00037C  0100               	movlb	0	; () banked
 12781  00037E  51FB               	movf	_modbus_serial_new& (0+255),w,b
 12782  000380  A4D8               	btfss	status,2,c
 12783  000382  EFC5  F001         	goto	i2u216_41
 12784  000386  EFC7  F001         	goto	i2u216_40
 12785  00038A                     i2u216_41:
 12786  00038A  EF2A  F002         	goto	i2l1090
 12787  00038E                     i2u216_40:
 12788  00038E                     
 12789                           ; BSR set to: 0
 12790                           ;../modbus/modbus_phy_layer_rtu_slave.c: 254:         if (modbus_serial_state == MODBUS_
      +                          GETADDY) {
 12791  00038E  51FA               	movf	_modbus_serial_state& (0+255),w,b
 12792  000390  A4D8               	btfss	status,2,c
 12793  000392  EFCD  F001         	goto	i2u217_41
 12794  000396  EFCF  F001         	goto	i2u217_40
 12795  00039A                     i2u217_41:
 12796  00039A  EFE1  F001         	goto	i2l5423
 12797  00039E                     i2u217_40:
 12798  00039E                     
 12799                           ; BSR set to: 0
 12800                           ;../modbus/modbus_phy_layer_rtu_slave.c: 255:             modbus_serial_crc.d = 0xFFFF;
 12801  00039E  6801               	setf	_modbus_serial_crc^0,c
 12802  0003A0  6802               	setf	(_modbus_serial_crc+1)^0,c
 12803  0003A2                     
 12804                           ; BSR set to: 0
 12805                           ;../modbus/modbus_phy_layer_rtu_slave.c: 256:             modbus_rx.address = c;
 12806  0003A2  EE21  F1FE         	lfsr	2,_modbus_rx
 12807  0003A6  0060  F0D3  FFDF   	movff	modbusReceivedDataRS485@c,indf2
 12808  0003AC                     
 12809                           ; BSR set to: 0
 12810                           ;../modbus/modbus_phy_layer_rtu_slave.c: 257:             modbus_serial_state++;
 12811  0003AC  2BFA               	incf	_modbus_serial_state& (0+255),f,b
 12812  0003AE                     
 12813                           ; BSR set to: 0
 12814                           ;../modbus/modbus_phy_layer_rtu_slave.c: 258:             modbus_rx.len = 0;
 12815  0003AE  0E00               	movlw	0
 12816  0003B0  006F FFA0  F5FF    	movff	wreg,_modbus_rx+1
 12817  0003B6                     
 12818                           ; BSR set to: 0
 12819                           ;../modbus/modbus_phy_layer_rtu_slave.c: 259:             modbus_rx.error = 0;
 12820  0003B6  0E00               	movlw	0
 12821  0003B8  006F FFA0  F601    	movff	wreg,_modbus_rx+3
 12822                           
 12823                           ;../modbus/modbus_phy_layer_rtu_slave.c: 260:         }
 12824  0003BE  EF1E  F002         	goto	i2l5439
 12825  0003C2                     i2l5423:
 12826                           
 12827                           ; BSR set to: 0
 12828  0003C2  05FA               	decf	_modbus_serial_state& (0+255),w,b
 12829  0003C4  A4D8               	btfss	status,2,c
 12830  0003C6  EFE7  F001         	goto	i2u218_41
 12831  0003CA  EFE9  F001         	goto	i2u218_40
 12832  0003CE                     i2u218_41:
 12833  0003CE  EFF1  F001         	goto	i2l5429
 12834  0003D2                     i2u218_40:
 12835  0003D2                     
 12836                           ; BSR set to: 0
 12837                           ;../modbus/modbus_phy_layer_rtu_slave.c: 262:             modbus_rx.func = c;
 12838  0003D2  EE21  F200         	lfsr	2,_modbus_rx+2
 12839  0003D6  0060  F0D3  FFDF   	movff	modbusReceivedDataRS485@c,indf2
 12840  0003DC                     
 12841                           ; BSR set to: 0
 12842                           ;../modbus/modbus_phy_layer_rtu_slave.c: 263:             modbus_serial_state++;
 12843  0003DC  2BFA               	incf	_modbus_serial_state& (0+255),f,b
 12844                           
 12845                           ;../modbus/modbus_phy_layer_rtu_slave.c: 264:         }
 12846  0003DE  EF1E  F002         	goto	i2l5439
 12847  0003E2                     i2l5429:
 12848                           
 12849                           ; BSR set to: 0
 12850  0003E2  0E02               	movlw	2
 12851  0003E4  19FA               	xorwf	_modbus_serial_state& (0+255),w,b
 12852  0003E6  A4D8               	btfss	status,2,c
 12853  0003E8  EFF8  F001         	goto	i2u219_41
 12854  0003EC  EFFA  F001         	goto	i2u219_40
 12855  0003F0                     i2u219_41:
 12856  0003F0  EF1E  F002         	goto	i2l5439
 12857  0003F4                     i2u219_40:
 12858  0003F4                     
 12859                           ; BSR set to: 0
 12860                           ;../modbus/modbus_phy_layer_rtu_slave.c: 266:             if (modbus_rx.len >= 255) {
 12861  0003F4  0061  F7FF  FFE8   	movff	_modbus_rx+1,wreg
 12862  0003FA  0AFF               	xorlw	255
 12863  0003FC  A4D8               	btfss	status,2,c
 12864  0003FE  EF03  F002         	goto	i2u220_41
 12865  000402  EF05  F002         	goto	i2u220_40
 12866  000406                     i2u220_41:
 12867  000406  EF09  F002         	goto	i2l5435
 12868  00040A                     i2u220_40:
 12869  00040A                     
 12870                           ; BSR set to: 0
 12871                           ;../modbus/modbus_phy_layer_rtu_slave.c: 267:                 modbus_rx.len = 255 - 1;
 12872  00040A  0EFE               	movlw	254
 12873  00040C  006F FFA0  F5FF    	movff	wreg,_modbus_rx+1
 12874  000412                     i2l5435:
 12875                           
 12876                           ; BSR set to: 0
 12877                           ;../modbus/modbus_phy_layer_rtu_slave.c: 269:             modbus_rx.data[modbus_rx.len] 
      +                          = c;
 12878  000412  EE21  F1FF         	lfsr	2,_modbus_rx+1
 12879  000416  50DF               	movf	indf2,w,c
 12880  000418  6E32               	movwf	??_modbusReceivedDataRS485^0,c
 12881  00041A  6A33               	clrf	(??_modbusReceivedDataRS485+1)^0,c
 12882  00041C  0E02               	movlw	low (_modbus_rx+4)
 12883  00041E  2432               	addwf	??_modbusReceivedDataRS485^0,w,c
 12884  000420  6ED9               	movwf	fsr2l,c
 12885  000422  0E06               	movlw	high (_modbus_rx+4)
 12886  000424  2033               	addwfc	(??_modbusReceivedDataRS485+1)^0,w,c
 12887  000426  6EDA               	movwf	fsr2h,c
 12888  000428  0060  F0D3  FFDF   	movff	modbusReceivedDataRS485@c,indf2
 12889  00042E                     
 12890                           ; BSR set to: 0
 12891                           ;../modbus/modbus_phy_layer_rtu_slave.c: 270:             modbus_rx.len++;
 12892  00042E  0061  F7FF  FFE8   	movff	_modbus_rx+1,wreg
 12893  000434  0F01               	addlw	1
 12894  000436  006F FFA0  F5FF    	movff	wreg,_modbus_rx+1
 12895  00043C                     i2l5439:
 12896                           
 12897                           ; BSR set to: 0
 12898                           ;../modbus/modbus_phy_layer_rtu_slave.c: 272:         modbus_enable_timeout(TRUE);
 12899  00043C  0E01               	movlw	1
 12900  00043E  EC8E  F00C         	call	i2_modbus_enable_timeout
 12901  000442                     
 12902                           ;../modbus/modbus_phy_layer_rtu_slave.c: 273:         timer_modbus = 0;
 12903  000442  0E00               	movlw	0
 12904  000444  6E04               	movwf	(_timer_modbus+1)^0,c	;volatile
 12905  000446  0E00               	movlw	0
 12906  000448  6E03               	movwf	_timer_modbus^0,c	;volatile
 12907  00044A                     
 12908                           ;../modbus/modbus_phy_layer_rtu_slave.c: 274:         modbus_calc_crc(c);
 12909  00044A  5034               	movf	modbusReceivedDataRS485@c^0,w,c
 12910  00044C  EC63  F00B         	call	i2_modbus_calc_crc
 12911  000450                     
 12912                           ;../modbus/modbus_phy_layer_rtu_slave.c: 275:         flag_has_data = 1;
 12913  000450  0E01               	movlw	1
 12914  000452  6E07               	movwf	_flag_has_data^0,c
 12915  000454                     i2l1090:
 12916  000454  0012               	return		;funcret
 12917  000456                     __end_of_modbusReceivedDataRS485:
 12918                           	callstack 0
 12919                           
 12920 ;; *************** function i2_modbus_enable_timeout *****************
 12921 ;; Defined at:
 12922 ;;		line 152 in file "../modbus/modbus_phy_layer_rtu_slave.c"
 12923 ;; Parameters:    Size  Location     Type
 12924 ;;  enable          1    wreg     enum E16047
 12925 ;; Auto vars:     Size  Location     Type
 12926 ;;  enable          1    0[COMRAM] enum E16047
 12927 ;; Return value:  Size  Location     Type
 12928 ;;                  1    wreg      void 
 12929 ;; Registers used:
 12930 ;;		wreg, status,2
 12931 ;; Tracked objects:
 12932 ;;		On entry : 0/0
 12933 ;;		On exit  : 0/0
 12934 ;;		Unchanged: 0/0
 12935 ;; Data sizes:     COMRAM   BANK0   BANK1   BANK2   BANK3   BANK4   BANK5   BANK6   BANK7
 12936 ;;      Params:         0       0       0       0       0       0       0       0       0
 12937 ;;      Locals:         1       0       0       0       0       0       0       0       0
 12938 ;;      Temps:          0       0       0       0       0       0       0       0       0
 12939 ;;      Totals:         1       0       0       0       0       0       0       0       0
 12940 ;;Total ram usage:        1 bytes
 12941 ;; Hardware stack levels used: 1
 12942 ;; This function calls:
 12943 ;;		Nothing
 12944 ;; This function is called by:
 12945 ;;		_modbusReceivedDataRS485
 12946 ;; This function uses a non-reentrant model
 12947 ;;
 12948                           
 12949                           	psect	text145
 12950  00191C                     __ptext145:
 12951                           	callstack 0
 12952  00191C                     i2_modbus_enable_timeout:
 12953                           	callstack 13
 12954                           
 12955                           ;incstack = 0
 12956                           ;i2modbus_enable_timeout@enable stored from wreg
 12957  00191C  6E30               	movwf	i2modbus_enable_timeout@enable^0,c
 12958  00191E                     
 12959                           ;../modbus/modbus_phy_layer_rtu_slave.c: 153:     modbus_timeout_enabled = enable;
 12960  00191E  5030               	movf	i2modbus_enable_timeout@enable^0,w,c
 12961  001920  A4D8               	btfss	status,2,c
 12962  001922  EF95  F00C         	goto	i2u207_41
 12963  001926  EF98  F00C         	goto	i2u207_40
 12964  00192A                     i2u207_41:
 12965  00192A  0E01               	movlw	1
 12966  00192C  EF99  F00C         	goto	i2u208_40
 12967  001930                     i2u207_40:
 12968  001930  0E00               	movlw	0
 12969  001932                     i2u208_40:
 12970  001932  6E1C               	movwf	_modbus_timeout_enabled^0,c
 12971  001934  0012               	return		;funcret
 12972  001936                     __end_ofi2_modbus_enable_timeout:
 12973                           	callstack 0
 12974                           
 12975 ;; *************** function i2_modbus_calc_crc *****************
 12976 ;; Defined at:
 12977 ;;		line 188 in file "../modbus/modbus_phy_layer_rtu_slave.c"
 12978 ;; Parameters:    Size  Location     Type
 12979 ;;  data            1    wreg     unsigned char 
 12980 ;; Auto vars:     Size  Location     Type
 12981 ;;  data            1    0[COMRAM] unsigned char 
 12982 ;;  uIndex          1    1[COMRAM] unsigned char 
 12983 ;; Return value:  Size  Location     Type
 12984 ;;                  1    wreg      void 
 12985 ;; Registers used:
 12986 ;;		wreg, status,2, status,0, tblptrl, tblptrh, tblptru
 12987 ;; Tracked objects:
 12988 ;;		On entry : 0/0
 12989 ;;		On exit  : 0/0
 12990 ;;		Unchanged: 0/0
 12991 ;; Data sizes:     COMRAM   BANK0   BANK1   BANK2   BANK3   BANK4   BANK5   BANK6   BANK7
 12992 ;;      Params:         0       0       0       0       0       0       0       0       0
 12993 ;;      Locals:         2       0       0       0       0       0       0       0       0
 12994 ;;      Temps:          0       0       0       0       0       0       0       0       0
 12995 ;;      Totals:         2       0       0       0       0       0       0       0       0
 12996 ;;Total ram usage:        2 bytes
 12997 ;; Hardware stack levels used: 1
 12998 ;; This function calls:
 12999 ;;		Nothing
 13000 ;; This function is called by:
 13001 ;;		_modbusReceivedDataRS485
 13002 ;; This function uses a non-reentrant model
 13003 ;;
 13004                           
 13005                           	psect	text146
 13006  0016C6                     __ptext146:
 13007                           	callstack 0
 13008  0016C6                     i2_modbus_calc_crc:
 13009                           	callstack 13
 13010                           
 13011                           ;incstack = 0
 13012                           ;i2modbus_calc_crc@data stored from wreg
 13013  0016C6  6E30               	movwf	i2modbus_calc_crc@data^0,c
 13014  0016C8                     
 13015                           ;../modbus/modbus_phy_layer_rtu_slave.c: 189:     unsigned char uIndex;;../modbus/modbus
      +                          _phy_layer_rtu_slave.c: 191:     uIndex = (uint8_t) (modbus_serial_crc.b[1]) ^ data;
 13016  0016C8  5002               	movf	(_modbus_serial_crc+1)^0,w,c
 13017  0016CA  1830               	xorwf	i2modbus_calc_crc@data^0,w,c
 13018  0016CC  6E31               	movwf	i2modbus_calc_crc@uIndex^0,c
 13019  0016CE                     
 13020                           ;../modbus/modbus_phy_layer_rtu_slave.c: 192:     modbus_serial_crc.b[1] = (uint8_t) ((m
      +                          odbus_serial_crc.b[0]) ^ modbus_auchCRCHi[uIndex]);
 13021  0016CE  0EBF               	movlw	low _modbus_auchCRCHi
 13022  0016D0  2431               	addwf	i2modbus_calc_crc@uIndex^0,w,c
 13023  0016D2  6EF6               	movwf	tblptrl,c
 13024  0016D4  6AF7               	clrf	tblptrh,c
 13025  0016D6  0E7E               	movlw	high _modbus_auchCRCHi
 13026  0016D8  22F7               	addwfc	tblptrh,f,c
 13027  0016DA                     	if	0	;There are less than 3 active tblptr bytes
 13028  0016DA                     	endif
 13029  0016DA  0008               	tblrd		*
 13030  0016DC  50F5               	movf	tablat,w,c
 13031  0016DE  1801               	xorwf	_modbus_serial_crc^0,w,c
 13032  0016E0  6E02               	movwf	(_modbus_serial_crc+1)^0,c
 13033  0016E2                     
 13034                           ;../modbus/modbus_phy_layer_rtu_slave.c: 193:     modbus_serial_crc.b[0] = modbus_auchCR
      +                          CLo[uIndex];
 13035  0016E2  0EBF               	movlw	low _modbus_auchCRCLo
 13036  0016E4  2431               	addwf	i2modbus_calc_crc@uIndex^0,w,c
 13037  0016E6  6EF6               	movwf	tblptrl,c
 13038  0016E8  6AF7               	clrf	tblptrh,c
 13039  0016EA  0E7D               	movlw	high _modbus_auchCRCLo
 13040  0016EC  22F7               	addwfc	tblptrh,f,c
 13041  0016EE                     	if	0	;There are less than 3 active tblptr bytes
 13042  0016EE                     	endif
 13043  0016EE  0008               	tblrd		*
 13044  0016F0  006F FFD4  F001    	movff	tablat,_modbus_serial_crc
 13045  0016F6  0012               	return		;funcret
 13046  0016F8                     __end_ofi2_modbus_calc_crc:
 13047                           	callstack 0
 13048                           
 13049                           ;
 13050                           ; Interrupt Vector Table @ 0x8
 13051                           ;
 13052                           
 13053                           	psect	ivt0x8
 13054  000008                     __pivt0x8:
 13055                           	callstack 0
 13056  000008                     ivt0x8_base:
 13057                           	callstack 0
 13058                           
 13059                           ; high-priority vector
 13060  000008  EF7E  F003         	goto	_INTERRUPT_InterruptManagerHigh
 13061  000018                     	org	16
 13062                           
 13063                           ; low-priority vector
 13064  000018  EF3B  F001         	goto	_INTERRUPT_InterruptManagerLow
 13065                           
 13066                           	psect	text147
 13067  000000                     __ptext147:
 13068                           	callstack 0
 13069  000000                     
 13070                           	psect	rparam
 13071  0000                     
 13072                           	psect	idloc
 13073                           
 13074                           ;Config register IDLOC0 @ 0x200000
 13075                           ;	unspecified, using default values
 13076  200000                     	org	2097152
 13077  200000  0FFF               	dw	4095
 13078                           
 13079                           ;Config register IDLOC1 @ 0x200002
 13080                           ;	unspecified, using default values
 13081  200002                     	org	2097154
 13082  200002  0FFF               	dw	4095
 13083                           
 13084                           ;Config register IDLOC2 @ 0x200004
 13085                           ;	unspecified, using default values
 13086  200004                     	org	2097156
 13087  200004  0FFF               	dw	4095
 13088                           
 13089                           ;Config register IDLOC3 @ 0x200006
 13090                           ;	unspecified, using default values
 13091  200006                     	org	2097158
 13092  200006  0FFF               	dw	4095
 13093                           
 13094                           ;Config register IDLOC4 @ 0x200008
 13095                           ;	unspecified, using default values
 13096  200008                     	org	2097160
 13097  200008  0FFF               	dw	4095
 13098                           
 13099                           ;Config register IDLOC5 @ 0x20000A
 13100                           ;	unspecified, using default values
 13101  20000A                     	org	2097162
 13102  20000A  0FFF               	dw	4095
 13103                           
 13104                           ;Config register IDLOC6 @ 0x20000C
 13105                           ;	unspecified, using default values
 13106  20000C                     	org	2097164
 13107  20000C  0FFF               	dw	4095
 13108                           
 13109                           ;Config register IDLOC7 @ 0x20000E
 13110                           ;	unspecified, using default values
 13111  20000E                     	org	2097166
 13112  20000E  0FFF               	dw	4095
 13113                           
 13114                           	psect	config
 13115                           
 13116                           ;Config register CONFIG1L @ 0x300000
 13117                           ;	External Oscillator Selection
 13118                           ;	FEXTOSC = HS, HS (crystal oscillator) above 8 MHz; PFM set to high power
 13119                           ;	Reset Oscillator Selection
 13120                           ;	RSTOSC = EXTOSC, EXTOSC operating per FEXTOSC bits (device manufacturing default)
 13121  300000                     	org	3145728
 13122  300000  FA                 	db	250
 13123                           
 13124                           ;Config register CONFIG1H @ 0x300001
 13125                           ;	Clock out Enable bit
 13126                           ;	CLKOUTEN = OFF, CLKOUT function is disabled
 13127                           ;	PRLOCKED One-Way Set Enable bit
 13128                           ;	PR1WAY = ON, PRLOCK bit can be cleared and set only once
 13129                           ;	Clock Switch Enable bit
 13130                           ;	CSWEN = ON, Writing to NOSC and NDIV is allowed
 13131                           ;	Fail-Safe Clock Monitor Enable bit
 13132                           ;	FCMEN = ON, Fail-Safe Clock Monitor enabled
 13133  300001                     	org	3145729
 13134  300001  FF                 	db	255
 13135                           
 13136                           ;Config register CONFIG2L @ 0x300002
 13137                           ;	MCLR Enable bit
 13138                           ;	MCLRE = EXTMCLR, If LVP = 0, MCLR pin is MCLR; If LVP = 1, RE3 pin function is MCLR
 13139                           ;	Power-up timer selection bits
 13140                           ;	PWRTS = PWRT_OFF, PWRT is disabled
 13141                           ;	Multi-vector enable bit
 13142                           ;	MVECEN = OFF, Interrupt contoller does not use vector table to prioritze interrupts
 13143                           ;	IVTLOCK bit One-way set enable bit
 13144                           ;	IVT1WAY = ON, IVTLOCK bit can be cleared and set only once
 13145                           ;	Low Power BOR Enable bit
 13146                           ;	LPBOREN = OFF, ULPBOR disabled
 13147                           ;	Brown-out Reset Enable bits
 13148                           ;	BOREN = SBORDIS, Brown-out Reset enabled , SBOREN bit is ignored
 13149  300002                     	org	3145730
 13150  300002  F7                 	db	247
 13151                           
 13152                           ;Config register CONFIG2H @ 0x300003
 13153                           ;	Brown-out Reset Voltage Selection bits
 13154                           ;	BORV = VBOR_2P45, Brown-out Reset Voltage (VBOR) set to 2.45V
 13155                           ;	ZCD Disable bit
 13156                           ;	ZCD = OFF, ZCD disabled. ZCD can be enabled by setting the ZCDSEN bit of ZCDCON
 13157                           ;	PPSLOCK bit One-Way Set Enable bit
 13158                           ;	PPS1WAY = ON, PPSLOCK bit can be cleared and set only once; PPS registers remain locke
      +                          d after one clear/set cycle
 13159                           ;	Stack Full/Underflow Reset Enable bit
 13160                           ;	STVREN = ON, Stack full/underflow will cause Reset
 13161                           ;	Debugger Enable bit
 13162                           ;	DEBUG = OFF, Background debugger disabled
 13163                           ;	Extended Instruction Set Enable bit
 13164                           ;	XINST = OFF, Extended Instruction Set and Indexed Addressing Mode disabled
 13165  300003                     	org	3145731
 13166  300003  FF                 	db	255
 13167                           
 13168                           ;Config register CONFIG3L @ 0x300004
 13169                           ;	WDT Period selection bits
 13170                           ;	WDTCPS = WDTCPS_9, Divider ratio 1:16384
 13171                           ;	WDT operating mode
 13172                           ;	WDTE = OFF, WDT Disabled; SWDTEN is ignored
 13173  300004                     	org	3145732
 13174  300004  89                 	db	137
 13175                           
 13176                           ;Config register CONFIG3H @ 0x300005
 13177                           ;	WDT Window Select bits
 13178                           ;	WDTCWS = WDTCWS_0, window delay = 87.5; no software control; keyed access required
 13179                           ;	WDT input clock selector
 13180                           ;	WDTCCS = SOSC, WDT reference clock is SOSC
 13181  300005                     	org	3145733
 13182  300005  D0                 	db	208
 13183                           
 13184                           ;Config register CONFIG4L @ 0x300006
 13185                           ;	Boot Block Size selection bits
 13186                           ;	BBSIZE = BBSIZE_512, Boot Block size is 512 words
 13187                           ;	Boot Block enable bit
 13188                           ;	BBEN = OFF, Boot block disabled
 13189                           ;	Storage Area Flash enable bit
 13190                           ;	SAFEN = OFF, SAF disabled
 13191                           ;	Application Block write protection bit
 13192                           ;	WRTAPP = OFF, Application Block not write protected
 13193  300006                     	org	3145734
 13194  300006  FF                 	db	255
 13195                           
 13196                           ;Config register CONFIG4H @ 0x300007
 13197                           ;	Configuration Register Write Protection bit
 13198                           ;	WRTB = OFF, Configuration registers (300000-30000Bh) not write-protected
 13199                           ;	Boot Block Write Protection bit
 13200                           ;	WRTC = OFF, Boot Block (000000-0007FFh) not write-protected
 13201                           ;	Data EEPROM Write Protection bit
 13202                           ;	WRTD = OFF, Data EEPROM not write-protected
 13203                           ;	SAF Write protection bit
 13204                           ;	WRTSAF = OFF, SAF not Write Protected
 13205                           ;	Low Voltage Programming Enable bit
 13206                           ;	LVP = ON, Low voltage programming enabled. MCLR/VPP pin function is MCLR. MCLRE config
      +                          uration bit is ignored
 13207  300007                     	org	3145735
 13208  300007  FF                 	db	255
 13209                           
 13210                           ;Config register CONFIG5L @ 0x300008
 13211                           ;	PFM and Data EEPROM Code Protection bit
 13212                           ;	CP = OFF, PFM and Data EEPROM code protection disabled
 13213  300008                     	org	3145736
 13214  300008  FF                 	db	255
 13215                           
 13216                           ;Config register CONFIG5H @ 0x300009
 13217                           ;	unspecified, using default values
 13218  300009                     	org	3145737
 13219  300009  FF                 	db	255
 13220                           tosu	equ	0x3FFF
 13221                           tosh	equ	0x3FFE
 13222                           tosl	equ	0x3FFD
 13223                           stkptr	equ	0x3FFC
 13224                           pclatu	equ	0x3FFB
 13225                           pclath	equ	0x3FFA
 13226                           pcl	equ	0x3FF9
 13227                           tblptru	equ	0x3FF8
 13228                           tblptrh	equ	0x3FF7
 13229                           tblptrl	equ	0x3FF6
 13230                           tablat	equ	0x3FF5
 13231                           prodh	equ	0x3FF4
 13232                           prodl	equ	0x3FF3
 13233                           indf0	equ	0x3FEF
 13234                           postinc0	equ	0x3FEE
 13235                           postdec0	equ	0x3FED
 13236                           preinc0	equ	0x3FEC
 13237                           plusw0	equ	0x3FEB
 13238                           fsr0h	equ	0x3FEA
 13239                           fsr0l	equ	0x3FE9
 13240                           wreg	equ	0x3FE8
 13241                           indf1	equ	0x3FE7
 13242                           postinc1	equ	0x3FE6
 13243                           postdec1	equ	0x3FE5
 13244                           preinc1	equ	0x3FE4
 13245                           plusw1	equ	0x3FE3
 13246                           fsr1h	equ	0x3FE2
 13247                           fsr1l	equ	0x3FE1
 13248                           bsr	equ	0x3FE0
 13249                           indf2	equ	0x3FDF
 13250                           postinc2	equ	0x3FDE
 13251                           postdec2	equ	0x3FDD
 13252                           preinc2	equ	0x3FDC
 13253                           plusw2	equ	0x3FDB
 13254                           fsr2h	equ	0x3FDA
 13255                           fsr2l	equ	0x3FD9
 13256                           status	equ	0x3FD8

Data Sizes:
    Strings     22
    Constant    554
    Data        32
    BSS         1504
    Persistent  22
    Stack       0

Auto Spaces:
    Space          Size  Autos    Used
    COMRAM           95     25      75
    BANK0           160      1     160
    BANK1           256      0     256
    BANK2           256      4     256
    BANK3           256     15     143
    BANK4           256      0     200
    BANK5           256      0     254
    BANK6           256      0       0
    BANK7           256      0       0

Pointer List with Targets:

    I2C2_MasterFsm$4495	const PTR FTN()enum E16535 size(2) Largest target is 1
		 -> I2C2_DO_BUS_ERROR(), I2C2_DO_BUS_COLLISION(), I2C2_DO_ADDRESS_NACK(), I2C2_DO_RESET(), 
		 -> I2C2_DO_RX_NACK_RESTART(), I2C2_DO_RX_NACK_STOP(), I2C2_DO_TX_ACK(), I2C2_DO_RX_ACK(), 
		 -> I2C2_DO_SEND_STOP(), I2C2_DO_SEND_RESTART(), I2C2_DO_SEND_RESTART_WRITE(), I2C2_DO_SEND_RESTART_READ(), 
		 -> I2C2_DO_RX_EMPTY(), I2C2_DO_TX_EMPTY(), I2C2_DO_RX(), I2C2_DO_TX(), 
		 -> I2C2_DO_SEND_ADR_WRITE(), I2C2_DO_SEND_ADR_READ(), I2C2_DO_IDLE(), 

    I2C2_CallbackReturnStop@funPtr	PTR void  size(2) Largest target is 0
		 -> NULL(NULL[0]), 

    I2C2_CallbackReturnReset@funPtr	PTR void  size(2) Largest target is 0
		 -> NULL(NULL[0]), 

    vfprintf$2	PTR PTR void  size(2) Largest target is 2
		 -> sprintf@ap(COMRAM[2]), 

    vfprintf$1	PTR const unsigned char  size(2) Largest target is 3
		 -> STR_4(CODE[3]), STR_3(CODE[3]), 

    vfprintf$0	PTR struct _IO_FILE size(2) Largest target is 7
		 -> sprintf@f(COMRAM[6]), 

    S2938$0$0	PTR void  size(2) Largest target is 0
		 -> NULL(NULL[0]), 

    S3977_IO_FILE$buffer	PTR unsigned char  size(2) Largest target is 50
		 -> UART2_Write_String@str(COMRAM[50]), UART1_Write_String@str(COMRAM[20]), 

    f.buffer	PTR unsigned char  size(2) Largest target is 50
		 -> UART2_Write_String@str(COMRAM[50]), UART1_Write_String@str(COMRAM[20]), 

    S2938$data_ptr	PTR unsigned char  size(2) Largest target is 0

    I2C2_Status.data_ptr	PTR unsigned char  size(2) Largest target is 0

    S2938$callbackPayload	PTR void [6] size(2) Largest target is 0
		 -> NULL(NULL[0]), 

    I2C2_Status.callbackPayload	PTR void [6] size(2) Largest target is 0
		 -> NULL(NULL[0]), 

    S2938$callbackTable	PTR FTN(PTR void ,)enum E360[6] size(2) Largest target is 1
		 -> I2C2_CallbackReturnReset(), I2C2_CallbackReturnStop(), Absolute function(), 

    I2C2_Status.callbackTable	PTR FTN(PTR void ,)enum E360[6] size(2) Largest target is 1
		 -> i2_I2C2_CallbackReturnReset(), i2_I2C2_CallbackReturnStop(), I2C2_CallbackReturnReset(), I2C2_CallbackReturnStop(), 
		 -> Absolute function(), 

    i2c2_fsmStateTable	const PTR FTN()enum E16535[19] size(2) Largest target is 1
		 -> I2C2_DO_BUS_ERROR(), I2C2_DO_BUS_COLLISION(), I2C2_DO_ADDRESS_NACK(), I2C2_DO_RESET(), 
		 -> I2C2_DO_RX_NACK_RESTART(), I2C2_DO_RX_NACK_STOP(), I2C2_DO_TX_ACK(), I2C2_DO_RX_ACK(), 
		 -> I2C2_DO_SEND_STOP(), I2C2_DO_SEND_RESTART(), I2C2_DO_SEND_RESTART_WRITE(), I2C2_DO_SEND_RESTART_READ(), 
		 -> I2C2_DO_RX_EMPTY(), I2C2_DO_TX_EMPTY(), I2C2_DO_RX(), I2C2_DO_TX(), 
		 -> I2C2_DO_SEND_ADR_WRITE(), I2C2_DO_SEND_ADR_READ(), I2C2_DO_IDLE(), 

    S2020_transfer_data$values	PTR unsigned char  size(2) Largest target is 0

    transfer_data.values	PTR unsigned char  size(2) Largest target is 0

    modbus_read_holding_registers_rsp@reg_data	PTR unsigned short  size(2) Largest target is 100
		 -> hold_regs(BANK2[100]), 

    modbus_read_discrete_input_rsp@input_data	PTR unsigned char  size(2) Largest target is 1
		 -> data_read_coil(COMRAM[1]), 

    modbus_read_coils_rsp@coil_data	PTR unsigned char  size(2) Largest target is 1
		 -> data_read_coil(COMRAM[1]), 

    UART2_SetRxInterruptHandler@InterruptHandler	PTR FTN()void  size(2) Largest target is 1
		 -> UART2_Receive_ISR(), 

    UART2_SetErrorHandler@interruptHandler	PTR FTN()void  size(2) Largest target is 1
		 -> UART2_DefaultErrorHandler(), 

    UART2_ErrorHandler	PTR FTN()void  size(2) Largest target is 1
		 -> UART2_DefaultErrorHandler(), Absolute function(), 

    UART2_SetOverrunErrorHandler@interruptHandler	PTR FTN()void  size(2) Largest target is 1
		 -> UART2_DefaultOverrunErrorHandler(), 

    UART2_OverrunErrorHandler	PTR FTN()void  size(2) Largest target is 1
		 -> UART2_DefaultOverrunErrorHandler(), Absolute function(), 

    UART2_SetFramingErrorHandler@interruptHandler	PTR FTN()void  size(2) Largest target is 1
		 -> UART2_DefaultFramingErrorHandler(), 

    UART2_FramingErrorHandler	PTR FTN()void  size(2) Largest target is 1
		 -> UART2_DefaultFramingErrorHandler(), Absolute function(), 

    UART1_SetRxInterruptHandler@InterruptHandler	PTR FTN()void  size(2) Largest target is 1
		 -> UART1_Receive_ISR(), 

    UART1_SetErrorHandler@interruptHandler	PTR FTN()void  size(2) Largest target is 1
		 -> UART1_DefaultErrorHandler(), 

    UART1_ErrorHandler	PTR FTN()void  size(2) Largest target is 1
		 -> UART1_DefaultErrorHandler(), Absolute function(), 

    UART1_SetOverrunErrorHandler@interruptHandler	PTR FTN()void  size(2) Largest target is 1
		 -> UART1_DefaultOverrunErrorHandler(), 

    UART1_OverrunErrorHandler	PTR FTN()void  size(2) Largest target is 1
		 -> UART1_DefaultOverrunErrorHandler(), Absolute function(), 

    UART1_SetFramingErrorHandler@interruptHandler	PTR FTN()void  size(2) Largest target is 1
		 -> UART1_DefaultFramingErrorHandler(), 

    UART1_FramingErrorHandler	PTR FTN()void  size(2) Largest target is 1
		 -> UART1_DefaultFramingErrorHandler(), Absolute function(), 

    UART2_RxInterruptHandler	PTR FTN()void  size(2) Largest target is 1
		 -> UART2_Receive_ISR(), Absolute function(), 

    I2C2_InterruptHandler	PTR FTN()void  size(2) Largest target is 1
		 -> i2_I2C2_MasterIsr(), I2C2_MasterIsr(), Absolute function(), 

    UART1_RxInterruptHandler	PTR FTN()void  size(2) Largest target is 1
		 -> UART1_Receive_ISR(), Absolute function(), 

    TMR0_SetInterruptHandler@InterruptHandler	PTR FTN()void  size(2) Largest target is 1
		 -> TMR0_DefaultInterruptHandler(), 

    TMR0_InterruptHandler	PTR FTN()void  size(2) Largest target is 1
		 -> Absolute function(), TMR0_DefaultInterruptHandler(), 


Critical Paths under _main in COMRAM

    None.

Critical Paths under _INTERRUPT_InterruptManagerLow in COMRAM

    _UART2_RxDataHandler->_modbusReceivedDataLoRa
    _modbusReceivedDataLoRa->i1_modbus_calc_crc
    _I2C2_MasterFsm->_I2C2_DO_TX
    _I2C2_DO_TX->_I2C2_CallbackReturnReset
    _I2C2_DO_TX->_I2C2_CallbackReturnStop
    _I2C2_DO_TX_EMPTY->_I2C2_CallbackReturnReset
    _I2C2_DO_TX_EMPTY->_I2C2_CallbackReturnStop
    _I2C2_DO_SEND_STOP->_I2C2_MasterSendTxData@i2c2_master$F3095
    _I2C2_DO_SEND_STOP->_I2C2_MasterSetCounter
    _I2C2_DO_RX->_I2C2_DO_RX_EMPTY
    _I2C2_DO_BUS_COLLISION->_I2C2_CallbackReturnReset
    _I2C2_DO_BUS_COLLISION->_I2C2_CallbackReturnStop
    _I2C2_DO_SEND_RESTART_READ->_I2C2_MasterSetCounter
    _I2C2_DO_RX_EMPTY->_I2C2_CallbackReturnReset
    _I2C2_DO_RX_EMPTY->_I2C2_CallbackReturnStop
    _I2C2_DO_ADDRESS_NACK->_I2C2_CallbackReturnReset
    _I2C2_DO_ADDRESS_NACK->_I2C2_CallbackReturnStop

Critical Paths under _INTERRUPT_InterruptManagerHigh in COMRAM

    i2_I2C2_MasterFsm->i2_I2C2_DO_TX
    i2_I2C2_DO_TX->i2_I2C2_CallbackReturnReset
    i2_I2C2_DO_TX->i2_I2C2_CallbackReturnStop
    i2_I2C2_DO_TX_EMPTY->i2_I2C2_CallbackReturnReset
    i2_I2C2_DO_TX_EMPTY->i2_I2C2_CallbackReturnStop
    i2_I2C2_DO_SEND_STOP->i2_I2C2_MasterSendTxData@i2c2_master$F3095
    i2_I2C2_DO_SEND_STOP->i2_I2C2_MasterSetCounter
    i2_I2C2_DO_BUS_COLLISION->i2_I2C2_CallbackReturnReset
    i2_I2C2_DO_BUS_COLLISION->i2_I2C2_CallbackReturnStop
    i2_I2C2_DO_SEND_RESTART_READ->i2_I2C2_MasterSetCounter
    i2_I2C2_DO_RX_EMPTY->i2_I2C2_CallbackReturnReset
    i2_I2C2_DO_RX_EMPTY->i2_I2C2_CallbackReturnStop
    i2_I2C2_DO_ADDRESS_NACK->i2_I2C2_CallbackReturnReset
    i2_I2C2_DO_ADDRESS_NACK->i2_I2C2_CallbackReturnStop
    _UART1_RxDataHandler->_modbusReceivedDataRS485
    _modbusReceivedDataRS485->i2_modbus_calc_crc

Critical Paths under _main in BANK0

    _main->_saveToEEPROM
    _modbus_write_single_register_rsp->_modbus_serial_putc
    _modbus_write_single_coil_rsp->_modbus_serial_putc
    _modbus_write_multiple_registers_rsp->_modbus_serial_putc
    _modbus_write_multiple_coils_rsp->_modbus_serial_putc
    _modbus_read_holding_registers_rsp->_modbus_serial_putc
    _modbus_read_discrete_input_rsp->_modbus_serial_putc
    _modbus_read_coils_rsp->_modbus_serial_putc
    _modbus_timeout_now->_modbus_enable_timeout
    _modbus_exception_rsp->_modbus_serial_putc
    _modbus_serial_send_stop->_modbus_serial_putc
    _modbus_serial_send_start->_modbus_serial_putc

Critical Paths under _INTERRUPT_InterruptManagerLow in BANK0

    None.

Critical Paths under _INTERRUPT_InterruptManagerHigh in BANK0

    None.

Critical Paths under _main in BANK1

    None.

Critical Paths under _INTERRUPT_InterruptManagerLow in BANK1

    None.

Critical Paths under _INTERRUPT_InterruptManagerHigh in BANK1

    None.

Critical Paths under _main in BANK2

    _main->___awdiv
    _modbus_write_single_register_rsp->_modbus_serial_send_start
    _modbus_write_single_coil_rsp->_modbus_serial_send_start
    _modbus_write_multiple_registers_rsp->_modbus_serial_send_start
    _modbus_write_multiple_coils_rsp->_modbus_serial_send_start
    _modbus_read_holding_registers_rsp->_modbus_serial_send_start
    _modbus_read_discrete_input_rsp->___awdiv
    _modbus_read_discrete_input_rsp->_modbus_serial_send_start
    _modbus_read_coils_rsp->___awdiv
    _modbus_read_coils_rsp->_modbus_serial_send_start
    _modbus_exception_rsp->_modbus_serial_send_start
    _modbus_serial_putc->_UART1_Write
    _SYSTEM_Initialize->_TMR0_Initialize
    _UART2_Initialize->_UART2_SetErrorHandler
    _UART2_Initialize->_UART2_SetFramingErrorHandler
    _UART2_Initialize->_UART2_SetOverrunErrorHandler
    _UART2_Initialize->_UART2_SetRxInterruptHandler
    _UART1_Initialize->_UART1_SetErrorHandler
    _UART1_Initialize->_UART1_SetFramingErrorHandler
    _UART1_Initialize->_UART1_SetOverrunErrorHandler
    _UART1_Initialize->_UART1_SetRxInterruptHandler
    _TMR0_Initialize->_TMR0_SetInterruptHandler

Critical Paths under _INTERRUPT_InterruptManagerLow in BANK2

    None.

Critical Paths under _INTERRUPT_InterruptManagerHigh in BANK2

    None.

Critical Paths under _main in BANK3

    _main->_modbus_read_holding_registers_rsp
    _modbus_write_single_register_rsp->_make16
    _modbus_write_single_coil_rsp->_make16
    _modbus_write_multiple_registers_rsp->_make16
    _modbus_write_multiple_coils_rsp->_make16
    _modbus_read_holding_registers_rsp->_modbus_serial_send_stop
    _modbus_read_discrete_input_rsp->_modbus_serial_send_stop
    _modbus_read_coils_rsp->_modbus_serial_send_stop
    _modbus_exception_rsp->_modbus_serial_send_stop

Critical Paths under _INTERRUPT_InterruptManagerLow in BANK3

    None.

Critical Paths under _INTERRUPT_InterruptManagerHigh in BANK3

    None.

Critical Paths under _main in BANK4

    None.

Critical Paths under _INTERRUPT_InterruptManagerLow in BANK4

    None.

Critical Paths under _INTERRUPT_InterruptManagerHigh in BANK4

    None.

Critical Paths under _main in BANK5

    None.

Critical Paths under _INTERRUPT_InterruptManagerLow in BANK5

    None.

Critical Paths under _INTERRUPT_InterruptManagerHigh in BANK5

    None.

Critical Paths under _main in BANK6

    None.

Critical Paths under _INTERRUPT_InterruptManagerLow in BANK6

    None.

Critical Paths under _INTERRUPT_InterruptManagerHigh in BANK6

    None.

Critical Paths under _main in BANK7

    None.

Critical Paths under _INTERRUPT_InterruptManagerLow in BANK7

    None.

Critical Paths under _INTERRUPT_InterruptManagerHigh in BANK7

    None.

Call Graph Tables:

 ---------------------------------------------------------------------------------
 (Depth) Function   	        Calls       Base Space   Used Autos Params    Refs
 ---------------------------------------------------------------------------------
 (0) _main                                                18    18      0   31714
                                             13 BANK3      2     2      0
                  _SYSTEM_Initialize
                        _UART1_Write
                        _UART2_Write
                            ___awdiv
                             _make16
               _modbus_exception_rsp
                        _modbus_init
                       _modbus_kbhit
              _modbus_read_coils_rsp
     _modbus_read_discrete_input_rsp
  _modbus_read_holding_registers_rsp
    _modbus_write_multiple_coils_rsp
_modbus_write_multiple_registers_rsp
       _modbus_write_single_coil_rsp
   _modbus_write_single_register_rsp
                       _saveToEEPROM
 ---------------------------------------------------------------------------------
 (1) _saveToEEPROM                                         2     1      1     180
                                              0 BANK0      1     0      1
 ---------------------------------------------------------------------------------
 (1) _modbus_write_single_register_rsp                     5     1      4    2980
                                              7 BANK3      5     1      4
                             _make16 (ARG)
                 _modbus_serial_putc
           _modbus_serial_send_start
            _modbus_serial_send_stop
 ---------------------------------------------------------------------------------
 (1) _modbus_write_single_coil_rsp                         5     1      4    2980
                                              7 BANK3      5     1      4
                             _make16 (ARG)
                 _modbus_serial_putc
           _modbus_serial_send_start
            _modbus_serial_send_stop
 ---------------------------------------------------------------------------------
 (1) _modbus_write_multiple_registers_rsp                  5     1      4    2980
                                              7 BANK3      5     1      4
                             _make16 (ARG)
                 _modbus_serial_putc
           _modbus_serial_send_start
            _modbus_serial_send_stop
 ---------------------------------------------------------------------------------
 (1) _modbus_write_multiple_coils_rsp                      5     1      4    2980
                                              7 BANK3      5     1      4
                             _make16 (ARG)
                 _modbus_serial_putc
           _modbus_serial_send_start
            _modbus_serial_send_stop
 ---------------------------------------------------------------------------------
 (1) _modbus_read_holding_registers_rsp                    7     4      3    3020
                                              6 BANK3      7     4      3
                 _modbus_serial_putc
           _modbus_serial_send_start
            _modbus_serial_send_stop
 ---------------------------------------------------------------------------------
 (1) _modbus_read_discrete_input_rsp                       5     2      3    3169
                                              6 BANK3      5     2      3
                            ___awdiv (ARG)
                 _modbus_serial_putc
           _modbus_serial_send_start
            _modbus_serial_send_stop
 ---------------------------------------------------------------------------------
 (1) _modbus_read_coils_rsp                                5     2      3    3169
                                              6 BANK3      5     2      3
                            ___awdiv (ARG)
                 _modbus_serial_putc
           _modbus_serial_send_start
            _modbus_serial_send_stop
 ---------------------------------------------------------------------------------
 (1) _modbus_kbhit                                         0     0      0      31
               _modbus_check_timeout
 ---------------------------------------------------------------------------------
 (2) _modbus_check_timeout                                 0     0      0      31
                 _modbus_timeout_now
 ---------------------------------------------------------------------------------
 (3) _modbus_timeout_now                                   0     0      0      31
                             _RCV_ON
              _modbus_enable_timeout
 ---------------------------------------------------------------------------------
 (4) _modbus_enable_timeout                                1     1      0      31
                                              0 BANK0      1     1      0
 ---------------------------------------------------------------------------------
 (1) _modbus_init                                          0     0      0       0
                             _RCV_ON
 ---------------------------------------------------------------------------------
 (1) _modbus_exception_rsp                                 4     1      3    4718
                                              6 BANK3      4     1      3
                 _modbus_serial_putc
           _modbus_serial_send_start
            _modbus_serial_send_stop
 ---------------------------------------------------------------------------------
 (2) _modbus_serial_send_stop                              6     6      0     331
                                              0 BANK3      6     6      0
                             _RCV_ON
                   _UART1_is_tx_done
                 _modbus_serial_putc
 ---------------------------------------------------------------------------------
 (3) _RCV_ON                                               0     0      0       0
 ---------------------------------------------------------------------------------
 (2) _modbus_serial_send_start                             2     1      1    2088
                                              3 BANK2      1     0      1
                                              0 BANK3      1     1      0
                            _RCV_OFF
                 _modbus_serial_putc
 ---------------------------------------------------------------------------------
 (3) _modbus_serial_putc                                   1     1      0     226
                                              0 BANK0      1     1      0
                        _UART1_Write
                    _modbus_calc_crc
 ---------------------------------------------------------------------------------
 (4) _modbus_calc_crc                                      2     2      0      96
                                              0 BANK2      2     2      0
 ---------------------------------------------------------------------------------
 (4) _UART1_Write                                          3     3      0      68
                                              0 BANK2      3     3      0
                   _UART1_is_tx_done
 ---------------------------------------------------------------------------------
 (5) _UART1_is_tx_done                                     0     0      0       0
 ---------------------------------------------------------------------------------
 (3) _RCV_OFF                                              0     0      0       0
 ---------------------------------------------------------------------------------
 (1) _make16                                               9     7      2    3069
                                              0 BANK2      2     0      2
                                              0 BANK3      7     7      0
 ---------------------------------------------------------------------------------
 (1) ___awdiv                                              8     4      4     805
                                              0 BANK2      4     0      4
                                              0 BANK3      4     4      0
 ---------------------------------------------------------------------------------
 (1) _UART2_Write                                          3     3      0      68
                                              0 BANK2      3     3      0
 ---------------------------------------------------------------------------------
 (1) _SYSTEM_Initialize                                    0     0      0    1089
                    _I2C2_Initialize
               _INTERRUPT_Initialize
              _OSCILLATOR_Initialize
             _PIN_MANAGER_Initialize
                     _PMD_Initialize
                    _TMR0_Initialize
                   _UART1_Initialize
                   _UART2_Initialize
 ---------------------------------------------------------------------------------
 (2) _UART2_Initialize                                     0     0      0     484
              _UART2_SetErrorHandler
       _UART2_SetFramingErrorHandler
       _UART2_SetOverrunErrorHandler
        _UART2_SetRxInterruptHandler
 ---------------------------------------------------------------------------------
 (3) _UART2_SetRxInterruptHandler                          2     0      2     121
                                              0 BANK2      2     0      2
 ---------------------------------------------------------------------------------
 (3) _UART2_SetOverrunErrorHandler                         2     0      2     121
                                              0 BANK2      2     0      2
 ---------------------------------------------------------------------------------
 (3) _UART2_SetFramingErrorHandler                         2     0      2     121
                                              0 BANK2      2     0      2
 ---------------------------------------------------------------------------------
 (3) _UART2_SetErrorHandler                                2     0      2     121
                                              0 BANK2      2     0      2
 ---------------------------------------------------------------------------------
 (2) _UART1_Initialize                                     0     0      0     484
              _UART1_SetErrorHandler
       _UART1_SetFramingErrorHandler
       _UART1_SetOverrunErrorHandler
        _UART1_SetRxInterruptHandler
 ---------------------------------------------------------------------------------
 (3) _UART1_SetRxInterruptHandler                          2     0      2     121
                                              0 BANK2      2     0      2
 ---------------------------------------------------------------------------------
 (3) _UART1_SetOverrunErrorHandler                         2     0      2     121
                                              0 BANK2      2     0      2
 ---------------------------------------------------------------------------------
 (3) _UART1_SetFramingErrorHandler                         2     0      2     121
                                              0 BANK2      2     0      2
 ---------------------------------------------------------------------------------
 (3) _UART1_SetErrorHandler                                2     0      2     121
                                              0 BANK2      2     0      2
 ---------------------------------------------------------------------------------
 (2) _TMR0_Initialize                                      2     2      0     121
                                              2 BANK2      2     2      0
           _TMR0_SetInterruptHandler
 ---------------------------------------------------------------------------------
 (3) _TMR0_SetInterruptHandler                             2     0      2     121
                                              0 BANK2      2     0      2
 ---------------------------------------------------------------------------------
 (2) _PMD_Initialize                                       0     0      0       0
 ---------------------------------------------------------------------------------
 (2) _PIN_MANAGER_Initialize                               0     0      0       0
 ---------------------------------------------------------------------------------
 (2) _OSCILLATOR_Initialize                                0     0      0       0
 ---------------------------------------------------------------------------------
 (2) _INTERRUPT_Initialize                                 0     0      0       0
 ---------------------------------------------------------------------------------
 (2) _I2C2_Initialize                                      0     0      0       0
 ---------------------------------------------------------------------------------
 Estimated maximum stack depth 5
 ---------------------------------------------------------------------------------
 (Depth) Function   	        Calls       Base Space   Used Autos Params    Refs
 ---------------------------------------------------------------------------------
 (6) _INTERRUPT_InterruptManagerLow                        5     5      0    3604
                                             20 COMRAM     5     5      0
                   Absolute function *
                     _I2C2_MasterIsr *
                           _TMR0_ISR
                  _UART2_Receive_ISR *
 ---------------------------------------------------------------------------------
 (7) _UART2_Receive_ISR                                    0     0      0     178
                _UART2_RxDataHandler
 ---------------------------------------------------------------------------------
 (8) _UART2_RxDataHandler                                  0     0      0     178
             _modbusReceivedDataLoRa
 ---------------------------------------------------------------------------------
 (9) _modbusReceivedDataLoRa                               1     1      0     178
                                             14 COMRAM     1     1      0
                  i1_modbus_calc_crc
            i1_modbus_enable_timeout
 ---------------------------------------------------------------------------------
 (10) i1_modbus_enable_timeout                             1     1      0      22
                                             12 COMRAM     1     1      0
 ---------------------------------------------------------------------------------
 (10) i1_modbus_calc_crc                                   2     2      0      67
                                             12 COMRAM     2     2      0
 ---------------------------------------------------------------------------------
 (7) _TMR0_ISR                                             0     0      0       0
                      _TMR0_CallBack
 ---------------------------------------------------------------------------------
 (8) _TMR0_CallBack                                        0     0      0       0
                   Absolute function *
       _TMR0_DefaultInterruptHandler *
 ---------------------------------------------------------------------------------
 (9) _TMR0_DefaultInterruptHandler                         0     0      0       0
 ---------------------------------------------------------------------------------
 (7) _I2C2_MasterIsr                                       0     0      0    3426
                     _I2C2_MasterFsm
 ---------------------------------------------------------------------------------
 (8) _I2C2_MasterFsm                                       0     0      0    3426
           _I2C2_ClearInterruptFlags
               _I2C2_DO_ADDRESS_NACK *
              _I2C2_DO_BUS_COLLISION *
                  _I2C2_DO_BUS_ERROR *
                       _I2C2_DO_IDLE *
                      _I2C2_DO_RESET *
                         _I2C2_DO_RX *
                     _I2C2_DO_RX_ACK *
                   _I2C2_DO_RX_EMPTY *
            _I2C2_DO_RX_NACK_RESTART *
               _I2C2_DO_RX_NACK_STOP *
              _I2C2_DO_SEND_ADR_READ *
             _I2C2_DO_SEND_ADR_WRITE *
               _I2C2_DO_SEND_RESTART *
          _I2C2_DO_SEND_RESTART_READ *
         _I2C2_DO_SEND_RESTART_WRITE *
                  _I2C2_DO_SEND_STOP *
                         _I2C2_DO_TX *
                     _I2C2_DO_TX_ACK *
                   _I2C2_DO_TX_EMPTY *
                  _I2C2_MasterIsNack
 ---------------------------------------------------------------------------------
 (9) _I2C2_DO_TX_ACK                                       0     0      0       0
_I2C2_MasterSendAck@i2c2_master$F313
 ---------------------------------------------------------------------------------
 (9) _I2C2_DO_TX                                           6     6      0     975
                                             14 COMRAM     6     6      0
                   Absolute function *
           _I2C2_CallbackReturnReset *
            _I2C2_CallbackReturnStop *
          _I2C2_DO_SEND_RESTART_READ
         _I2C2_DO_SEND_RESTART_WRITE
                   _I2C2_DO_TX_EMPTY
                  _I2C2_MasterIsNack
            _I2C2_MasterIsTxBufEmpty
_I2C2_MasterSendTxData@i2c2_master$F
 ---------------------------------------------------------------------------------
 (10) _I2C2_MasterIsTxBufEmpty                             0     0      0       0
 ---------------------------------------------------------------------------------
 (9) _I2C2_MasterIsNack                                    0     0      0       0
 ---------------------------------------------------------------------------------
 (9) _I2C2_DO_TX_EMPTY                                     2     2      0     287
                                             14 COMRAM     2     2      0
                   Absolute function *
           _I2C2_CallbackReturnReset *
            _I2C2_CallbackReturnStop *
          _I2C2_MasterDisableRestart
_I2C2_MasterEnableRestart@i2c2_maste
              _I2C2_MasterSetCounter
 ---------------------------------------------------------------------------------
 (9) _I2C2_DO_SEND_STOP                                    0     0      0      44
              _I2C2_MasterGetCounter
_I2C2_MasterSendTxData@i2c2_master$F
              _I2C2_MasterSetCounter
  _I2C2_MasterStop@i2c2_master$F3126
 ---------------------------------------------------------------------------------
 (10) _I2C2_MasterGetCounter                               0     0      0       0
 ---------------------------------------------------------------------------------
 (9) _I2C2_DO_SEND_ADR_WRITE                               0     0      0      22
_I2C2_MasterSendTxData@i2c2_master$F
 ---------------------------------------------------------------------------------
 (9) _I2C2_DO_RX_NACK_STOP                                 0     0      0       0
                       _I2C2_DO_IDLE
_I2C2_MasterSendNack@i2c2_master$F31
  _I2C2_MasterStop@i2c2_master$F3126
 ---------------------------------------------------------------------------------
 (10) _I2C2_MasterStop@i2c2_master$F3126                   0     0      0       0
 ---------------------------------------------------------------------------------
 (10) _I2C2_DO_IDLE                                        0     0      0       0
 ---------------------------------------------------------------------------------
 (9) _I2C2_DO_RX_NACK_RESTART                              0     0      0       0
_I2C2_MasterSendNack@i2c2_master$F31
 ---------------------------------------------------------------------------------
 (10) _I2C2_MasterSendNack@i2c2_master$F3141               0     0      0       0
 ---------------------------------------------------------------------------------
 (9) _I2C2_DO_RX_ACK                                       0     0      0       0
_I2C2_MasterSendAck@i2c2_master$F313
 ---------------------------------------------------------------------------------
 (10) _I2C2_MasterSendAck@i2c2_master$F3136                0     0      0       0
 ---------------------------------------------------------------------------------
 (9) _I2C2_DO_RX                                           3     3      0     310
                                             16 COMRAM     3     3      0
                   _I2C2_DO_RX_EMPTY
_I2C2_MasterGetRxData@i2c2_master$F3
             _I2C2_MasterIsRxBufFull
 ---------------------------------------------------------------------------------
 (10) _I2C2_MasterIsRxBufFull                              0     0      0       0
 ---------------------------------------------------------------------------------
 (10) _I2C2_MasterGetRxData@i2c2_master$F3111              0     0      0       0
 ---------------------------------------------------------------------------------
 (9) _I2C2_DO_BUS_ERROR                                    0     0      0       0
                _I2C2_MasterResetBus
 ---------------------------------------------------------------------------------
 (9) _I2C2_DO_BUS_COLLISION                                2     2      0     596
                                             14 COMRAM     2     2      0
                   Absolute function *
           _I2C2_CallbackReturnReset *
            _I2C2_CallbackReturnStop *
                      _I2C2_DO_RESET
          _I2C2_DO_SEND_RESTART_READ
         _I2C2_DO_SEND_RESTART_WRITE
                _I2C2_MasterClearIrq
 ---------------------------------------------------------------------------------
 (10) _I2C2_MasterClearIrq                                 0     0      0       0
 ---------------------------------------------------------------------------------
 (10) _I2C2_DO_SEND_RESTART_WRITE                          0     0      0       0
 ---------------------------------------------------------------------------------
 (10) _I2C2_DO_SEND_RESTART_READ                           0     0      0     331
              _I2C2_DO_SEND_ADR_READ
              _I2C2_MasterSetCounter
 ---------------------------------------------------------------------------------
 (11) _I2C2_DO_SEND_ADR_READ                               0     0      0     309
                   _I2C2_DO_RX_EMPTY
_I2C2_MasterSendTxData@i2c2_master$F
 ---------------------------------------------------------------------------------
 (10) _I2C2_MasterSendTxData@i2c2_master$F3095             1     1      0      22
                                             12 COMRAM     1     1      0
 ---------------------------------------------------------------------------------
 (12) _I2C2_DO_RX_EMPTY                                    2     2      0     287
                                             14 COMRAM     2     2      0
                   Absolute function *
           _I2C2_CallbackReturnReset *
            _I2C2_CallbackReturnStop *
          _I2C2_MasterDisableRestart
_I2C2_MasterEnableRestart@i2c2_maste
              _I2C2_MasterSetCounter
 ---------------------------------------------------------------------------------
 (10) _I2C2_MasterSetCounter                               1     1      0      22
                                             12 COMRAM     1     1      0
 ---------------------------------------------------------------------------------
 (10) _I2C2_MasterEnableRestart@i2c2_master$F3116          0     0      0       0
 ---------------------------------------------------------------------------------
 (10) _I2C2_MasterDisableRestart                           0     0      0       0
 ---------------------------------------------------------------------------------
 (9) _I2C2_DO_RESET                                        0     0      0       0
                _I2C2_MasterResetBus
 ---------------------------------------------------------------------------------
 (10) _I2C2_MasterResetBus                                 0     0      0       0
 ---------------------------------------------------------------------------------
 (9) _I2C2_DO_ADDRESS_NACK                                 2     2      0     265
                                             14 COMRAM     2     2      0
                   Absolute function *
           _I2C2_CallbackReturnReset *
            _I2C2_CallbackReturnStop *
               _I2C2_DO_SEND_RESTART
 ---------------------------------------------------------------------------------
 (9) _I2C2_DO_SEND_RESTART                                 0     0      0       0
 ---------------------------------------------------------------------------------
 (10) _I2C2_CallbackReturnStop                             2     0      2       0
                                             12 COMRAM     2     0      2
 ---------------------------------------------------------------------------------
 (10) _I2C2_CallbackReturnReset                            2     0      2     265
                                             12 COMRAM     2     0      2
 ---------------------------------------------------------------------------------
 (18) Absolute function(Fake)                              0     0      0       0
 ---------------------------------------------------------------------------------
 (9) _I2C2_ClearInterruptFlags                             0     0      0       0
          _I2C2_MasterClearCountFlag
           _I2C2_MasterClearNackFlag
           _I2C2_MasterClearStopFlag
          _I2C2_MasterIsCountFlagSet
           _I2C2_MasterIsNackFlagSet
           _I2C2_MasterIsStopFlagSet
 ---------------------------------------------------------------------------------
 (10) _I2C2_MasterIsStopFlagSet                            0     0      0       0
 ---------------------------------------------------------------------------------
 (10) _I2C2_MasterIsNackFlagSet                            0     0      0       0
 ---------------------------------------------------------------------------------
 (10) _I2C2_MasterIsCountFlagSet                           0     0      0       0
 ---------------------------------------------------------------------------------
 (10) _I2C2_MasterClearStopFlag                            0     0      0       0
 ---------------------------------------------------------------------------------
 (10) _I2C2_MasterClearNackFlag                            0     0      0       0
 ---------------------------------------------------------------------------------
 (10) _I2C2_MasterClearCountFlag                           0     0      0       0
 ---------------------------------------------------------------------------------
 Estimated maximum stack depth 18
 ---------------------------------------------------------------------------------
 (Depth) Function   	        Calls       Base Space   Used Autos Params    Refs
 ---------------------------------------------------------------------------------
 (14) _INTERRUPT_InterruptManagerHigh                      4     4      0    2119
                                              8 COMRAM     4     4      0
                   Absolute function *
                  _UART1_Receive_ISR *
                   i2_I2C2_MasterIsr *
 ---------------------------------------------------------------------------------
 (15) i2_I2C2_MasterIsr                                    0     0      0    1941
                   i2_I2C2_MasterFsm
 ---------------------------------------------------------------------------------
 (16) i2_I2C2_MasterFsm                                    0     0      0    1941
         i2_I2C2_ClearInterruptFlags
             i2_I2C2_DO_ADDRESS_NACK *
            i2_I2C2_DO_BUS_COLLISION *
                i2_I2C2_DO_BUS_ERROR *
                     i2_I2C2_DO_IDLE *
                    i2_I2C2_DO_RESET *
                       i2_I2C2_DO_RX *
                   i2_I2C2_DO_RX_ACK *
                 i2_I2C2_DO_RX_EMPTY *
          i2_I2C2_DO_RX_NACK_RESTART *
             i2_I2C2_DO_RX_NACK_STOP *
            i2_I2C2_DO_SEND_ADR_READ *
           i2_I2C2_DO_SEND_ADR_WRITE *
             i2_I2C2_DO_SEND_RESTART *
        i2_I2C2_DO_SEND_RESTART_READ *
       i2_I2C2_DO_SEND_RESTART_WRITE *
                i2_I2C2_DO_SEND_STOP *
                       i2_I2C2_DO_TX *
                   i2_I2C2_DO_TX_ACK *
                 i2_I2C2_DO_TX_EMPTY *
                i2_I2C2_MasterIsNack
 ---------------------------------------------------------------------------------
 (17) i2_I2C2_DO_TX_ACK                                    0     0      0       0
i2_I2C2_MasterSendAck@i2c2_master$F3
 ---------------------------------------------------------------------------------
 (17) i2_I2C2_DO_TX                                        6     6      0     570
                                              2 COMRAM     6     6      0
                   Absolute function *
         i2_I2C2_CallbackReturnReset *
          i2_I2C2_CallbackReturnStop *
        i2_I2C2_DO_SEND_RESTART_READ
       i2_I2C2_DO_SEND_RESTART_WRITE
                 i2_I2C2_DO_TX_EMPTY
                i2_I2C2_MasterIsNack
          i2_I2C2_MasterIsTxBufEmpty
i2_I2C2_MasterSendTxData@i2c2_master
 ---------------------------------------------------------------------------------
 (18) i2_I2C2_MasterIsTxBufEmpty                           0     0      0       0
 ---------------------------------------------------------------------------------
 (17) i2_I2C2_MasterIsNack                                 0     0      0       0
 ---------------------------------------------------------------------------------
 (17) i2_I2C2_DO_TX_EMPTY                                  2     2      0     152
                                              2 COMRAM     2     2      0
                   Absolute function *
         i2_I2C2_CallbackReturnReset *
          i2_I2C2_CallbackReturnStop *
        i2_I2C2_MasterDisableRestart
i2_I2C2_MasterEnableRestart@i2c2_mas
            i2_I2C2_MasterSetCounter
 ---------------------------------------------------------------------------------
 (17) i2_I2C2_DO_SEND_STOP                                 0     0      0      44
            i2_I2C2_MasterGetCounter
i2_I2C2_MasterSendTxData@i2c2_master
            i2_I2C2_MasterSetCounter
i2_I2C2_MasterStop@i2c2_master$F3126
 ---------------------------------------------------------------------------------
 (18) i2_I2C2_MasterGetCounter                             0     0      0       0
 ---------------------------------------------------------------------------------
 (17) i2_I2C2_DO_SEND_ADR_WRITE                            0     0      0      22
i2_I2C2_MasterSendTxData@i2c2_master
 ---------------------------------------------------------------------------------
 (17) i2_I2C2_DO_RX_NACK_STOP                              0     0      0       0
                     i2_I2C2_DO_IDLE
i2_I2C2_MasterSendNack@i2c2_master$F
i2_I2C2_MasterStop@i2c2_master$F3126
 ---------------------------------------------------------------------------------
 (18) i2_I2C2_MasterStop@i2c2_master$F3126                 0     0      0       0
 ---------------------------------------------------------------------------------
 (18) i2_I2C2_DO_IDLE                                      0     0      0       0
 ---------------------------------------------------------------------------------
 (17) i2_I2C2_DO_RX_NACK_RESTART                           0     0      0       0
i2_I2C2_MasterSendNack@i2c2_master$F
 ---------------------------------------------------------------------------------
 (18) i2_I2C2_MasterSendNack@i2c2_master$F3141             0     0      0       0
 ---------------------------------------------------------------------------------
 (17) i2_I2C2_DO_RX_ACK                                    0     0      0       0
i2_I2C2_MasterSendAck@i2c2_master$F3
 ---------------------------------------------------------------------------------
 (18) i2_I2C2_MasterSendAck@i2c2_master$F3136              0     0      0       0
 ---------------------------------------------------------------------------------
 (17) i2_I2C2_DO_RX                                        3     3      0     175
                                              0 COMRAM     3     3      0
                 i2_I2C2_DO_RX_EMPTY
i2_I2C2_MasterGetRxData@i2c2_master$
           i2_I2C2_MasterIsRxBufFull
 ---------------------------------------------------------------------------------
 (18) i2_I2C2_MasterIsRxBufFull                            0     0      0       0
 ---------------------------------------------------------------------------------
 (18) i2_I2C2_MasterGetRxData@i2c2_master$F3111            0     0      0       0
 ---------------------------------------------------------------------------------
 (17) i2_I2C2_DO_BUS_ERROR                                 0     0      0       0
              i2_I2C2_MasterResetBus
 ---------------------------------------------------------------------------------
 (17) i2_I2C2_DO_BUS_COLLISION                             2     2      0     326
                                              2 COMRAM     2     2      0
                   Absolute function *
         i2_I2C2_CallbackReturnReset *
          i2_I2C2_CallbackReturnStop *
                    i2_I2C2_DO_RESET
        i2_I2C2_DO_SEND_RESTART_READ
       i2_I2C2_DO_SEND_RESTART_WRITE
              i2_I2C2_MasterClearIrq
 ---------------------------------------------------------------------------------
 (18) i2_I2C2_MasterClearIrq                               0     0      0       0
 ---------------------------------------------------------------------------------
 (18) i2_I2C2_DO_SEND_RESTART_WRITE                        0     0      0       0
 ---------------------------------------------------------------------------------
 (18) i2_I2C2_DO_SEND_RESTART_READ                         0     0      0     196
            i2_I2C2_DO_SEND_ADR_READ
            i2_I2C2_MasterSetCounter
 ---------------------------------------------------------------------------------
 (19) i2_I2C2_DO_SEND_ADR_READ                             0     0      0     174
                 i2_I2C2_DO_RX_EMPTY
i2_I2C2_MasterSendTxData@i2c2_master
 ---------------------------------------------------------------------------------
 (18) i2_I2C2_MasterSendTxData@i2c2_master$F3095           1     1      0      22
                                              0 COMRAM     1     1      0
 ---------------------------------------------------------------------------------
 (20) i2_I2C2_DO_RX_EMPTY                                  2     2      0     152
                                              2 COMRAM     2     2      0
                   Absolute function *
         i2_I2C2_CallbackReturnReset *
          i2_I2C2_CallbackReturnStop *
        i2_I2C2_MasterDisableRestart
i2_I2C2_MasterEnableRestart@i2c2_mas
            i2_I2C2_MasterSetCounter
 ---------------------------------------------------------------------------------
 (18) i2_I2C2_MasterSetCounter                             1     1      0      22
                                              0 COMRAM     1     1      0
 ---------------------------------------------------------------------------------
 (18) i2_I2C2_MasterEnableRestart@i2c2_master$F3116        0     0      0       0
 ---------------------------------------------------------------------------------
 (18) i2_I2C2_MasterDisableRestart                         0     0      0       0
 ---------------------------------------------------------------------------------
 (17) i2_I2C2_DO_RESET                                     0     0      0       0
              i2_I2C2_MasterResetBus
 ---------------------------------------------------------------------------------
 (18) i2_I2C2_MasterResetBus                               0     0      0       0
 ---------------------------------------------------------------------------------
 (17) i2_I2C2_DO_ADDRESS_NACK                              2     2      0     130
                                              2 COMRAM     2     2      0
                   Absolute function *
         i2_I2C2_CallbackReturnReset *
          i2_I2C2_CallbackReturnStop *
             i2_I2C2_DO_SEND_RESTART
 ---------------------------------------------------------------------------------
 (17) i2_I2C2_DO_SEND_RESTART                              0     0      0       0
 ---------------------------------------------------------------------------------
 (18) i2_I2C2_CallbackReturnStop                           2     0      2       0
                                              0 COMRAM     2     0      2
 ---------------------------------------------------------------------------------
 (18) i2_I2C2_CallbackReturnReset                          2     0      2     130
                                              0 COMRAM     2     0      2
 ---------------------------------------------------------------------------------
 (18) Absolute function(Fake)                              0     0      0       0
 ---------------------------------------------------------------------------------
 (17) i2_I2C2_ClearInterruptFlags                          0     0      0       0
        i2_I2C2_MasterClearCountFlag
         i2_I2C2_MasterClearNackFlag
         i2_I2C2_MasterClearStopFlag
        i2_I2C2_MasterIsCountFlagSet
         i2_I2C2_MasterIsNackFlagSet
         i2_I2C2_MasterIsStopFlagSet
 ---------------------------------------------------------------------------------
 (18) i2_I2C2_MasterIsStopFlagSet                          0     0      0       0
 ---------------------------------------------------------------------------------
 (18) i2_I2C2_MasterIsNackFlagSet                          0     0      0       0
 ---------------------------------------------------------------------------------
 (18) i2_I2C2_MasterIsCountFlagSet                         0     0      0       0
 ---------------------------------------------------------------------------------
 (18) i2_I2C2_MasterClearStopFlag                          0     0      0       0
 ---------------------------------------------------------------------------------
 (18) i2_I2C2_MasterClearNackFlag                          0     0      0       0
 ---------------------------------------------------------------------------------
 (18) i2_I2C2_MasterClearCountFlag                         0     0      0       0
 ---------------------------------------------------------------------------------
 (15) _UART1_Receive_ISR                                   0     0      0     178
                _UART1_RxDataHandler
 ---------------------------------------------------------------------------------
 (16) _UART1_RxDataHandler                                 0     0      0     178
            _modbusReceivedDataRS485
 ---------------------------------------------------------------------------------
 (17) _modbusReceivedDataRS485                             3     3      0     178
                                              2 COMRAM     3     3      0
                  i2_modbus_calc_crc
            i2_modbus_enable_timeout
 ---------------------------------------------------------------------------------
 (18) i2_modbus_enable_timeout                             1     1      0      22
                                              0 COMRAM     1     1      0
 ---------------------------------------------------------------------------------
 (18) i2_modbus_calc_crc                                   2     2      0      67
                                              0 COMRAM     2     2      0
 ---------------------------------------------------------------------------------
 Estimated maximum stack depth 20
 ---------------------------------------------------------------------------------

 Call Graph Graphs:

 _main (ROOT)
   _SYSTEM_Initialize
     _I2C2_Initialize
     _INTERRUPT_Initialize
     _OSCILLATOR_Initialize
     _PIN_MANAGER_Initialize
     _PMD_Initialize
     _TMR0_Initialize
       _TMR0_SetInterruptHandler
     _UART1_Initialize
       _UART1_SetErrorHandler
       _UART1_SetFramingErrorHandler
       _UART1_SetOverrunErrorHandler
       _UART1_SetRxInterruptHandler
     _UART2_Initialize
       _UART2_SetErrorHandler
       _UART2_SetFramingErrorHandler
       _UART2_SetOverrunErrorHandler
       _UART2_SetRxInterruptHandler
   _UART1_Write
     _UART1_is_tx_done
   _UART2_Write
   ___awdiv
   _make16
   _modbus_exception_rsp
     _modbus_serial_putc
       _UART1_Write
       _modbus_calc_crc
     _modbus_serial_send_start
       _RCV_OFF
       _modbus_serial_putc
     _modbus_serial_send_stop
       _RCV_ON
       _UART1_is_tx_done
       _modbus_serial_putc
   _modbus_init
     _RCV_ON
   _modbus_kbhit
     _modbus_check_timeout
       _modbus_timeout_now
         _RCV_ON
         _modbus_enable_timeout
   _modbus_read_coils_rsp
     ___awdiv (ARG)
     _modbus_serial_putc (ARG)
     _modbus_serial_send_start (ARG)
     _modbus_serial_send_stop (ARG)
   _modbus_read_discrete_input_rsp
     ___awdiv (ARG)
     _modbus_serial_putc (ARG)
     _modbus_serial_send_start (ARG)
     _modbus_serial_send_stop (ARG)
   _modbus_read_holding_registers_rsp
     _modbus_serial_putc
     _modbus_serial_send_start
     _modbus_serial_send_stop
   _modbus_write_multiple_coils_rsp
     _make16 (ARG)
     _modbus_serial_putc (ARG)
     _modbus_serial_send_start (ARG)
     _modbus_serial_send_stop (ARG)
   _modbus_write_multiple_registers_rsp
     _make16 (ARG)
     _modbus_serial_putc (ARG)
     _modbus_serial_send_start (ARG)
     _modbus_serial_send_stop (ARG)
   _modbus_write_single_coil_rsp
     _make16 (ARG)
     _modbus_serial_putc (ARG)
     _modbus_serial_send_start (ARG)
     _modbus_serial_send_stop (ARG)
   _modbus_write_single_register_rsp
     _make16 (ARG)
     _modbus_serial_putc (ARG)
     _modbus_serial_send_start (ARG)
     _modbus_serial_send_stop (ARG)
   _saveToEEPROM

 _INTERRUPT_InterruptManagerLow (ROOT)
   Absolute function(Fake) *
   _I2C2_MasterIsr *
     _I2C2_MasterFsm
       _I2C2_ClearInterruptFlags
         _I2C2_MasterClearCountFlag
         _I2C2_MasterClearNackFlag
         _I2C2_MasterClearStopFlag
         _I2C2_MasterIsCountFlagSet
         _I2C2_MasterIsNackFlagSet
         _I2C2_MasterIsStopFlagSet
       _I2C2_DO_ADDRESS_NACK *
         Absolute function(Fake) *
         _I2C2_CallbackReturnReset *
         _I2C2_CallbackReturnStop *
         _I2C2_DO_SEND_RESTART *
       _I2C2_DO_BUS_COLLISION *
         Absolute function(Fake) *
         _I2C2_CallbackReturnReset *
         _I2C2_CallbackReturnStop *
         _I2C2_DO_RESET *
           _I2C2_MasterResetBus
         _I2C2_DO_SEND_RESTART_READ *
           _I2C2_DO_SEND_ADR_READ
             _I2C2_DO_RX_EMPTY
               Absolute function(Fake) *
               _I2C2_CallbackReturnReset *
               _I2C2_CallbackReturnStop *
               _I2C2_MasterDisableRestart *
               _I2C2_MasterEnableRestart@i2c2_master$F3116 *
               _I2C2_MasterSetCounter *
             _I2C2_MasterSendTxData@i2c2_master$F3095
           _I2C2_MasterSetCounter
         _I2C2_DO_SEND_RESTART_WRITE *
         _I2C2_MasterClearIrq *
       _I2C2_DO_BUS_ERROR *
         _I2C2_MasterResetBus
       _I2C2_DO_IDLE *
       _I2C2_DO_RESET *
       _I2C2_DO_RX *
         _I2C2_DO_RX_EMPTY
         _I2C2_MasterGetRxData@i2c2_master$F3111
         _I2C2_MasterIsRxBufFull
       _I2C2_DO_RX_ACK *
         _I2C2_MasterSendAck@i2c2_master$F3136
       _I2C2_DO_RX_EMPTY *
       _I2C2_DO_RX_NACK_RESTART *
         _I2C2_MasterSendNack@i2c2_master$F3141
       _I2C2_DO_RX_NACK_STOP *
         _I2C2_DO_IDLE
         _I2C2_MasterSendNack@i2c2_master$F3141
         _I2C2_MasterStop@i2c2_master$F3126
       _I2C2_DO_SEND_ADR_READ *
       _I2C2_DO_SEND_ADR_WRITE *
         _I2C2_MasterSendTxData@i2c2_master$F3095
       _I2C2_DO_SEND_RESTART *
       _I2C2_DO_SEND_RESTART_READ *
       _I2C2_DO_SEND_RESTART_WRITE *
       _I2C2_DO_SEND_STOP *
         _I2C2_MasterGetCounter
         _I2C2_MasterSendTxData@i2c2_master$F3095
         _I2C2_MasterSetCounter
         _I2C2_MasterStop@i2c2_master$F3126
       _I2C2_DO_TX *
         Absolute function(Fake) *
         _I2C2_CallbackReturnReset *
         _I2C2_CallbackReturnStop *
         _I2C2_DO_SEND_RESTART_READ *
         _I2C2_DO_SEND_RESTART_WRITE *
         _I2C2_DO_TX_EMPTY *
           Absolute function(Fake) *
           _I2C2_CallbackReturnReset *
           _I2C2_CallbackReturnStop *
           _I2C2_MasterDisableRestart *
           _I2C2_MasterEnableRestart@i2c2_master$F3116 *
           _I2C2_MasterSetCounter *
         _I2C2_MasterIsNack *
         _I2C2_MasterIsTxBufEmpty *
         _I2C2_MasterSendTxData@i2c2_master$F3095 *
       _I2C2_DO_TX_ACK *
         _I2C2_MasterSendAck@i2c2_master$F3136
       _I2C2_DO_TX_EMPTY *
       _I2C2_MasterIsNack *
   _TMR0_ISR *
     _TMR0_CallBack
       Absolute function(Fake) *
       _TMR0_DefaultInterruptHandler *
   _UART2_Receive_ISR *
     _UART2_RxDataHandler
       _modbusReceivedDataLoRa
         i1_modbus_calc_crc
         i1_modbus_enable_timeout

 _INTERRUPT_InterruptManagerHigh (ROOT)
   Absolute function(Fake) *
   _UART1_Receive_ISR *
     _UART1_RxDataHandler
       _modbusReceivedDataRS485
         i2_modbus_calc_crc
         i2_modbus_enable_timeout
   i2_I2C2_MasterIsr *
     i2_I2C2_MasterFsm
       i2_I2C2_ClearInterruptFlags
         i2_I2C2_MasterClearCountFlag
         i2_I2C2_MasterClearNackFlag
         i2_I2C2_MasterClearStopFlag
         i2_I2C2_MasterIsCountFlagSet
         i2_I2C2_MasterIsNackFlagSet
         i2_I2C2_MasterIsStopFlagSet
       i2_I2C2_DO_ADDRESS_NACK *
         Absolute function(Fake) *
         i2_I2C2_CallbackReturnReset *
         i2_I2C2_CallbackReturnStop *
         i2_I2C2_DO_SEND_RESTART *
       i2_I2C2_DO_BUS_COLLISION *
         Absolute function(Fake) *
         i2_I2C2_CallbackReturnReset *
         i2_I2C2_CallbackReturnStop *
         i2_I2C2_DO_RESET *
           i2_I2C2_MasterResetBus
         i2_I2C2_DO_SEND_RESTART_READ *
           i2_I2C2_DO_SEND_ADR_READ
             i2_I2C2_DO_RX_EMPTY
               Absolute function(Fake) *
               i2_I2C2_CallbackReturnReset *
               i2_I2C2_CallbackReturnStop *
               i2_I2C2_MasterDisableRestart *
               i2_I2C2_MasterEnableRestart@i2c2_master$F3116 *
               i2_I2C2_MasterSetCounter *
             i2_I2C2_MasterSendTxData@i2c2_master$F3095
           i2_I2C2_MasterSetCounter
         i2_I2C2_DO_SEND_RESTART_WRITE *
         i2_I2C2_MasterClearIrq *
       i2_I2C2_DO_BUS_ERROR *
         i2_I2C2_MasterResetBus
       i2_I2C2_DO_IDLE *
       i2_I2C2_DO_RESET *
       i2_I2C2_DO_RX *
         i2_I2C2_DO_RX_EMPTY
         i2_I2C2_MasterGetRxData@i2c2_master$F3111
         i2_I2C2_MasterIsRxBufFull
       i2_I2C2_DO_RX_ACK *
         i2_I2C2_MasterSendAck@i2c2_master$F3136
       i2_I2C2_DO_RX_EMPTY *
       i2_I2C2_DO_RX_NACK_RESTART *
         i2_I2C2_MasterSendNack@i2c2_master$F3141
       i2_I2C2_DO_RX_NACK_STOP *
         i2_I2C2_DO_IDLE
         i2_I2C2_MasterSendNack@i2c2_master$F3141
         i2_I2C2_MasterStop@i2c2_master$F3126
       i2_I2C2_DO_SEND_ADR_READ *
       i2_I2C2_DO_SEND_ADR_WRITE *
         i2_I2C2_MasterSendTxData@i2c2_master$F3095
       i2_I2C2_DO_SEND_RESTART *
       i2_I2C2_DO_SEND_RESTART_READ *
       i2_I2C2_DO_SEND_RESTART_WRITE *
       i2_I2C2_DO_SEND_STOP *
         i2_I2C2_MasterGetCounter
         i2_I2C2_MasterSendTxData@i2c2_master$F3095
         i2_I2C2_MasterSetCounter
         i2_I2C2_MasterStop@i2c2_master$F3126
       i2_I2C2_DO_TX *
         Absolute function(Fake) *
         i2_I2C2_CallbackReturnReset *
         i2_I2C2_CallbackReturnStop *
         i2_I2C2_DO_SEND_RESTART_READ *
         i2_I2C2_DO_SEND_RESTART_WRITE *
         i2_I2C2_DO_TX_EMPTY *
           Absolute function(Fake) *
           i2_I2C2_CallbackReturnReset *
           i2_I2C2_CallbackReturnStop *
           i2_I2C2_MasterDisableRestart *
           i2_I2C2_MasterEnableRestart@i2c2_master$F3116 *
           i2_I2C2_MasterSetCounter *
         i2_I2C2_MasterIsNack *
         i2_I2C2_MasterIsTxBufEmpty *
         i2_I2C2_MasterSendTxData@i2c2_master$F3095 *
       i2_I2C2_DO_TX_ACK *
         i2_I2C2_MasterSendAck@i2c2_master$F3136
       i2_I2C2_DO_TX_EMPTY *
       i2_I2C2_MasterIsNack *

 Address spaces:
Name               Size   Autos  Total    Cost      Usage
BIGRAM             7FF      0     103      20       12.7%
EEDATA             100      0       0       0        0.0%
BITBANK7           100      0       0      17        0.0%
BANK7              100      0       0      18        0.0%
BITBANK6           100      0       0      15        0.0%
BANK6              100      0       0      16        0.0%
BITBANK5           100      0       0      13        0.0%
BANK5              100      0      FE      14       99.2%
BITBANK4           100      0       0      11        0.0%
BANK4              100      0      C8      12       78.1%
BITBANK3           100      0       0       9        0.0%
BANK3              100      F      8F      10       55.9%
BITBANK2           100      0       0       7        0.0%
BANK2              100      4     100       8      100.0%
BITBANK1           100      0       0       5        0.0%
BANK1              100      0     100       6      100.0%
BITBANK0            A0      0       0       3        0.0%
BANK0               A0      1      A0       4      100.0%
BITCOMRAM           5F      0       0       0        0.0%
COMRAM              5F     19      4B       1       78.9%
BITSFR_8             0      0       0     200        0.0%
SFR_8                0      0       0     200        0.0%
BITSFR_7             0      0       0     200        0.0%
SFR_7                0      0       0     200        0.0%
BITSFR_6             0      0       0     200        0.0%
SFR_6                0      0       0     200        0.0%
BITSFR_5             0      0       0     200        0.0%
SFR_5                0      0       0     200        0.0%
BITSFR_4             0      0       0     200        0.0%
SFR_4                0      0       0     200        0.0%
BITSFR_3             0      0       0     200        0.0%
SFR_3                0      0       0     200        0.0%
BITSFR_2             0      0       0     200        0.0%
SFR_2                0      0       0     200        0.0%
BITSFR_1             0      0       0     200        0.0%
SFR_1                0      0       0     200        0.0%
BITSFR               0      0       0     200        0.0%
SFR                  0      0       0     200        0.0%
STACK                0      0       0       2        0.0%
NULL                 0      0       0       0        0.0%
ABS                  0      0     540      19        0.0%
DATA                 0      0     643      21        0.0%
CODE                 0      0       0       0        0.0%


Microchip Technology PIC18 Macro Assembler V2.32 build 20210201212658 
Symbol Table                                                                                   Thu Apr 29 09:59:22 2021

                                                    _C 00CD  
                                                    _i 00C4  
                             __end_of_modbus_auchCRCHi 7FBF  
                     __size_ofi2_I2C2_DO_BUS_COLLISION 0076  
                                                    _t 0094  
                             __end_of_modbus_auchCRCLo 7EBF  
                   __size_ofi2_I2C2_MasterIsTxBufEmpty 0016  
                                _I2C2_DO_BUS_COLLISION 0D2E  
                             modbusReceivedDataRS485@c 0034  
                           ?i2_I2C2_MasterIsTxBufEmpty 0030  
                              _I2C2_MasterIsTxBufEmpty 19C0  
                                         ___awdiv@sign 0381  
                                                   _ff 00CC  
                                                   _kl 00D5  
                                                   _ky 0098  
                              i1_modbus_enable_timeout 18CE  
                              modbusReceivedDataLoRa@c 003E  
                                 _I2C2_DO_ADDRESS_NACK 0F22  
                                 ?_I2C2_MasterClearIrq 0030  
                                  _I2C2_MasterResetBus 1C44  
                                                  l210 14D8  
                                                  l410 11CE  
                                                  l236 1C24  
                                                  l413 11FE  
                                                  l270 1AF0  
                                                  l510 194C  
                                                  l407 11BE  
                                                  l513 180E  
                                                  l417 1218  
                                                  l450 1C06  
                                                  l507 1830  
                                                  l419 121A  
                                                  l453 1C1A  
                                                  l381 0BA0  
                                                  l621 141E  
                                                  l447 1C10  
                                                  l456 1BFC  
                                                  l624 144E  
                                                  l392 19A8  
                                                  l625 1454  
                                                  l671 1BF2  
                                                  l665 1BE8  
                                                  l674 1BD4  
                                                  l594 0CAC  
                                                  l850 12C6  
                                                  l835 1872  
                                                  l668 1BDE  
                                                  l862 0D2C  
                                                  l775 0878  
                                                  l839 140A  
                                                  l871 1582  
                                                  l856 1270  
                                                  l874 154A  
                                                  l939 17EA  
                                                  l892 15F2  
                                                  l895 15BA  
                                                  _RB3 01FE5B  
                                  ?_I2C2_MasterSendAck 0030  
                                                  _dem 000A  
                                                  _key 01DC  
                                                  _set 00FD  
                       __end_ofi2_I2C2_DO_RX_NACK_STOP 1BB2  
                     __end_ofi2_I2C2_DO_SEND_ADR_WRITE 1A5A  
                              __size_of_PMD_Initialize 0024  
                                   i2I2C2_DO_TX@dataTx 0036  
                                    ?i2_I2C2_MasterFsm 0030  
                                    ?i2_I2C2_MasterIsr 0030  
                                                  tosl 003FFD  
                                                  wreg 003FE8  
                          ?i2_I2C2_ClearInterruptFlags 0030  
                             _I2C2_ClearInterruptFlags 131C  
                    __end_of_I2C2_MasterIsCountFlagSet 1A44  
                                 _modbus_exception_rsp 17C8  
                            ??_I2C2_DO_RX_NACK_RESTART 003C  
                   __size_of_I2C2_DO_SEND_RESTART_READ 0018  
                                   ??i2_I2C2_MasterFsm 0038  
                                   ??i2_I2C2_MasterIsr 0038  
                     __end_of_I2C2_CallbackReturnReset 1B96  
                           ?_I2C2_DO_SEND_RESTART_READ 0030  
                modbus_read_discrete_input_rsp@address 0389  
                                                 l1050 18B0  
                                                 l1044 1C84  
                                                 l1060 1498  
                                                 l1054 11A2  
                                                 l1063 1660  
                                                 l1071 174E  
                                                 l1047 1C7C  
                                                 l1055 11B8  
                                                 l1080 0EA6  
                                                 l1320 0F00  
                                                 l1066 1992  
                                                 l2132 061E  
                                                 l1431 1512  
                                                 l1416 1D40  
                                                 l1622 1852  
                              ?_I2C2_DO_SEND_ADR_WRITE 0030  
                                                 l7201 1204  
                                                 l7211 164C  
                                                 l7203 1C76  
                                                 l7213 1C1C  
                                                 l7221 1C12  
                                                 l7301 0B62  
                                                 l7205 1898  
                                                 l7311 07C4  
                                                 l7215 1BF4  
                                                 l7303 0B70  
                                                 l7223 1BCC  
                                                 l7207 1630  
                                                 l7231 1982  
                                                 l7321 0846  
                                                 l7313 07E8  
                                                 l7217 1C08  
                                                 l7305 0B7E  
                                                 l7225 1BE0  
                                                 l7209 1638  
                                                 l7233 198A  
                                                 l7401 1746  
                                                 l7241 1176  
                                                 l7331 1936  
                                                 l7323 084C  
                                                 l7315 0840  
                                                 l7219 1BFE  
                                                 l7307 0B9C  
                                                 l7227 1BD6  
                                                 l7235 1C7E  
                                                 l7411 0E4C  
                                                 l7403 0E2C  
                                                 l7251 11AE  
                                                 l7243 1188  
                                                 l7325 084E  
                                                 l7317 0842  
                                                 l7309 17EC  
                                                 l7261 14C6  
                                                 l7253 149A  
                                                 l7229 1BEA  
                                                 l7341 0C46  
                                                 l7333 0C2A  
                                                 l7421 0EA0  
                                                 l7413 0E58  
                                                 l7405 0E3E  
                                                 l7245 1196  
                                                 l7237 1152  
                                                 l7501 1220  
                                                 l7327 0850  
                                                 l7319 0844  
                                                 l7263 14D4  
                                                 l7255 14A6  
                                                 l7271 0B24  
                                                 l7351 0C5A  
                                                 l7343 0C4A  
                                                 l7335 0C2E  
                                                 l7431 181C  
                                                 l7423 0EA2  
                                                 l7407 0E42  
                                                 l7239 1166  
                                                 l7247 119E  
                                                 l7511 125A  
                                                 l7503 1236  
                                                 l7265 1ADE  
                                                 l7329 0852  
                                                 l7257 14C0  
                                                 l7281 0B3A  
                                                 l7273 0B2A  
                                                 l7361 0C98  
                                                 l7353 0C5E  
                                                 l7345 0C4E  
                                                 l7337 0C3C  
                                                 l7433 1820  
                                                 l7425 1810  
                                                 l7441 1410  
                                                 l7193 11C0  
                                                 l7417 0E88  
                                                 l7409 0E46  
                                                 l7249 11A6  
                                                 l7513 126C  
                                                 l7505 1240  
                                                 l7521 0D08  
                                                 l7371 1832  
                                                 l7259 14C4  
                                                 l7291 0B4E  
                                                 l7283 0B3E  
                                                 l7275 0B2E  
                                                 l7267 0B12  
                                                 l7363 0C9C  
                                                 l7355 0C62  
                                                 l7347 0C52  
                                                 l7339 0C42  
                                                 l7435 1824  
                                                 l7427 1814  
                                                 l7443 1420  
                                                 l7195 11D0  
                                                 l7419 0E9C  
                                                 l7451 1858  
                                                 l7507 1252  
                                                 l7523 0D12  
                                                 l7515 0CB2  
                                                 l7531 1518  
                                                 l7373 1850  
                                                 l7293 0B52  
                                                 l7285 0B42  
                                                 l7277 0B32  
                                                 l7269 0B16  
                                                 l7365 0CA0  
                                                 l7357 0C66  
                                                 l7349 0C56  
                                                 l7437 1828  
                                                 l7429 1818  
                                                 l7445 1426  
                                                 l7541 14DE  
                                                 l7189 1994  
                                                 l7197 11D6  
                                                 l7461 186C  
                                                 l7453 185A  
                                                 l7381 1476  
                                                 l7509 1258  
                                                 l7525 0D16  
                                                 l7517 0CC8  
                                                 l7533 15C0  
                                                 l7295 0B56  
                                                 l7287 0B46  
                                                 l7279 0B36  
                                                 l7367 0CA4  
                                                 l7359 0C6A  
                                                 l7439 182C  
                                                 l7447 1436  
                                                 l7551 0552  
                                                 l7543 150A  
                                                 l7199 11E6  
                                                 l7391 172E  
                                                 l7463 186E  
                                                 l7455 1860  
                                                 l7383 148C  
                                                 l7471 13D6  
                                                 l7527 0D28  
                                                 l7519 0CD2  
                                                 l7535 1588  
                                                 l7297 0B5A  
                                                 l7289 0B4A  
                                                 l7369 0CA8  
                                                 l7561 057E  
                                                 l7553 055A  
                                                 l7393 1734  
                                                 l7537 17CC  
                                                 l7465 1870  
                                                 l7457 1864  
                                                 l7449 1854  
                                                 l7385 1490  
                                                 l7377 1456  
                                                 l7481 13FC  
                                                 l7529 1550  
                                                 l7801 0F02  
                                                 l7299 0B5E  
                                                 l7571 05C0  
                                                 l7563 0588  
                                                 l7555 0560  
                                                 l7547 053C  
                                                 l7539 14DE  
                                                 l7395 1738  
                                                 l7459 1868  
                                                 l7387 1494  
                                                 l7379 1466  
                                                 l7483 1408  
                                                 l7467 13C0  
                                                 l7491 1296  
                                                 l7803 0F04  
                                                 l7581 05F4  
                                                 l7573 05C8  
                                                 l7565 059C  
                                                 l7557 0570  
                                                 l7549 0542  
                                                 l7397 173A  
                                                 l7389 172A  
                                                 l7477 13DC  
                                                 l7469 13C4  
                                                 l7493 12A8  
                                                 l7805 0F0A  
                                                 l7575 05E0  
                                                 l7567 05A6  
                                                 l7583 05FC  
                                                 l7559 0578  
                                                 l7399 173E  
                                                 l7479 13EE  
                                                 l7495 12AE  
                                                 l7487 1276  
                                                 l7807 0F10  
                                                 l7751 0EA8  
                                                 l7585 060E  
                                                 l7577 05E8  
                                                 l7569 05B0  
                                                 l7497 12B0  
                                                 l7489 128C  
                                                 l7761 0EB6  
                                                 l7753 0EAC  
                                                 l7587 0616  
                                                 l7579 05EC  
                                                 l7499 12C2  
                                                 l7771 0EC0  
                                                 l7763 0EB8  
                                                 l7755 0EAE  
                                                 l7781 0ECA  
                                                 l7773 0EC2  
                                                 l7765 0EBA  
                                                 l7757 0EB0  
                                                 l7749 0EA8  
                                                 l7791 0EDE  
                                                 l7783 0ECC  
                                                 l7775 0EC4  
                                                 l7767 0EBC  
                                                 l7759 0EB2  
                                                 l7793 0EE0  
                                                 l7785 0ED0  
                                                 l7777 0EC6  
                                                 l7769 0EBE  
                                                 l7795 0EE2  
                                                 l7787 0ED2  
                                                 l7779 0EC8  
                                                 l7797 0EFC  
                                                 l7789 0EDC  
                                                 l7799 0EFE  
                                                 STR_1 7FF3  
                                                 STR_2 7FE9  
                                                 STR_3 7FFC  
                                                 _LATA 003FBA  
                                                 _LATB 003FBB  
                                                 _LATC 003FBC  
                                                 _LATD 003FBD  
                                                 _LATE 003FBE  
                                                 u3500 1176  
                                                 u3501 1172  
                                                 u3430 19A6  
                                                 u3510 1188  
                                                 u3431 19A0  
                                                 u3511 1184  
                                                 u3440 11E6  
                                                 u3520 1466  
                                                 u3600 13EE  
                                                 u3441 11E2  
                                                 u3521 1462  
                                                 u3601 13EA  
                                                 u3450 11FE  
                                                 u3530 1476  
                                                 u3610 12C2  
                                                 u3451 11FA  
                                                 u3531 1472  
                                                 u3611 12BE  
                                                 u3436 19A8  
                                                 u3460 1218  
                                                 u3540 148C  
                                                 u3620 126C  
                                                 u3461 1214  
                                                 u3541 1488  
                                                 u3621 1268  
                                                 u3550 0E84  
                                                 u3470 18AC  
                                                 u3630 0D28  
                                                 u3551 0E80  
                                                 u3471 18A6  
                                                 u3631 0D24  
                                                 u3640 0552  
                                                 u3560 0E9C  
                                                 u3480 18AE  
                                                 u3641 054E  
                                                 u3561 0E98  
                                                 u3570 1436  
                                                 u3650 0570  
                                                 u3490 1166  
                                                 u3571 1432  
                                                 u3651 056C  
                                                 u3491 1162  
                                                 u3580 144E  
                                                 u3660 059C  
                                                 _PMD0 0039C0  
                                                 u3581 144A  
                                                 u3661 0598  
                                                 _PMD1 0039C1  
                                                 u3670 05C0  
                                                 u3590 13D6  
                                                 _PMD2 0039C2  
                                                 u3671 05BC  
                                                 u3591 13D2  
                                                 _PMD3 0039C3  
                                                 u3680 05E0  
                                                 _PMD4 0039C4  
                                                 u3681 05DC  
                                                 _PMD5 0039C5  
                                                 u3690 060E  
                                                 _PMD6 0039C6  
                                                 u3691 060A  
                                                 _PMD7 0039C7  
                                                 u3877 0EEE  
                                                 _WPUA 003A41  
                                                 _WPUB 003A51  
                                                 _WPUC 003A61  
                                                 _WPUD 003A71  
                                                 _WPUE 003A81  
                                 ?_I2C2_MasterSendNack 0030  
                       __size_of_I2C2_DO_SEND_ADR_READ 0038  
                                      __end_of_RCV_OFF 1C86  
                                ?_I2C2_MasterGetRxData 0030  
                        __end_of_I2C2_DO_SEND_ADR_READ 162C  
                       _I2C2_DO_RX_NACK_STOP$intlevel1 1958  
                                                 _flag 00CB  
                                                 _tErr 0090  
                                 ?_I2C2_MasterResetBus 0030  
                                                 _main 0EA8  
                                                 _wait 00D6  
                                                 fsr1h 003FE2  
                                                 fsr2h 003FDA  
                                                 indf2 003FDF  
                                                 fsr1l 003FE1  
                                                 fsr2l 003FD9  
                                 ??_I2C2_MasterSendAck 003C  
                                        ?i2_I2C2_DO_RX 0030  
                                        ?i2_I2C2_DO_TX 0030  
                            __size_of_I2C2_DO_RX_EMPTY 00AE  
                                                 prodh 003FF4  
                                                 prodl 003FF3  
                                                 start 001C  
                            __size_of_I2C2_DO_TX_EMPTY 0088  
                        ??_UART2_SetRxInterruptHandler 00FF  
                                     ??_I2C2_MasterFsm 0044  
                                     ??_I2C2_MasterIsr 0044  
                     __size_ofi2_I2C2_MasterSetCounter 000A  
                                _I2C2_MasterSetCounter 1C3A  
                                         ___param_bank 000000  
                           ??_I2C2_MasterIsNackFlagSet 003C  
                                        _transfer_data 0100  
                             _I2C2_DO_TX_ACK$intlevel1 1B34  
                             ??i2_I2C2_DO_SEND_RESTART 0030  
                                    _rfSettingResponse 0190  
                              __end_of_TMR0_Initialize 14DA  
                     __size_of_modbus_serial_send_stop 007C  
                          ??_I2C2_MasterDisableRestart 003C  
                       ??_TMR0_DefaultInterruptHandler 003C  
                                ?_I2C2_DO_ADDRESS_NACK 0030  
                    __end_ofi2_I2C2_MasterIsTxBufEmpty 1A70  
                       __size_of_OSCILLATOR_Initialize 0018  
                        __end_of_OSCILLATOR_Initialize 194E  
                                ??_I2C2_MasterClearIrq 003C  
                          ?_I2C2_DO_SEND_RESTART_WRITE 0030  
                                                ?_main 0030  
                                      __end_of___awdiv 0620  
                                                _DELTA 7FE5  
                                      ___awdiv@divisor 02FC  
                                                _U1P1H 003DED  
                                                _U1P2H 003DEF  
                                                _U1P1L 003DEC  
                                                _U1P3H 003DF1  
                                                _U1P2L 003DEE  
                                                _U1P3L 003DF0  
                                                _U2P1L 003DD4  
                                                _U2P2L 003DD6  
                                                _U2P3L 003DD8  
                                                _U1UIR 003DF8  
                                                i1l233 131A  
                                                _U1RXB 003DE8  
                                                i1l228 1B04  
                                                i1l239 1D42  
                                                _U2UIR 003DE0  
                                                _U1TXB 003DEA  
                                                _U2RXB 003DD0  
                                                i1l292 034E  
                                                i1l285 02D2  
                                                i1l630 1776  
                                                i1l288 032E  
                                                _U2TXB 003DD2  
                                                i1l628 1762  
                                                i1l637 1C2E  
                                                i2l430 17B2  
                                                i2l432 17C6  
                                                i2l280 07AA  
                                                i2l435 1C74  
                                                i2l276 078A  
                                      ___awdiv@counter 0380  
                           __end_of_modbus_serial_putc 1994  
                                                _OSCEN 0039DD  
                                                _TMR0H 003FB7  
                                                _TMR0L 003FB6  
                               ?_I2C2_MasterGetCounter 0030  
                                                _TRISA 003FC2  
                                                _TRISB 003FC3  
                                                _TRISC 003FC4  
                                                _TRISE 003FC6  
                    __size_of_TMR0_SetInterruptHandler 000A  
                                ?_modbus_exception_rsp 0386  
                             ?i2_I2C2_DO_SEND_ADR_READ 0030  
                            ?_TMR0_SetInterruptHandler 02FA  
                                       i2_I2C2_DO_IDLE 1BC0  
                                     __end_of_TMR0_ISR 1B06  
                       __end_of_I2C2_DO_SEND_ADR_WRITE 1894  
    __end_ofi2_I2C2_MasterSendTxData@i2c2_master$F3095 1C58  
   __size_ofi2_I2C2_MasterSendTxData@i2c2_master$F3095 000A  
      __end_of_I2C2_MasterSendTxData@i2c2_master$F3095 1C3A  
     __size_of_I2C2_MasterSendTxData@i2c2_master$F3095 000A  
          ??i2_I2C2_MasterSendTxData@i2c2_master$F3095 0030  
           ?i2_I2C2_MasterSendTxData@i2c2_master$F3095 0030  
            i2_I2C2_MasterSendTxData@i2c2_master$F3095 1C4E  
              _I2C2_MasterSendTxData@i2c2_master$F3095 1C30  
                                                _check 01EC  
                             ?_I2C2_CallbackReturnStop 003C  
                                                _coils 0020  
                                                _count 0021  
                                                _index 000D  
                                      _I2C2_DO_TX$3425 0040  
                       fp_i2_I2C2_DO_SEND_RESTART_READ 0000  
                    __end_of_I2C2_DO_SEND_RESTART_READ 197E  
                                ??_I2C2_MasterSendNack 003C  
                                                pclath 003FFA  
                                                tablat 003FF5  
                                 _I2C2_DO_RX_NACK_STOP 194E  
                                ??_I2C2_MasterResetBus 003C  
                              fp__I2C2_DO_SEND_RESTART 0000  
                                       _data_read_coil 002F  
                                                nvmcon 0039E5  
                                                status 003FD8  
                  __end_of_UART1_SetRxInterruptHandler 1BFE  
                          _UART1_SetRxInterruptHandler 1BF4  
                                       ??i2_I2C2_DO_RX 0030  
                                       ??i2_I2C2_DO_TX 0032  
                                         ??_I2C2_DO_RX 0040  
                                         ??_I2C2_DO_TX 003E  
                          _I2C2_DO_SEND_STOP$intlevel1 169E  
                     _UART1_DefaultFramingErrorHandler 000000  
                       ?_INTERRUPT_InterruptManagerLow 0030  
                               _I2C2_DO_IDLE$intlevel1 19B4  
                          ?i2_I2C2_MasterIsStopFlagSet 0030  
                             _I2C2_MasterIsStopFlagSet 1A02  
                             ??_modbusReceivedDataLoRa 003E  
                         ??i2_I2C2_MasterClearNackFlag 0030  
                       ??_UART2_SetOverrunErrorHandler 00FF  
                                     ?_modbus_calc_crc 0030  
                            ??_I2C2_MasterIsTxBufEmpty 003C  
                                    ??_I2C2_MasterStop 003C  
                                    ??_I2C2_Initialize 00FF  
                                      __initialization 0620  
                                         ?_modbus_init 0030  
                               ?_I2C2_DO_BUS_COLLISION 0030  
                           __end_of_modbus_timeout_now 11BA  
                            ??i1_modbus_enable_timeout 003C  
                                         __end_of_main 0F22  
                         modbus_serial_send_start@func 02FD  
                                  i2_I2C2_DO_BUS_ERROR 1B4C  
                         __end_of_modbus_check_timeout 149A  
                                         ?_UART1_Write 0030  
                             modbus_exception_rsp@func 0386  
                                         ?_UART2_Write 0030  
                                               ??_main 038D  
                     __size_ofi2_modbus_enable_timeout 001A  
                                _modbus_enable_timeout 1894  
                               __end_ofi2_I2C2_DO_IDLE 1BCC  
                                        __activetblptr 000002  
                    __size_of_modbus_serial_send_start 002A  
                            ?_modbus_serial_send_start 02FD  
                              i2_I2C2_MasterGetCounter 1CF0  
                 __size_of_UART2_SetRxInterruptHandler 000A  
                                   __end_of_I2C2_DO_RX 09D0  
                                   __end_of_I2C2_DO_TX 0150  
                                        _sum_error_i2c 002C  
                          __end_of_UART2_RxDataHandler 1C30  
                                     _UART1_Initialize 0B12  
                                  i2_I2C2_DO_SEND_STOP 1778  
                              i2I2C2_DO_TX@retFsmState 0037  
                                            ??_RCV_OFF 00FF  
                         ??i2_I2C2_MasterClearStopFlag 0030  
                              ??i2_I2C2_MasterClearIrq 0030  
                                 ?i2_I2C2_DO_BUS_ERROR 0030  
                                     ___awdiv@dividend 02FA  
                             i2_I2C2_DO_SEND_ADR_WRITE 1A44  
                         ?i2_I2C2_MasterDisableRestart 0030  
                            _I2C2_MasterDisableRestart 1CD2  
                                               _ANSELA 003A40  
                                               _ANSELB 003A50  
                                               _ANSELC 003A60  
                                               _ANSELD 003A70  
                                               _ANSELE 003A80  
         modbus_write_multiple_coils_rsp@start_address 0387  
                                               _T0CON0 003FB8  
                                               _T0CON1 003FB9  
                          fp_i2_I2C2_DO_SEND_ADR_WRITE 0000  
                                               _RB1I2C 003A5A  
                               ??_I2C2_MasterGetRxData 003C  
                                               _RB2I2C 003A5B  
                                               _RD0I2C 003A7A  
                                               _U1CON0 003DF2  
                                               _U1CON1 003DF3  
                                               _U1CON2 003DF4  
                                               _RC3I2C 003A6A  
                                               _RD1I2C 003A7B  
                  __size_ofi2_I2C2_MasterClearNackFlag 0006  
                                               _RC4I2C 003A6B  
                                               _U1BRGH 003DF6  
                                               _U1FIFO 003DF7  
                                               _U2CON0 003DDA  
                                               _U2CON1 003DDB  
                                               _U1BRGL 003DF5  
                                               _U2CON2 003DDC  
                                               _U2BRGH 003DDE  
                                               _U2FIFO 003DDF  
                                               _U2BRGL 003DDD  
                                               _RB1PPS 003A09  
                      _I2C2_DO_SEND_ADR_READ$intlevel1 15FE  
                                               _RB2PPS 003A0A  
                                ?_I2C2_DO_RX_NACK_STOP 0030  
                          ??i2_I2C2_DO_RX_NACK_RESTART 0030  
                                               i1l1050 18E6  
                                               _RB6PPS 003A0E  
                                  _events_coils_output 00D4  
                                               i1l1063 1692  
                                               _ODCONA 003A42  
                                               _ODCONB 003A52  
                                               i1l1099 053A  
                                               _ODCONC 003A62  
                                               _RC6PPS 003A16  
                                               _ODCOND 003A72  
                                               _ODCONE 003A82  
                                               i1l1703 014E  
                                               i1l1720 09CE  
                                               i1l1721 097A  
                                               i1l5011 1CCC  
                                               i1l5013 1CD2  
                                               i1l1821 1CB2  
                                               i1l1830 1CD0  
                                               i1l5015 1BA0  
                                               i1l1815 1CCA  
                                               i1l1824 1C42  
                                               i1l1728 0C28  
                                               i1l1752 1B78  
                                               i1l1833 1CD6  
                                               i1l5009 1C3C  
                                               i1l5121 161A  
                                               i1l1737 0926  
                                               i1l5041 0890  
                                               i2l1050 1934  
                                               i1l1818 1C38  
                                               i1l1842 1CC4  
                                               i1l1762 1B3A  
                                               i1l1690 19BE  
                                               i1l1746 197C  
                                               i1l5019 1B92  
                                               i1l1827 1C4C  
                                               i1l1851 1A00  
                                               i1l5123 161E  
                                               i1l5211 0BAC  
                                               i1l5051 08A0  
                                               i1l5203 1B84  
                                               i1l1771 191A  
                                               i1l1675 1B4A  
                                               i1l1860 1A42  
                                               i1l1836 1CB8  
                                               i1l1756 16C4  
                                               i1l1845 1CBE  
                                               i1l5125 1628  
                                               i1l5117 15FE  
                                               i1l5221 0BC6  
                                               i1l5213 0BB4  
                                               i1l5061 08C6  
                                               i1l5053 08A8  
                                               i1l5045 0896  
                                               i1l5037 0884  
                                               i1l1749 1B86  
                                               i1l1765 1964  
                                               i1l6101 1082  
                                               i1l1854 19D4  
                                               i1l1694 162A  
                                               i1l1790 1900  
                                               i2l1063 16F6  
                                               i1l1863 1A2C  
                                               i1l1687 136C  
                                               i1l1839 19EA  
                                               i1l5207 19C0  
                                               i1l5119 1608  
                                               i1l5215 0BB8  
                                               i1l5047 089A  
                                               i1l5039 088C  
                                               i1l1759 1B28  
                                               i1l1679 10E6  
                                               i1l6103 1098  
                                               i1l1872 1CE2  
                                               i1l1768 1B16  
                                               i1l1784 0DAC  
                                               i1l1857 1A16  
                                               i1l5129 1C44  
                                               i1l5073 1C32  
                                               i1l1697 1892  
                                               i1l5225 0BCC  
                                               i1l5233 0BD6  
                                               i1l5057 08AE  
                                               i1l1777 0F98  
                                               i1l6105 10AC  
                                               i1l6121 1AF6  
                                               i2l1090 0454  
                                               i1l1866 1CDC  
                                               i1l5171 1A2E  
                                               i1l5243 1CC6  
                                               i1l5251 1CB4  
                                               i1l5227 0BD0  
                                               i1l5219 0BBE  
                                               i1l5059 08C2  
                                               i1l5067 08CC  
                                               i1l6107 10B2  
                                               i1l6123 1AFA  
                                               i1l1796 1BA2  
                                               i1l1869 1CE8  
                                               i1l5181 1CD8  
                                               i1l5165 1C86  
                                               i1l5253 1CAE  
                                               i1l5261 190C  
                                               i1l6125 1B00  
                                               i1l1886 1C8C  
                                               i1l5175 1CE4  
                                               i1l5183 1A18  
                                               i1l1799 1B94  
                                               i1l5239 19EC  
                                               i1l5167 19D6  
                                               i1l5191 19B8  
                                               i1l5247 1B76  
                                               i1l5263 1910  
                                               i1l6119 1AF2  
                                               i1l5271 18D0  
                                               i1l6047 1C26  
                                               i1l5177 1A02  
                                               i1l5257 1CC0  
                                               i1l5193 19BC  
                                               i1l5521 187E  
                                               i1l5601 094C  
                                               i1l5265 1914  
                                               i1l6049 1C2A  
                                               i1l6161 1760  
                                               i1l6401 0310  
                                               i1l5187 1CDE  
                                               i1l5531 1330  
                                               i1l5259 1CBA  
                                               i1l5523 1888  
                                               i1l5603 0962  
                                               i1l5267 1918  
                                               i1l5275 1664  
                                               i1l6163 1770  
                                               i1l6403 033C  
                                               i1l5533 1338  
                                               i1l5189 19B4  
                                               i1l5525 1890  
                                               i1l5541 002A  
                                               i1l5621 09CC  
                                               i1l5605 0992  
                                               i1l5197 1970  
                                               i1l5277 166A  
                                               i1l5461 0488  
                                               i1l6165 1772  
                                               i2l1703 0274  
                                               i1l5535 134C  
                                               i1l5607 09A4  
                                               i1l5615 09AE  
                                               i1l5199 1978  
                                               i1l5631 16C2  
                                               i1l5703 18F2  
                                               i1l5279 167E  
                                               i1l5463 0498  
                                               i1l5471 04BE  
                                               i1l5455 0456  
                                               i1l6159 1750  
                                               i2l1720 0B10  
                                               i2l1721 0ABC  
                                               i1l5537 1354  
                                               i1l5529 131C  
                                               i1l5641 1B34  
                                               i1l5553 0052  
                                               i1l5545 0042  
                                               i1l5561 00B6  
                                               i1l5617 09B4  
                                               i1l5625 169E  
                                               i1l5705 18F6  
                                               i1l5481 04EE  
                                               i1l5473 04CE  
                                               i1l5465 04A4  
                                               i1l5457 0460  
                                               i1l5539 1368  
                                               i1l5643 1B38  
                                               i1l5571 010C  
                                               i1l5563 00CA  
                                               i1l5619 09C6  
                                               i1l5627 16A2  
                                               i1l5635 1B22  
                                               i1l5707 18FA  
                                               i1l6099 107E  
                                               i1l5491 0522  
                                               i1l5475 04D0  
                                               i1l5483 04F0  
                                               i1l5467 04A6  
                                               i1l5459 0476  
                                               i2l1821 1CF4  
                                               i1l5581 0146  
                                               i1l5573 0124  
                                               i1l5565 00E0  
                                               i1l5549 004A  
                                               i1l5629 16B6  
                                               i1l5637 1B26  
                                               i1l5653 1B10  
                                               i1l5661 0F36  
                                               i1l5709 18FE  
                                               i1l5493 0528  
                                               i1l5485 0502  
                                               i1l5477 04D4  
                                               i1l5469 04B6  
                                               i2l1830 1D12  
                                               i2l5023 1D38  
                                               i2l5031 1C5A  
                                               i2l5111 1C50  
                                               i2l1815 1D0C  
                                               i1l5575 0134  
                                               i1l5567 00F8  
                                               i1l5559 0058  
                                               i1l5647 1958  
                                               i1l5655 1B14  
                                               i1l5663 0F3C  
                                               i1l5495 0530  
                                               i1l5487 050A  
                                               i1l5479 04DC  
                                               i1l6391 02B2  
                                               i2l1824 1C60  
                                               i2l1728 0E2A  
                                               i2l1752 1D2E  
                                               i2l1833 1D18  
                                               i2l5033 1D0E  
                                               i2l1737 0A72  
                                               i2l5105 0A18  
                                               i1l5577 013C  
                                               i1l5569 0108  
                                               i1l5649 1960  
                                               i1l5673 0F4A  
                                               i1l5681 0D3C  
                                               i1l6297 1B46  
                                               i1l5921 12CE  
                                               i1l5497 0536  
                                               i1l5489 050E  
                                               i1l6393 02E0  
                                               i2l1818 1C56  
                                               i2l1842 1D06  
                                               i2l1762 1CA4  
                                               i2l1690 1BCA  
                                               i2l1746 1BBE  
                                               i2l5027 1D34  
                                               i2l1827 1C6A  
                                               i2l5035 1D14  
                                               i2l1851 1A9A  
                                               i2l5131 16F8  
                                               i2l1771 1B6A  
                                               i2l1675 1CEE  
                                               i1l5579 0140  
                                               i1l5587 014C  
                                               i1l5595 0932  
                                               i1l5667 0F44  
                                               i1l5659 0F2C  
                                               i1l8171 0D96  
                                               i1l5691 0D56  
                                               i1l5683 0D46  
                                               i1l5923 12E2  
                                               i1l6395 02EE  
                                               i1l6387 0294  
                                               i2l1860 1ADC  
                                               i2l1836 1CFA  
                                               i2l1756 179E  
                                               i2l1845 1D00  
                                               i2l5133 1702  
                                               i2l1749 1D32  
                                               i2l1765 1BB0  
                                               i1l5597 0946  
                                               i1l8173 0F82  
                                               i1l5925 12EA  
                                               i1l5917 12C8  
                                               i1l6397 02F2  
                                               i1l6389 02A4  
                                               i2l1854 1A6E  
                                               i2l1694 1724  
                                               i2l1790 1B5A  
                                               i2l1863 1AC6  
                                               i2l1687 13BE  
                                               i2l5143 1C62  
                                               i2l1839 1A84  
                                               i2l5135 1714  
                                               i2l5311 0DD2  
                                               i2l5303 0DC0  
                                               i2l1759 1C9C  
                                               i2l1679 1150  
                                               i2l6111 10EC  
                                               i1l8175 0900  
                                               i1l5687 0D4E  
                                               i1l5679 0D38  
                                               i1l5927 12EC  
                                               i1l5919 12CC  
                                               i1l6399 0302  
                                               i2l1872 1D24  
                                               i2l1768 1C94  
                                               i2l1784 100E  
                                               i2l1857 1AB0  
                                               i2l5137 1718  
                                               i2l1697 1A58  
                                               i2l5305 0DC8  
                                               i2l1777 107C  
                                               i2l6113 1102  
                                               i1l8177 0C0A  
                                               i1l5697 0D5E  
                                               i1l5929 1300  
                                               i2l1866 1D1E  
                                               i2l5411 038E  
                                               i2l5403 036E  
                                               i2l6131 17C0  
                                               i2l5139 1722  
                                               i2l5091 09F4  
                                               i2l5083 09E2  
                                               i2l5075 09D0  
                                               i2l5323 1BB2  
                                               i2l6115 1116  
                                               i1l8179 0090  
                                               i2l1796 1D3A  
                                               i2l5421 03B6  
                                               i2l5413 039E  
                                               i2l5405 0372  
                                               i2l6133 17C2  
                                               i2l1869 1D2A  
                                               i2l5309 0DCE  
                                               i2l5317 0DD8  
                                               i2l5085 09E6  
                                               i2l5077 09D8  
                                               i2l5325 1BBA  
                                               i2l5333 1D2C  
                                               i2l5341 1B64  
                                               i2l6117 111C  
                                               i2l6109 10E8  
                                               i2l1886 1CAC  
                                               i2l5431 03F4  
                                               i2l5415 03A2  
                                               i2l5423 03C2  
                                               i2l5407 0378  
                                               i2l6127 17A0  
                                               i2l1799 1D36  
                                               i2l5351 1CF0  
                                               i2l5095 09FA  
                                               i2l5079 09DC  
                                               i2l5343 1B68  
                                               i2l5281 16C8  
                                               i2l5273 191E  
                                               i2l5441 0442  
                                               i2l5433 040A  
                                               i2l5425 03D2  
                                               i2l5417 03AC  
                                               i2l5409 037A  
                                               i2l6129 17B0  
                                               i2l5361 1D02  
                                               i2l5097 0A0E  
                                               i2l5089 09EC  
                                               i2l5329 1D30  
                                               i2l5337 1B5C  
                                               _INLVLA 003A44  
                                               _INLVLB 003A54  
                                               i2l5283 16CE  
                                               i2l5443 044A  
                                               i2l5435 0412  
                                               i2l5427 03DC  
                                               i2l5419 03AE  
                                               i2l5347 1D08  
                                               i2l5363 1CFC  
                                               i2l5355 1CF6  
                                               i2l5291 1BC8  
                                               i2l5099 0A12  
                                               i2l5339 1B60  
                                               _INLVLC 003A64  
                                               _INLVLD 003A74  
                                               i2l5285 16E2  
                                               i2l5445 0450  
                                               i2l5437 042E  
                                               i2l5429 03E2  
                                               i2l5381 1AB2  
                                               i2l5373 1A9C  
                                               i2l5365 1A86  
                                               i2l5357 1A70  
                                               _INLVLE 003A84  
                                               i2l5439 043C  
                                               i2l5391 1CA6  
                                               i2l5287 1BC0  
                                               i2l5295 0DAE  
                                               i2l6343 1CEA  
                                               i2l5385 1D1A  
                                               i2l5377 1AC8  
                                               i2l5721 13A6  
                                               i2l5713 136E  
                                               i2l5369 1A5A  
                                               i2l5289 1BC4  
                                               i2l5297 0DB6  
                                               i2l5387 1D26  
                                               i2l5723 13BA  
                                               i2l5715 1382  
                                               i2l5811 0B08  
                                               i2l5299 0DBA  
                                               i2l6371 0714  
                                               i2l5389 1D20  
                                               i2l5717 138A  
                                               i2l5725 1A44  
                                               i2l5741 0170  
                                               i2l5733 0150  
                                               i2l5813 0B0E  
                                               i2l5821 1790  
                                               i2l5901 1B58  
                                               i2l6381 076C  
                                               i2l6373 0724  
                                               i2l5719 139E  
                                               i2l5727 1A4E  
                                               i2l5751 017E  
                                               i2l5807 0AF0  
                                               i2l5823 179C  
                                               i2l6383 0798  
                                               i2l6375 0732  
                                               i2l5833 1C9E  
                                               i2l5729 1A56  
                                               i2l5761 022E  
                                               i2l5745 0178  
                                               i2l5737 0168  
                                               i2l5753 01DC  
                                               i2l5809 0AF6  
                                               i2l5817 1778  
                                               i2l5841 1BAC  
                                               i2l6377 074E  
                                               i2l5835 1CA2  
                                               i2l5771 0266  
                                               i2l5763 0232  
                                               i2l5755 01F0  
                                               i2l5819 177C  
                                               i2l5827 1C96  
                                               i2l5851 1010  
                                               i2l6379 075E  
                                               i2l5773 026C  
                                               i2l5765 024A  
                                               i2l5757 0206  
                                               i2l5829 1C9A  
                                               i2l5845 1C8E  
                                               i2l5853 101A  
                                               i2l8181 0FF8  
                                               i2l5767 025A  
                                               i2l5759 021E  
                                               i2l5839 1BA4  
                                               i2l5847 1C92  
                                               i2l8183 1066  
                                               i2l5855 1020  
                                               i2l5871 0F9A  
                                               i2l5769 0262  
                                               i2l5793 0A8E  
                                               i2l8185 0A4C  
                                               i2l5865 102E  
                                               i2l5873 0F9E  
                                               i2l5779 0272  
                                               i2l5795 0AA4  
                                               i2l5787 0A74  
                                               i2l8187 0E0C  
                                               i2l5859 1028  
                                               i2l5883 0FB8  
                                               i2l5875 0FA8  
                                               i2l8189 01B6  
                                               i2l5797 0AD4  
                                               i2l5789 0A88  
                                               i2l5975 1C6C  
                                               i2l5799 0AE6  
                                               i2l5879 0FB0  
                                               i2l5895 1B4C  
                                               i2l5977 1C70  
                                               i2l5889 0FC0  
                                               i2l5897 1B50  
                                               i2l5899 1B54  
                                               _OSCFRQ 0039DF  
                       modbus_serial_send_stop@crc_low 0384  
                                               _NVMDAT 0039E3  
                                               _RCV_ON 1C76  
                          ?i2_I2C2_CallbackReturnReset 0030  
                             _I2C2_CallbackReturnReset 1B88  
                                               _TRISD4 01FE2C  
                                _UART1_SetErrorHandler 1C12  
                          fp__I2C2_CallbackReturnReset 0000  
                                          INTSTAT_ADDR 0000D3  
                               ?_I2C2_MasterSetCounter 0030  
                               ?_I2C2_MasterSendTxData 0030  
                                 ?i2_I2C2_DO_SEND_STOP 0030  
                                      i2_I2C2_DO_RESET 1B5C  
                                  i2_I2C2_MasterIsNack 1A70  
                                     _UART2_Initialize 0C2A  
                             fp__I2C2_DO_SEND_ADR_READ 0000  
                              i2_I2C2_DO_BUS_COLLISION 0F9A  
                            _UART2_OverrunErrorHandler 01F8  
                           fp_i2_I2C2_DO_BUS_COLLISION 0000  
                            __size_ofi2_I2C2_DO_RX_ACK 0008  
                              ??i2_I2C2_MasterResetBus 0030  
                            __size_ofi2_I2C2_DO_TX_ACK 0008  
                                  _uart2RxStatusBuffer 01BC  
                    __size_of_I2C2_MasterClearNackFlag 0006  
                            ?_I2C2_MasterClearNackFlag 0030  
                                               _c_lora 0023  
                                            ??___awdiv 00FF  
                               ??_I2C2_DO_ADDRESS_NACK 003E  
                                               _make16 14DA  
                                               _flag_r 0012  
                                               _config 00D7  
                                               _finish 004B  
                      __size_ofi2_I2C2_DO_SEND_RESTART 0004  
                                               _humVal 00BC  
                                     ?_TMR0_Initialize 0030  
                                               _rf_air 00EA  
                                               _rf_lbt 00E1  
                                               clear_0 0686  
                                               clear_1 0698  
                                               clear_2 06A4  
                                               clear_3 06B0  
                                               clear_4 06BC  
                                               clear_5 06C8  
                                               clear_6 06D4  
                                               clear_7 06E0  
                                               _rf_pow 00E6  
                                               _inputs 001F  
                                     ___awdiv@quotient 0382  
                                               _rf_wor 00E0  
                  __size_ofi2_I2C2_MasterClearStopFlag 0006  
                      __end_ofi2_I2C2_DO_SEND_ADR_READ 1726  
                                               isa$std 000001  
                             modbus_serial_send_stop@j 0380  
                                               _number 0009  
                                i2modbus_calc_crc@data 0030  
                                               _rxlora 0140  
                                      ?i2_I2C2_DO_IDLE 0030  
                               ??_modbus_exception_rsp 0100  
                           _tick_reset_setting_rx_lora 00A0  
                      __end_of_I2C2_CallbackReturnStop 1BA4  
                                       _PMD_Initialize 17EC  
                                         __pdataCOMRAM 004B  
                          ??_I2C2_MasterIsCountFlagSet 003C  
                       _I2C2_DO_ADDRESS_NACK$intlevel1 0F2C  
                                 ?i2_I2C2_MasterIsNack 0030  
                                         __mediumconst 7DBE  
                        fp__I2C2_DO_SEND_RESTART_WRITE 0000  
                             ?_modbusReceivedDataRS485 0030  
                                               tblptrh 003FF7  
                                               tblptrl 003FF6  
                                               tblptru 003FF8  
                                ??i2_I2C2_DO_BUS_ERROR 0030  
                       I2C2_CallbackReturnReset@funPtr 003C  
                     i2I2C2_CallbackReturnReset@funPtr 0030  
                     __end_ofi2_I2C2_MasterIsRxBufFull 1A9C  
                                __end_of_TMR0_CallBack 131C  
                        i2modbus_enable_timeout@enable 0030  
          UART2_SetRxInterruptHandler@InterruptHandler 02FA  
          UART1_SetRxInterruptHandler@InterruptHandler 02FA  
             TMR0_SetInterruptHandler@InterruptHandler 02FA  
                 __end_of_UART1_SetOverrunErrorHandler 1C08  
                __size_of_UART1_SetOverrunErrorHandler 000A  
                         _UART1_SetOverrunErrorHandler 1BFE  
                            _UART1_DefaultErrorHandler 000000  
                            __size_of_UART1_is_tx_done 0016  
                    __size_of_I2C2_MasterClearStopFlag 0006  
                            ?_I2C2_MasterClearStopFlag 0030  
                        __size_of_INTERRUPT_Initialize 0014  
                         __size_of_UART1_RxDataHandler 000A  
                        __size_of_I2C2_DO_SEND_RESTART 000E  
                                _modbus_read_coils_rsp 1272  
                     ??_INTERRUPT_InterruptManagerHigh 0038  
                      ?_INTERRUPT_InterruptManagerHigh 0030  
                                    _SYSTEM_Initialize 1810  
                        ??i2_I2C2_MasterDisableRestart 0030  
                                           __accesstop 0060  
                              __end_of__initialization 06F2  
                                     _ledToggleTimeout 0088  
                  __end_ofi2_I2C2_MasterClearCountFlag 1D2C  
                          i2_I2C2_MasterClearCountFlag 1D26  
                              ?_I2C2_MasterIsRxBufFull 0030  
                                   ?_SYSTEM_Initialize 0030  
                                     _I2C2_DO_RX_EMPTY 087A  
                                        __end_of_DELTA 7FE9  
                                        ___rparam_used 000001  
                                  _eeprom_buffer_write 01A9  
                                ??i2_I2C2_DO_SEND_STOP 0031  
                              i2_I2C2_MasterSetCounter 1C58  
      __end_ofi2_I2C2_MasterSendNack@i2c2_master$F3141 1D02  
     __size_ofi2_I2C2_MasterSendNack@i2c2_master$F3141 0006  
        __end_of_I2C2_MasterSendNack@i2c2_master$F3141 1CC0  
       __size_of_I2C2_MasterSendNack@i2c2_master$F3141 0006  
            ??i2_I2C2_MasterSendNack@i2c2_master$F3141 0030  
             ?i2_I2C2_MasterSendNack@i2c2_master$F3141 0030  
              i2_I2C2_MasterSendNack@i2c2_master$F3141 1CFC  
                _I2C2_MasterSendNack@i2c2_master$F3141 1CBA  
                                     _I2C2_DO_TX_EMPTY 0BA2  
                             UART2_Write_String@F17150 0264  
                               modbus_read_coils_rsp@i 038A  
                      __size_of_modbusReceivedDataLoRa 00E6  
                                       __pcstackCOMRAM 0030  
                                        ?_modbus_kbhit 0030  
                                _UART2_SetErrorHandler 1BEA  
                                         __pidataBANK0 1D3C  
                                         __pidataBANK1 18B2  
                                  ??_SYSTEM_Initialize 00FF  
                              _modbus_serial_send_stop 0E2C  
                                            ?_TMR0_ISR 0030  
                            i2_I2C2_DO_RX_NACK_RESTART 1C8E  
                           ??_I2C2_ClearInterruptFlags 003C  
                          ??i2_I2C2_MasterIsTxBufEmpty 0030  
                            ??i2_I2C2_MasterGetCounter 0030  
                               ?_modbus_enable_timeout 0030  
                               __end_of_PMD_Initialize 1810  
                                 __end_ofi2_I2C2_DO_RX 0B12  
                                 __end_ofi2_I2C2_DO_TX 0276  
                                ??i2_I2C2_MasterIsNack 0030  
                                    _timer_out_data_rf 008C  
                                        ?_saveToEEPROM 00FF  
                            _UART1_FramingErrorHandler 00F2  
                      modbus_read_coils_rsp@byte_count 0386  
                             _UART2_RxInterruptHandler 00F8  
                               ??_I2C2_DO_RX_NACK_STOP 003C  
                            __end_of_SYSTEM_Initialize 1832  
                                __end_of_I2C2_DO_RESET 191C  
                          ??_I2C2_DO_SEND_RESTART_READ 003D  
                                _I2C2_InterruptHandler 0005  
                               i2_I2C2_DO_SEND_RESTART 1D2C  
                                           __pbssBANK0 0060  
                                           __pbssBANK1 0100  
                                           __pbssBANK2 0200  
                                           __pbssBANK3 0300  
                                           __pbssBANK4 0400  
                                           __pbssBANK5 0500  
                       __end_of_I2C2_MasterIsRxBufFull 1A02  
                        ?_UART1_SetOverrunErrorHandler 02FA  
                               ?_UART1_SetErrorHandler 02FA  
                                     _sum_error_am2315 002D  
                           __end_ofi2_I2C2_DO_RX_EMPTY 0A74  
                              __end_ofi2_I2C2_DO_RESET 1B6C  
                                 _modbus_check_timeout 1456  
                                              ?_RCV_ON 0030  
                           __end_ofi2_I2C2_DO_TX_EMPTY 0E2C  
                                           __pnvCOMRAM 0049  
                            ??i2_I2C2_DO_BUS_COLLISION 0032  
                                     _sum_error_get485 00CF  
                   __end_ofi2_I2C2_MasterClearNackFlag 1D26  
                           i2_I2C2_MasterClearNackFlag 1D20  
                            __size_ofi2_I2C2_MasterFsm 006A  
                            __size_ofi2_I2C2_MasterIsr 0006  
                                              IVTBASEH 003FD6  
                         ?i2_I2C2_MasterIsCountFlagSet 0030  
                            _I2C2_MasterIsCountFlagSet 1A2E  
                                              IVTBASEL 003FD5  
                                              IVTBASEU 003FD7  
               __end_of_modbus_read_discrete_input_rsp 1272  
              __size_of_modbus_read_discrete_input_rsp 0056  
                       _modbus_read_discrete_input_rsp 121C  
                       modbus_read_coils_rsp@coil_data 0387  
                                       ??_modbus_kbhit 0100  
                        fp_i2_I2C2_CallbackReturnReset 0000  
                                        fp__I2C2_DO_RX 0000  
                                        fp__I2C2_DO_TX 0000  
                     __end_of_TMR0_SetInterruptHandler 1C26  
                                              _I2C2CLK 003D65  
                                      fp__I2C2_DO_IDLE 0000  
                                              _I2C2CNT 003D56  
                                              _I2C2ERR 003D60  
                                              _I2C2PIE 003D64  
                                              _I2C2PIR 003D63  
                                           ??_TMR0_ISR 003C  
                                              _I2C2RXB 003D54  
                                              _I2C2TXB 003D55  
                 __end_of_UART2_SetFramingErrorHandler 1BEA  
                __size_of_UART2_SetFramingErrorHandler 000A  
                         _UART2_SetFramingErrorHandler 1BE0  
                      _I2C2_DO_BUS_COLLISION$intlevel1 0D38  
                                              ?_make16 02FA  
                 __size_ofi2_I2C2_MasterDisableRestart 0006  
                                 __size_of_modbus_init 0020  
                                           _flag_id_mb 0014  
                              ??_I2C2_MasterGetCounter 003C  
                              i2_modbus_enable_timeout 191C  
                                      ?_PMD_Initialize 0030  
                                    _UART1_Receive_ISR 17A0  
                                              _U1ERRIE 003DFA  
                                              _U1ERRIR 003DF9  
                                              _U2ERRIE 003DE2  
                                              _U2ERRIR 003DE1  
                                 saveToEEPROM@position 00FF  
                         ??i2_I2C2_MasterIsNackFlagSet 0030  
                                 __size_of_UART1_Write 0062  
                                       ??_saveToEEPROM 0100  
                                   ?_UART1_Receive_ISR 0030  
                                 __size_of_UART2_Write 004A  
                                              _U1RXPPS 003AE5  
                                              _U2RXPPS 003AE8  
                           __end_of_i2c2_fsmStateTable 7FE5  
                   __end_ofi2_I2C2_MasterClearStopFlag 1D20  
                           i2_I2C2_MasterClearStopFlag 1D1A  
                               _modbusReceivedDataLoRa 0456  
                                              _OSCCON1 0039D9  
                                              _OSCCON3 0039DB  
                            ?_I2C2_MasterEnableRestart 0030  
                              __size_of_I2C2_DO_RX_ACK 0012  
                                    fp__I2C2_DO_RX_ACK 0000  
                              __size_of_I2C2_DO_TX_ACK 0012  
                                              _NVMADRL 0039E0  
                                    fp__I2C2_DO_TX_ACK 0000  
                                              _OSCTUNE 0039DE  
                                              _NVMCON1 0039E5  
                                              _NVMCON2 0039E6  
                                              _RCV_OFF 1C7E  
                                              _SLRCONA 003A43  
                                              _SLRCONB 003A53  
                                              _SLRCONC 003A63  
                                              _SLRCOND 003A73  
                                              _SLRCONE 003A83  
                         fp_i2_I2C2_CallbackReturnStop 0000  
           modbus_write_single_coil_rsp@output_address 0387  
                               ?_modbus_read_coils_rsp 0386  
                 _I2C2_DO_SEND_RESTART_WRITE$intlevel1 1B84  
                           ??_I2C2_MasterIsStopFlagSet 003C  
                            i2_I2C2_MasterIsTxBufEmpty 1A5A  
                                  ??_UART1_Receive_ISR 0035  
                                      _I2C2_Initialize 1832  
                                ?_modbus_check_timeout 0030  
                             ??i2_I2C2_DO_ADDRESS_NACK 0032  
                            ??i2_I2C2_MasterSetCounter 0030  
                                   _modbus_serial_putc 197E  
                             i2_I2C2_MasterIsRxBufFull 1A86  
                          modbus_enable_timeout@enable 00FF  
                                         _flag_data_st 000F  
                                      __size_of_RCV_ON 0008  
                              ??_I2C2_DO_BUS_COLLISION 003E  
                     __size_ofi2_I2C2_DO_SEND_ADR_READ 002E  
                                _I2C2_DO_SEND_ADR_READ 15F4  
     __end_ofi2_I2C2_MasterGetRxData@i2c2_master$F3111 1D0E  
    __size_ofi2_I2C2_MasterGetRxData@i2c2_master$F3111 0006  
       __end_of_I2C2_MasterGetRxData@i2c2_master$F3111 1CCC  
      __size_of_I2C2_MasterGetRxData@i2c2_master$F3111 0006  
           ??i2_I2C2_MasterGetRxData@i2c2_master$F3111 0030  
            ?i2_I2C2_MasterGetRxData@i2c2_master$F3111 0030  
             i2_I2C2_MasterGetRxData@i2c2_master$F3111 1D08  
               _I2C2_MasterGetRxData@i2c2_master$F3111 1CC6  
                                              __Hparam 0000  
                            ??_modbus_serial_send_stop 0100  
                               ?_UART2_SetErrorHandler 02FA  
                                           _lengh_data 0018  
                                              __Lparam 0000  
                             __end_of_UART1_Initialize 0BA2  
                                           _index_putc 0019  
                     __size_of_I2C2_CallbackReturnStop 000E  
                                  ?_modbus_serial_putc 0030  
                        ??i2_I2C2_MasterIsCountFlagSet 0030  
                                     i2_I2C2_DO_RX_ACK 1C96  
                          __end_of_I2C2_MasterClearIrq 1C8E  
                                     i2_I2C2_DO_TX_ACK 1C9E  
                         ?i2_I2C2_DO_SEND_RESTART_READ 0030  
                            _I2C2_DO_SEND_RESTART_READ 1966  
                  __size_ofi2_I2C2_MasterIsNackFlagSet 0016  
                                              ___awdiv 053C  
                            __end_of_UART1_Receive_ISR 17C8  
                                      __size_of_make16 003A  
                        ?_UART2_SetFramingErrorHandler 02FA  
                                           _rf_add_low 00EF  
                                              __pcinit 0620  
                                              __ramtop 0800  
                                       _readDataSensor 00FE  
                                              __ptext0 0EA8  
                                              __ptext1 1D40  
                                              __ptext2 1514  
                                              __ptext3 154C  
                                              __ptext4 1584  
                                              __ptext5 15BC  
                                              __ptext6 0CAE  
                                              __ptext7 121C  
                                              __ptext8 1272  
                                              __ptext9 13C0  
                                           _rf_channel 00E5  
                                    _UART2_Receive_ISR 1750  
                                        ?_I2C2_DO_IDLE 0030  
                   __size_of_I2C2_MasterClearCountFlag 0006  
                              fp__I2C2_DO_ADDRESS_NACK 0000  
                                  modbus_calc_crc@data 02FA  
                             ?_I2C2_DO_RX_NACK_RESTART 0030  
                           ??i2_I2C2_DO_SEND_ADR_WRITE 0030  
                           ?_I2C2_MasterClearCountFlag 0030  
                                           _readingreg 0400  
             modbus_read_holding_registers_rsp@address 038B  
                     _UART2_DefaultOverrunErrorHandler 000000  
                                _OSCILLATOR_Initialize 1936  
              modbus_write_multiple_coils_rsp@quantity 0389  
                                              _mbstate 001B  
                                   ?_UART2_Receive_ISR 0030  
                                   _modbus_timeout_now 1152  
                                          _I2C2ERRbits 003D60  
                                              _rf_uart 00EC  
                                              _rf_rssi 00E8  
                             ??_PIN_MANAGER_Initialize 00FF  
                                           _rf_key_low 00DE  
                           ??_I2C2_CallbackReturnReset 003E  
                                 ??_modbus_serial_putc 00FF  
                             __end_of_UART2_Initialize 0CAE  
                    __size_of_I2C2_MasterIsNackFlagSet 0016  
                                              _tempVal 00C0  
                                          _I2C2PIEbits 003D64  
                            ?_I2C2_MasterIsNackFlagSet 0030  
                                          _I2C1PIRbits 003D79  
                          __end_of_I2C2_MasterResetBus 1C4E  
                                     _flag_send_rf_485 00D0  
                                              _timeout 0013  
                                          _I2C2PIRbits 003D63  
                                           _rf_reserve 00E7  
                                    _I2C2_DO_BUS_ERROR 18E8  
                           __size_of_SYSTEM_Initialize 0022  
                        I2C2_CallbackReturnStop@funPtr 003C  
                      i2I2C2_CallbackReturnStop@funPtr 0030  
                                     _UART1_is_tx_done 1994  
                       __size_ofi2_I2C2_MasterClearIrq 0008  
                                 end_of_initialization 06F2  
                                  ??_UART2_Receive_ISR 003F  
                                  ?_modbus_timeout_now 0030  
                        __end_ofi2_I2C2_MasterClearIrq 1CAE  
                                           _rf_rssi_ts 00E4  
                     __end_of_I2C2_MasterClearNackFlag 1CE4  
                                   ?_I2C2_DO_BUS_ERROR 0030  
                                     ?i2_I2C2_DO_RESET 0030  
                              ??_I2C2_MasterSetCounter 003C  
                              ??_I2C2_MasterSendTxData 003C  
                                        __Lmediumconst 7DBE  
                 __end_of_modbus_write_single_coil_rsp 1584  
                __size_of_modbus_write_single_coil_rsp 0038  
                         _modbus_write_single_coil_rsp 154C  
                  __end_of_UART2_SetRxInterruptHandler 1BD6  
                          _UART2_SetRxInterruptHandler 1BCC  
                                           make16@high 0384  
                                fp_i2_I2C2_DO_RX_EMPTY 0000  
                       ??_UART1_SetOverrunErrorHandler 00FF  
          modbus_read_holding_registers_rsp@byte_count 0386  
                                fp_i2_I2C2_DO_TX_EMPTY 0000  
                                  ??_I2C2_DO_BUS_ERROR 003C  
                                           _tick_time1 00B4  
                                    _I2C2_DO_SEND_STOP 1694  
                                          _I2C2_Status 0060  
                                  fp__I2C2_DO_RX_EMPTY 0000  
                                    i1_modbus_calc_crc 1662  
                                              postdec1 003FE5  
                                              postdec2 003FDD  
            modbus_read_holding_registers_rsp@reg_data 0387  
                            ??i2_modbus_enable_timeout 0030  
                                              postinc0 003FEE  
                                              postinc2 003FDE  
                       _I2C2_DO_SEND_RESTART$intlevel1 1B76  
                                   ?_I2C2_DO_SEND_STOP 0030  
                                  fp__I2C2_DO_TX_EMPTY 0000  
                       __size_ofi2_I2C2_MasterResetBus 000A  
                                     ??i2_I2C2_DO_IDLE 0030  
                                 ??_modbus_timeout_now 0100  
                                __size_ofi2_I2C2_DO_RX 009E  
                                __size_ofi2_I2C2_DO_TX 0126  
                        __end_ofi2_I2C2_MasterResetBus 1C6C  
                            __end_of_UART2_Receive_ISR 1778  
                             ??i2_I2C2_DO_RX_NACK_STOP 0030  
                                        _modbus_parity 00D2  
                                   ?i1_modbus_calc_crc 0030  
                                    UART1_Write@txData 02FA  
                                  _UART1_RxDataHandler 1C6C  
                        ??i2_I2C2_DO_SEND_RESTART_READ 0031  
                                       ??_I2C2_DO_IDLE 003C  
                                     _lengh_data_cache 0017  
                     __end_of_I2C2_MasterClearStopFlag 1CDE  
                             __size_of_modbus_calc_crc 0036  
                             _TMR0_SetInterruptHandler 1C1C  
                                            _PORTAbits 003FCA  
                                           _timer_tick 00B0  
                                  ??_I2C2_DO_SEND_STOP 003D  
                    _I2C2_DO_RX_NACK_RESTART$intlevel1 1B10  
                              __size_of_I2C2_MasterFsm 006A  
                              __size_of_I2C2_MasterIsr 0010  
                      modbus_read_discrete_input_rsp@i 038A  
                                    fp__I2C2_MasterIsr 0000  
                             __end_of_I2C2_DO_RX_EMPTY 0928  
                    __end_of_I2C2_MasterClearCountFlag 1CEA  
                      __end_of_modbus_serial_send_stop 0EA8  
                 __size_ofi2_I2C2_MasterIsCountFlagSet 0016  
                              __end_of_I2C2_Initialize 1854  
                                  ??i1_modbus_calc_crc 003C  
                             __end_of_I2C2_DO_TX_EMPTY 0C2A  
                            __end_of_I2C2_DO_BUS_ERROR 1902  
                                            _TRISAbits 003FC2  
                                    _I2C2_MasterIsNack 19D6  
                                            _TRISBbits 003FC3  
                                            _TRISDbits 003FC5  
                                 __end_of_modbus_kbhit 140C  
            __end_of_modbus_read_holding_registers_rsp 0D2E  
           __size_of_modbus_read_holding_registers_rsp 0080  
                  ??_modbus_read_holding_registers_rsp 0389  
                   ?_modbus_read_holding_registers_rsp 0386  
                    _modbus_read_holding_registers_rsp 0CAE  
                                   ?_I2C2_MasterIsNack 0030  
                              _I2C2_DO_RESET$intlevel1 190C  
                     _I2C2_DO_SEND_ADR_WRITE$intlevel1 187E  
                               ??_modbus_check_timeout 0100  
       __end_ofi2_I2C2_MasterSendAck@i2c2_master$F3136 1D08  
      __size_ofi2_I2C2_MasterSendAck@i2c2_master$F3136 0006  
         __end_of_I2C2_MasterSendAck@i2c2_master$F3136 1CC6  
        __size_of_I2C2_MasterSendAck@i2c2_master$F3136 0006  
             ??i2_I2C2_MasterSendAck@i2c2_master$F3136 0030  
              ?i2_I2C2_MasterSendAck@i2c2_master$F3136 0030  
               i2_I2C2_MasterSendAck@i2c2_master$F3136 1D02  
                 _I2C2_MasterSendAck@i2c2_master$F3136 1CC0  
                                 ?_UART1_RxDataHandler 0030  
                                       _rfSettingsData 01B3  
                            fp_i2_I2C2_DO_SEND_RESTART 0000  
                      __size_ofi2_I2C2_DO_ADDRESS_NACK 006E  
                         __size_of_UART2_RxDataHandler 000A  
                              fp__I2C2_DO_RX_NACK_STOP 0000  
                                     _sum_reset_device 001D  
                               ?_I2C2_DO_SEND_ADR_READ 0030  
            modbus_write_single_register_rsp@reg_value 0389  
             __end_of_modbus_write_single_register_rsp 154C  
            __size_of_modbus_write_single_register_rsp 0038  
                   ??_modbus_write_single_register_rsp 0100  
                    ?_modbus_write_single_register_rsp 0387  
                     _modbus_write_single_register_rsp 1514  
                             ?_I2C2_MasterIsTxBufEmpty 0030  
                                  ??_I2C2_MasterIsNack 003C  
                            __end_of_I2C2_DO_SEND_STOP 16C6  
                             ?i1_modbus_enable_timeout 0030  
                                       __end_of_RCV_ON 1C7E  
                                     i2_I2C2_MasterFsm 10E8  
                                         i2_I2C2_DO_RX 0A74  
                                     i2_I2C2_MasterIsr 1CEA  
                                         i2_I2C2_DO_TX 0150  
                     __size_of_modbusReceivedDataRS485 00E8  
                        ?_modbus_write_single_coil_rsp 0387  
                            __end_ofi1_modbus_calc_crc 1694  
                                 __end_of_saveToEEPROM 1D42  
                                 _timer0ReloadVal16bit 0049  
                       i2I2C2_MasterSetCounter@counter 0030  
                                           _typeOfData 001E  
                              ??_modbus_enable_timeout 00FF  
                         __end_of_INTERRUPT_Initialize 1AF2  
                      __end_of_I2C2_DO_RX_NACK_RESTART 1B18  
                         __end_of_I2C2_DO_SEND_RESTART 1B7A  
                           __size_of_UART1_Receive_ISR 0028  
                              i1modbus_calc_crc@uIndex 003D  
                             _modbus_serial_send_start 1726  
                                           _typeSensor 00DA  
                  modbus_write_single_coil_rsp@address 038B  
                                        __pidataCOMRAM 1D44  
                                       __end_of_make16 1514  
                        __size_of_I2C2_DO_ADDRESS_NACK 0078  
                                    __size_of_TMR0_ISR 0014  
                               ?_OSCILLATOR_Initialize 0030  
                   __end_ofi2_I2C2_MasterIsNackFlagSet 1AC8  
                           i2_I2C2_MasterIsNackFlagSet 1AB2  
                          __end_ofi2_I2C2_DO_BUS_ERROR 1B5C  
                             ??_I2C2_DO_SEND_ADR_WRITE 003C  
                                    i2_modbus_calc_crc 16C6  
                            __end_of_I2C2_MasterIsNack 19EC  
                       ??_UART2_SetFramingErrorHandler 00FF  
                                   ?i2_modbus_calc_crc 0030  
                                  start_initialization 0620  
                                       _I2C2_DO_RX_ACK 1B18  
                                       _I2C2_DO_TX_ACK 1B2A  
                        __size_of_modbus_exception_rsp 0024  
                              ?i2_I2C2_DO_SEND_RESTART 0030  
             modbus_read_discrete_input_rsp@byte_count 0386  
                             __size_of_TMR0_Initialize 0040  
                      __size_of_PIN_MANAGER_Initialize 00B6  
                         ??i2_I2C2_ClearInterruptFlags 0030  
                              ??_UART1_SetErrorHandler 00FF  
                            _UART2_DefaultErrorHandler 000000  
                 __size_ofi2_I2C2_DO_SEND_RESTART_READ 000E  
                                ??_UART1_RxDataHandler 0035  
                                       _flag_hmi_error 0008  
                                           ivt0x8_base 0008  
                                  ??i2_modbus_calc_crc 0030  
                          __end_ofi2_I2C2_DO_SEND_STOP 17A0  
                                        _uart1RxBuffer 01D4  
                                 _flagReceiveRS485LoRa 001A  
                                             ??_RCV_ON 00FF  
                              i2_I2C2_DO_SEND_ADR_READ 16F8  
                           fp_i2_I2C2_DO_SEND_ADR_READ 0000  
                                        _uart2RxBuffer 01C4  
                   __size_ofi2_I2C2_CallbackReturnStop 0004  
     modbus_write_multiple_registers_rsp@start_address 0387  
                          ?i2_I2C2_MasterClearNackFlag 0030  
                             _I2C2_MasterClearNackFlag 1CDE  
                           ?i2_I2C2_CallbackReturnStop 0030  
                              _I2C2_CallbackReturnStop 1B96  
             modbus_read_discrete_input_rsp@input_data 0387  
                           fp__I2C2_CallbackReturnStop 0000  
                                     ??_PMD_Initialize 00FF  
                                   i2_I2C2_DO_RX_EMPTY 09D0  
                                             ??_make16 0380  
                               __size_of_TMR0_CallBack 0054  
                                          __pdataBANK0 00FC  
                                          __pdataBANK1 01DC  
                           __size_of_UART2_Receive_ISR 0028  
                                   i2_I2C2_DO_TX_EMPTY 0DAE  
                          __end_ofi2_I2C2_MasterIsNack 1A86  
                            __end_ofi2_modbus_calc_crc 16F8  
                               i2_I2C2_DO_ADDRESS_NACK 1010  
                                  fp_i2_I2C2_DO_RX_ACK 0000  
                                    UART2_Write@txData 02FA  
                      __size_ofi2_I2C2_DO_RX_NACK_STOP 000E  
                                  fp_i2_I2C2_DO_TX_ACK 0000  
                  __size_ofi2_I2C2_ClearInterruptFlags 0052  
                              ?_modbusReceivedDataLoRa 0030  
                         ??_I2C2_DO_SEND_RESTART_WRITE 003C  
                       __size_of_I2C2_MasterGetCounter 0006  
                           _I2C2_DO_RX_EMPTY$intlevel1 0884  
                               __end_of_I2C2_DO_RX_ACK 1B2A  
                     ??_modbus_read_discrete_input_rsp 0100  
                      ?_modbus_read_discrete_input_rsp 0386  
                        __end_of_I2C2_MasterGetCounter 1CB4  
                                  ?i2_I2C2_DO_RX_EMPTY 0030  
                               __end_of_I2C2_DO_TX_ACK 1B3C  
                       __end_ofi2_I2C2_DO_SEND_RESTART 1D30  
                                          __pbssBIGRAM 05FE  
                                  ?i2_I2C2_DO_TX_EMPTY 0030  
                                   _eeprom_buffer_read 019F  
                                          __pbssCOMRAM 0001  
                                     ?_I2C2_MasterStop 0030  
                              ??_modbus_read_coils_rsp 0100  
                                     ?_I2C2_Initialize 0030  
                           ??i2_I2C2_MasterIsRxBufFull 0030  
                           __size_of_I2C2_DO_BUS_ERROR 001A  
                                   _UART1_ErrorHandler 01FC  
                            _UART2_FramingErrorHandler 01FA  
                                        __pcstackBANK0 00FF  
                          ?i2_I2C2_MasterClearStopFlag 0030  
                                        __pcstackBANK2 02FA  
                             _I2C2_MasterClearStopFlag 1CD8  
                                        __pcstackBANK3 0380  
                                          _data_decode 0300  
                                             ?_RCV_OFF 0030  
                             __end_ofi2_I2C2_DO_RX_ACK 1C9E  
                                    ??_modbus_calc_crc 00FF  
                                          _data_buffer 0168  
                             __end_ofi2_I2C2_DO_TX_ACK 1CA6  
                           modbus_serial_send_start@to 0380  
          __end_ofi2_I2C2_MasterStop@i2c2_master$F3126 1CFC  
         __size_ofi2_I2C2_MasterStop@i2c2_master$F3126 0006  
            __end_of_I2C2_MasterStop@i2c2_master$F3126 1CBA  
           __size_of_I2C2_MasterStop@i2c2_master$F3126 0006  
                ??i2_I2C2_MasterStop@i2c2_master$F3126 0030  
                 ?i2_I2C2_MasterStop@i2c2_master$F3126 0030  
                  i2_I2C2_MasterStop@i2c2_master$F3126 1CF6  
                    _I2C2_MasterStop@i2c2_master$F3126 1CB4  
                             _UART1_RxInterruptHandler 00F6  
                  __end_ofi2_I2C2_MasterDisableRestart 1D1A  
                          i2_I2C2_MasterDisableRestart 1D14  
                      __end_of_I2C2_MasterIsTxBufEmpty 19D6  
                    __size_of_I2C2_ClearInterruptFlags 0052  
                            ?_I2C2_ClearInterruptFlags 0030  
                                     saveToEEPROM@data 0030  
                      __end_ofi1_modbus_enable_timeout 18E8  
                        __size_of_I2C2_DO_RX_NACK_STOP 0018  
                                 __end_of_I2C2_DO_IDLE 19C0  
                              ??_UART2_SetErrorHandler 00FF  
                                   _i2c2_fsmStateTable 7FBF  
                                 ??i2_I2C2_DO_RX_EMPTY 0032  
             modbus_write_single_coil_rsp@output_value 0389  
                         ?_UART1_SetRxInterruptHandler 02FA  
                                     _read_eeprom_flag 00CE  
                           __size_of_I2C2_DO_SEND_STOP 0032  
                                _TMR0_InterruptHandler 00F4  
                                            __pnvBANK0 00F2  
                                            __pnvBANK1 01F8  
                                            __pnvBANK2 02FE  
                                            _checklora 00CA  
                                 ??i2_I2C2_DO_TX_EMPTY 0032  
                           __size_ofi1_modbus_calc_crc 0032  
                    _I2C2_CallbackReturnStop$intlevel1 1BA0  
                       __size_of_I2C2_DO_BUS_COLLISION 0080  
                    __end_ofi2_I2C2_CallbackReturnStop 1D3C  
                               _PIN_MANAGER_Initialize 07C4  
                        __end_of_I2C2_DO_BUS_COLLISION 0DAE  
                         ??i2_I2C2_MasterIsStopFlagSet 0030  
                                        ??_modbus_init 00FF  
                  __size_of_I2C2_DO_SEND_RESTART_WRITE 000E  
                                    ?_UART1_Initialize 0030  
                   _I2C2_CallbackReturnReset$intlevel1 1B92  
                 __end_of_UART1_SetFramingErrorHandler 1C12  
                __size_of_UART1_SetFramingErrorHandler 000A  
                         _UART1_SetFramingErrorHandler 1C08  
                             ?i2_I2C2_MasterGetCounter 0030  
                                         UART1_Write@t 02FB  
                                        __pmediumconst 7DBE  
                                             ?___awdiv 02FA  
                                            __ptext100 1B4C  
                                            __ptext101 0F9A  
                                            __ptext110 1BB2  
                                            __ptext102 1010  
                                            __ptext111 09D0  
                                            __ptext103 1B5C  
                                            __ptext120 1A70  
                                            __ptext112 0DAE  
                                            __ptext104 1C8E  
                                            __ptext121 1CF0  
                                            __ptext113 0A74  
                                            __ptext105 1BA4  
                                            __ptext130 1D0E  
                                            __ptext122 1CF6  
                                            __ptext114 0150  
                                            __ptext106 1C96  
                                            __ptext131 1D14  
                                            __ptext123 1CFC  
                                            __ptext115 1A44  
                                            __ptext107 1778  
                                            __ptext140 1D20  
                                            __ptext132 1C62  
                                            __ptext124 1D02  
                                            __ptext116 16F8  
                                            __ptext108 1D2C  
                                            __ptext141 1D26  
                                            __ptext133 1D34  
                                            __ptext125 1A86  
                                            __ptext117 1BC0  
                                            __ptext109 1D30  
                                            __ptext142 17A0  
                                            __ptext134 1D38  
                                            __ptext126 1D08  
                                            __ptext118 1C9E  
                                            __ptext143 1C6C  
                                            __ptext135 136E  
                                            __ptext127 1CA6  
                                            __ptext119 1A5A  
                                            __ptext144 036E  
                                            __ptext136 1A9C  
                                            __ptext128 1C4E  
                                            __ptext145 191C  
                                            __ptext137 1AB2  
                                            __ptext129 1C58  
                                            __ptext146 16C6  
                                            __ptext138 1AC8  
                                            __ptext147 0000  
                                            __ptext139 1D1A  
                     __end_of_I2C2_MasterIsNackFlagSet 1A2E  
                                     _sensor_timer1_ms 00C8  
                                         UART2_Write@t 02FB  
                       ??_modbus_write_single_coil_rsp 0100  
                             __end_of_UART1_is_tx_done 19AA  
                                   ??_UART1_Initialize 00FF  
                         modbus_read_coils_rsp@address 0389  
                                             _I2C2CON0 003D5D  
                                             _I2C2CON1 003D5E  
                                             _I2C2CON2 003D5F  
                                     I2C2_DO_TX@dataTx 0042  
                       __end_of_modbusReceivedDataLoRa 053C  
                               __size_of_I2C2_DO_RESET 001A  
                                     fp__I2C2_DO_RESET 0000  
                                     _uart1RxLastError 0028  
                                        ??_UART1_Write 00FF  
                                        ??_UART2_Write 00FF  
                                            _coils_reg 0200  
                                            _led_blink 00DB  
                                modbus_calc_crc@uIndex 02FB  
                                       _I2C2_MasterFsm 107E  
                                       _I2C2_MasterIsr 1B3C  
                                __size_of_modbus_kbhit 004C  
              __end_of_modbus_write_multiple_coils_rsp 15F4  
             __size_of_modbus_write_multiple_coils_rsp 0038  
                    ??_modbus_write_multiple_coils_rsp 0100  
                     ?_modbus_write_multiple_coils_rsp 0387  
                      _modbus_write_multiple_coils_rsp 15BC  
                         fp_i2_I2C2_DO_RX_NACK_RESTART 0000  
                                      ?_I2C2_DO_RX_ACK 0030  
                      __size_of_I2C2_DO_SEND_ADR_WRITE 0020  
                           __size_of_I2C2_MasterIsNack 0016  
                                    _modbus_serial_crc 0001  
                                      ?_I2C2_DO_TX_ACK 0030  
                                    _modbus_serial_new 00FB  
                          ??_I2C2_MasterClearCountFlag 003C  
                                          _flag_decode 0016  
                     _UART1_DefaultOverrunErrorHandler 000000  
                                            _count_end 000C  
                                            _hold_regs 0296  
                                    ?_UART2_Initialize 0030  
                                I2C2_DO_RX@retFsmState 0042  
                                            _byte_save 00DC  
                                        _TMR0_CallBack 12C8  
                            ??i2_I2C2_DO_SEND_ADR_READ 0030  
                                          _U1ERRIRbits 003DF9  
                                   ??_UART2_Initialize 00FF  
                                 _INTERRUPT_Initialize 1ADE  
                               i2_I2C2_DO_RX_NACK_STOP 1BA4  
                             ?i2_I2C2_DO_BUS_COLLISION 0030  
                  __size_ofi2_I2C2_MasterIsStopFlagSet 0016  
                                 _I2C2_DO_SEND_RESTART 1B6C  
                                           _I2C2SDAPPS 003AE4  
                                            _rf_packet 00E9  
                                           _I2C2SCLPPS 003AE3  
                                     _uart2RxLastError 0024  
                     __size_of_I2C2_DO_RX_NACK_RESTART 0012  
                                __size_of_saveToEEPROM 0002  
                                            _rf_net_id 00ED  
                            ??_I2C2_CallbackReturnStop 003E  
                                            _rf_parity 00EB  
                                    ??_TMR0_Initialize 02FC  
                                            _modbus_rx 05FE  
                                          _U2ERRIRbits 003DE1  
                                             _LATAbits 003FBA  
                UART2_SetErrorHandler@interruptHandler 02FA  
                UART1_SetErrorHandler@interruptHandler 02FA  
                                             _LATBbits 003FBB  
                              _modbusReceivedDataRS485 036E  
                                             _LATDbits 003FBD  
                         ??i2_I2C2_CallbackReturnReset 0032  
                                           _I2C2_DO_RX 0928  
                                           _I2C2_DO_TX 0020  
                       __size_of_I2C2_MasterSetCounter 000A  
                                            _next_flag 0015  
                        __end_of_I2C2_MasterSetCounter 1C44  
                                             _IPR2bits 003982  
                                             _IPR3bits 003983  
                                             _PIE3bits 003993  
                                             _IPR6bits 003986  
                                             _PIE5bits 003995  
                                             _PIE6bits 003996  
                                             i1u200_20 1A14  
                                             i1u200_21 1A0E  
                                             i1u200_26 1A16  
                                             i1u201_20 1A2A  
                                             i1u201_21 1A24  
                                             i1u201_26 1A2C  
                                             i1u202_20 19D2  
                                             i1u202_21 19CC  
                                             i1u202_26 19D4  
                                             i1u204_20 19FE  
                                             i1u203_28 0BE4  
                                             i1u204_21 19F8  
                                             i1u203_29 0BF8  
                                             i1u204_26 1A00  
                                             i1u205_20 18E2  
                                             i1u221_20 0476  
                                             i1u205_21 18DC  
                                             i1u221_21 0472  
                                             i1u230_20 134C  
                                             i1u206_20 18E4  
                                             i1u222_20 0488  
                                             i1u310_20 0310  
                                             i1u230_21 1348  
                                             i1u222_21 0484  
                                             i1u310_21 030C  
                                             i1u231_20 1368  
                                             i1u223_20 0498  
                                             i1u231_21 1364  
                                             i1u223_21 0494  
                                             i1u232_20 003E  
                                             i1u240_20 16B6  
                                             i1u224_20 04CE  
                                             i1u312_20 033C  
                                             i1u311_28 0316  
                                             i1u304_20 02A4  
                                             i1u232_21 003A  
                                             i1u240_21 16B2  
                                             i1u224_21 04CA  
                                             i1u312_21 0338  
                                             i1u311_29 032A  
                                             i1u304_21 02A0  
                                             i1u225_20 0502  
                                             i1u313_20 034A  
                                             i1u305_20 02B2  
                                             i1u225_21 04FE  
                                             i1u313_21 0346  
                                             i1u305_21 02AE  
                                             i1u234_20 00CA  
                                             i1u233_28 006A  
                                             i1u241_28 0F5C  
                                             i1u234_21 00C6  
                                             i1u233_29 007E  
                                             i1u241_29 0F70  
                                             i1u235_20 00E0  
                                             i1u242_28 0D70  
                                             i1u307_20 02E0  
                                             i1u306_28 02B8  
                                             i1u235_21 00DC  
                                             i1u242_29 0D84  
                                             i1u307_21 02DC  
                                             i1u306_29 02CE  
                                             i1u236_20 0124  
                                             i1u308_20 02EE  
                                             i1u236_21 0120  
                                             i1u308_21 02EA  
                                             i1u229_20 1330  
                                             i1u237_20 0946  
                                             i1u309_20 0302  
                                            make16@low 02FA  
                                             i1u229_21 132C  
                                             i1u237_21 0942  
                                             i1u309_21 02FE  
                                             i1u238_20 0962  
                                             i1u238_21 095E  
                                             i1u191_20 161A  
                                             i1u239_20 0992  
                                             i1u191_21 1616  
                                             i1u239_21 098E  
                                             i1u265_20 1098  
                                             i1u257_20 12E2  
                                             i1u265_21 1094  
                                             i1u257_21 12DE  
                                             i1u186_20 08C2  
                                             i1u266_20 10AC  
                                             i1u258_20 1300  
                                             i1u186_21 08BE  
                                             i1u266_21 10A8  
                                             i1u258_21 12FC  
                                             i2u210_40 1A82  
                                             i2u210_41 1A7C  
                                             i1u275_20 1760  
                                             i1u275_21 175C  
                                             i2u210_46 1A84  
                        ??_UART1_SetRxInterruptHandler 00FF  
                                             i2u211_40 1A98  
                                             i2u211_41 1A92  
                                             i1u187_28 08DA  
                                             i1u267_28 10CA  
                                             i1u259_28 1306  
                                             i1u276_20 1770  
                                             i1u187_29 08EE  
                                             i1u267_29 10E2  
                                             i1u259_29 131A  
                                             i1u276_21 176C  
                                             i2u211_46 1A9A  
                                             i2u220_40 040A  
                                             i2u212_40 1A6C  
                                             i2u300_40 076C  
                                             i2u220_41 0406  
                                             i2u212_41 1A66  
                                             i2u300_41 0768  
                                             i2u212_46 1A6E  
                                             i2u213_40 1AAE  
                                             i2u213_41 1AA8  
                                             i1u198_20 19E8  
                                             i1u198_21 19E2  
                                             i2u213_46 1AB0  
                                             i2u214_40 1ADA  
                                             i2u302_40 0798  
                                             i2u301_48 0772  
                                             i2u214_41 1AD4  
                                             i2u302_41 0794  
                                             i2u301_49 0786  
                                             i1u198_26 19EA  
                                             i1u199_20 1A40  
                                             i1u199_21 1A3A  
                                             i2u214_46 1ADC  
                                             i2u207_40 1930  
                                             i2u215_40 1AC4  
                                             i2u303_40 07A6  
                                             i2u207_41 192A  
                                             i2u215_41 1ABE  
                                             i2u303_41 07A2  
                                             i1u199_26 1A42  
                                             i2u215_46 1AC6  
                                             i2u208_40 1932  
                                             i2u216_40 038E  
                                             i2u216_41 038A  
                                             i2u217_40 039E  
                                             i2u217_41 039A  
                                             i2u218_40 03D2  
                                             i2u250_40 024A  
                                             i2u209_48 0DE6  
                                             i2u218_41 03CE  
                                             i2u250_41 0246  
                                             i2u209_49 0DFA  
                                             i2u219_40 03F4  
                                             i2u243_40 1382  
                                             i2u251_40 0A88  
                                             i2u219_41 03F0  
                                             i2u243_41 137E  
                                             i2u251_41 0A84  
                                             i2u244_40 139E  
                                             i2u252_40 0AA4  
                                             i2u244_41 139A  
                                             i2u252_41 0AA0  
                                             i2u245_40 13BA  
                                             i2u253_40 0AD4  
                           ??_TMR0_SetInterruptHandler 00FF  
                                             i2u245_41 13B6  
                                             i2u253_41 0AD0  
 __end_ofi2_I2C2_MasterEnableRestart@i2c2_master$F3116 1D14  
__size_ofi2_I2C2_MasterEnableRestart@i2c2_master$F3116 0006  
                                             i2u246_40 0164  
                                             i2u254_40 1790  
   __end_of_I2C2_MasterEnableRestart@i2c2_master$F3116 1CD2  
  __size_of_I2C2_MasterEnableRestart@i2c2_master$F3116 0006  
       ??i2_I2C2_MasterEnableRestart@i2c2_master$F3116 0030  
        ?i2_I2C2_MasterEnableRestart@i2c2_master$F3116 0030  
         i2_I2C2_MasterEnableRestart@i2c2_master$F3116 1D0E  
           _I2C2_MasterEnableRestart@i2c2_master$F3116 1CCC  
                                             i2u246_41 0160  
                                             i2u254_41 178C  
                                             i2u271_40 17B0  
                                             i2u270_48 1134  
                                             i2u271_41 17AC  
                                             i2u270_49 114C  
                                             i2u272_40 17C0  
                                             i2u192_40 1714  
                                             i2u248_40 01F0  
                                             i2u247_48 0190  
                                             i2u255_48 1040  
                                             i2u272_41 17BC  
                                             i2u192_41 1710  
                                             i2u248_41 01EC  
                                             i2u247_49 01A4  
                                             i2u255_49 1054  
                                             i2u249_40 0206  
                                             i2u256_48 0FD2  
                                             i2u249_41 0202  
                                             i2u256_49 0FE6  
                                             i2u188_40 0A0E  
                                             i2u268_40 1102  
                                             i2u188_41 0A0A  
                                             i2u268_41 10FE  
                                             i2u269_40 1116  
                                             i2u269_41 1112  
                                             _PIR3bits 0039A3  
                                             i2u189_48 0A26  
                                             i2u189_49 0A3A  
                                             i2u296_40 0724  
                                             i2u296_41 0720  
                                             i2u297_40 0732  
                                             i2u297_41 072E  
                                             _PIR5bits 0039A5  
                                             i2u299_40 075E  
                                             i2u298_48 0738  
                                             i2u299_41 075A  
                                             i2u298_49 074E  
                                             _PIR6bits 0039A6  
                          modbus_exception_rsp@address 0389  
                                         _modbus_kbhit 13C0  
                                  fp_i2_I2C2_MasterIsr 0000  
                    __size_of_I2C2_MasterIsStopFlagSet 0016  
                                        _I2C2STAT1bits 003D62  
                                             _TMR0_ISR 1AF2  
                            ?_I2C2_MasterIsStopFlagSet 0030  
                 __end_ofi2_I2C2_DO_SEND_RESTART_WRITE 1D34  
                __size_ofi2_I2C2_DO_SEND_RESTART_WRITE 0004  
                         i2_I2C2_DO_SEND_RESTART_WRITE 1D30  
                        ?_UART1_SetFramingErrorHandler 02FA  
                           __size_ofi2_modbus_calc_crc 0032  
                               __end_of_I2C2_MasterFsm 10E8  
                               __end_of_I2C2_MasterIsr 1B4C  
                                    _sensorDataTimeout 0084  
                                  _UART2_RxDataHandler 1C26  
                                  __end_of_modbus_init 1874  
                                             _RHSensor 00D9  
                         __size_of_I2C2_MasterClearIrq 0008  
                             __end_ofi2_I2C2_MasterFsm 1152  
                             __end_ofi2_I2C2_MasterIsr 1CF0  
          modbus_write_multiple_registers_rsp@quantity 0389  
                                    ?_I2C2_DO_RX_EMPTY 0030  
                   __end_ofi2_I2C2_ClearInterruptFlags 13C0  
                           i2_I2C2_ClearInterruptFlags 136E  
                             ??_I2C2_MasterIsRxBufFull 003C  
                                         _saveToEEPROM 1D40  
                                    ?_I2C2_DO_TX_EMPTY 0030  
                                  __end_of_UART1_Write 121C  
                                   _UART2_ErrorHandler 02FE  
                          __size_of_modbus_serial_putc 0016  
                                  __end_of_UART2_Write 1456  
                                  _modbus_serial_state 00FA  
                  __size_ofi2_I2C2_CallbackReturnReset 0004  
                                   ??_I2C2_DO_RX_EMPTY 003E  
                                       ?_TMR0_CallBack 0030  
                             ?i2_I2C2_MasterSetCounter 0030  
                                     _modbus_auchCRCHi 7EBF  
                                     _modbus_auchCRCLo 7DBF  
                                     __size_of_RCV_OFF 0008  
                                   ??_I2C2_DO_TX_EMPTY 003E  
                                          _INTCON0bits 003FD2  
                        i1modbus_enable_timeout@enable 003C  
                              ??_I2C2_DO_SEND_ADR_READ 003C  
                                            copy_data0 0638  
                                ?_INTERRUPT_Initialize 0030  
                                ?_I2C2_DO_SEND_RESTART 0030  
                                 fp__UART1_Receive_ISR 0000  
                                        _flag_has_data 0007  
                                        _I2C2_DO_RESET 1902  
                                       _timer_tick_sum 00AC  
                                 ?_UART2_RxDataHandler 0030  
                             ?_modbus_serial_send_stop 0030  
                                    i2_I2C2_DO_TX$3425 0034  
                    __size_ofi2_I2C2_DO_SEND_ADR_WRITE 0016  
                                i2_I2C2_MasterClearIrq 1CA6  
                         __size_of_I2C2_MasterResetBus 000A  
                            ?i2_I2C2_DO_SEND_ADR_WRITE 0030  
                               _I2C2_DO_SEND_ADR_WRITE 1874  
                         ?i2_I2C2_MasterClearCountFlag 0030  
                            _I2C2_MasterClearCountFlag 1CE4  
                  __end_ofi2_I2C2_MasterIsCountFlagSet 1ADE  
                          i2_I2C2_MasterIsCountFlagSet 1AC8  
                   modbus_read_holding_registers_rsp@i 038C  
                      __end_ofi2_I2C2_MasterGetCounter 1CF6  
                           ??_modbus_serial_send_start 0100  
                                         _uart1RxCount 0029  
                                         _uart2RxCount 0025  
                                             __Hrparam 0000  
                    __size_of_I2C2_CallbackReturnReset 000E  
                            ?_I2C2_CallbackReturnReset 003C  
                                             __Lrparam 0000  
                                             _TimeOutt 00A4  
                             __size_ofi2_I2C2_DO_RESET 0010  
                                   fp_i2_I2C2_DO_RESET 0000  
          __end_of_modbus_write_multiple_registers_rsp 15BC  
         __size_of_modbus_write_multiple_registers_rsp 0038  
                ??_modbus_write_multiple_registers_rsp 0100  
                 ?_modbus_write_multiple_registers_rsp 0387  
                  _modbus_write_multiple_registers_rsp 1584  
                   __size_of_I2C2_MasterDisableRestart 0006  
                              ??_OSCILLATOR_Initialize 00FF  
                                     _lenRFSettingData 000B  
                           ?_I2C2_MasterDisableRestart 0030  
                          __size_of_modbus_timeout_now 0068  
                       __size_of_modbus_enable_timeout 001E  
                                     __size_of___awdiv 00E4  
                        __end_of_modbus_enable_timeout 18B2  
                                      ?_I2C2_MasterFsm 0030  
                                      ?_I2C2_MasterIsr 0030  
                             fp__I2C2_DO_BUS_COLLISION 0000  
                     __size_of_I2C2_MasterIsTxBufEmpty 0016  
                      fp_i2_I2C2_DO_SEND_RESTART_WRITE 0000  
                   __end_of_I2C2_DO_SEND_RESTART_WRITE 1B88  
                        ?i2_I2C2_DO_SEND_RESTART_WRITE 0030  
                           _I2C2_DO_SEND_RESTART_WRITE 1B7A  
                  _I2C2_DO_SEND_RESTART_READ$intlevel1 1970  
                         fp__I2C2_DO_SEND_RESTART_READ 0000  
                            fp_i2_I2C2_DO_ADDRESS_NACK 0000  
                                i2_I2C2_MasterResetBus 1C62  
                     __size_ofi1_modbus_enable_timeout 001A  
                                  modbus_serial_putc@c 00FF  
                                           _ANSELAbits 003A40  
                                           _ANSELBbits 003A50  
                          ?i2_I2C2_MasterIsNackFlagSet 0030  
                             _I2C2_MasterIsNackFlagSet 1A18  
                 __size_of_UART1_SetRxInterruptHandler 000A  
          modbus_write_single_register_rsp@reg_address 0387  
                                          _rf_add_high 00EE  
                                           _T0CON0bits 003FB8  
                      ??_INTERRUPT_InterruptManagerLow 0044  
                         I2C2_MasterSetCounter@counter 003C  
                                         _I2C1CON0bits 003D73  
                                         _I2C1CON1bits 003D74  
                      __end_ofi2_I2C2_DO_BUS_COLLISION 1010  
                               _modbus_timeout_enabled 001C  
                                             __pivt0x8 0008  
                                         _I2C2CON0bits 003D5D  
                                         _I2C2CON1bits 003D5E  
                                             __ptext10 1456  
                                             __ptext11 1152  
                                             __ptext20 11BA  
                                             __ptext12 1894  
                                             __ptext21 1994  
                                             __ptext13 1854  
                                             __ptext30 1BE0  
                                             __ptext22 1C7E  
                                             __ptext14 17C8  
                                             __ptext31 1BEA  
                                             __ptext23 14DA  
                                             __ptext15 0E2C  
                                             __ptext40 07C4  
                                             __ptext32 0B12  
                                             __ptext24 053C  
                                             __ptext16 1C76  
                                             __ptext41 1936  
                                             __ptext33 1BF4  
                                             __ptext25 140C  
                                             __ptext17 1726  
                                             __ptext50 1AF2  
                                             __ptext42 1ADE  
                                             __ptext34 1BFE  
                                             __ptext26 1810  
                                             __ptext18 197E  
                                             __ptext51 12C8  
                                             __ptext43 1832  
                                             __ptext35 1C08  
                                             __ptext27 0C2A  
                                             __ptext19 162C  
                                             __ptext60 194E  
                                             __ptext52 1D42  
                                             __ptext44 0276  
                                             __ptext36 1C12  
                                             __ptext28 1BCC  
                                             __ptext61 1B18  
                                             __ptext53 1B3C  
                                             __ptext45 1750  
                                             __ptext37 149A  
                                             __ptext29 1BD6  
                                             __ptext70 1874  
                                             __ptext62 1694  
                                             __ptext54 107E  
                                             __ptext46 1C26  
                                             __ptext38 1C1C  
                                             __ptext71 15F4  
                                             __ptext63 1B6C  
                                             __ptext55 18E8  
                                             __ptext47 0456  
                                             __ptext39 17EC  
                                             __ptext80 19EC  
                                             __ptext72 19AA  
                                             __ptext64 1B7A  
                                             __ptext56 0D2E  
                                             __ptext48 18CE  
                                             __ptext81 1CC6  
                                             __ptext73 1B2A  
                                             __ptext65 1966  
                                             __ptext57 0F22  
                                             __ptext49 1662  
                                             __ptext90 131C  
                                             __ptext82 1C86  
                                             __ptext74 19C0  
                                             __ptext66 087A  
                                             __ptext58 1902  
                                             __ptext91 1A02  
                                             __ptext83 1C30  
                                             __ptext75 19D6  
                                             __ptext67 0BA2  
                                             __ptext59 1B06  
                                             __ptext92 1A18  
                                             __ptext84 1C3A  
                                             __ptext76 1CAE  
                                             __ptext68 0928  
                                             __ptext93 1A2E  
                                             __ptext85 1CCC  
                                             __ptext77 1CB4  
                                             __ptext69 0020  
                                             __ptext94 1CD8  
                                             __ptext86 1CD2  
                                             __ptext78 1CBA  
                                             __ptext95 1CDE  
                                             __ptext87 1C44  
                                             __ptext79 1CC0  
                                             __ptext96 1CE4  
                                             __ptext88 1B88  
                                             __ptext97 06FC  
                                             __ptext89 1B96  
                                             __ptext98 1CEA  
                                             __ptext99 10E8  
                                __size_of_I2C2_DO_IDLE 0016  
                           ??_I2C2_MasterClearNackFlag 003C  
                               fp_i2_I2C2_DO_BUS_ERROR 0000  
                                           _U1CON0bits 003DF2  
                                             _buf_test 0122  
                                       ?_I2C2_DO_RESET 0030  
                       __size_of_UART1_SetErrorHandler 000A  
                            ??_modbusReceivedDataRS485 0032  
                        __end_of_UART1_SetErrorHandler 1C1C  
                                 fp__UART2_Receive_ISR 0000  
                         __end_of_I2C2_DO_ADDRESS_NACK 0F9A  
                                           _U2CON0bits 003DDA  
                                ??_UART2_RxDataHandler 003F  
                        __size_of_modbus_check_timeout 0044  
                                             _len_lora 0022  
                                             _readData 002E  
                                        __size_of_main 007A  
           modbus_write_multiple_registers_rsp@address 038B  
                     _UART2_DefaultFramingErrorHandler 000000  
                                          ?_I2C2_DO_RX 0030  
                                          ?_I2C2_DO_TX 0030  
                                             _rf_fixed 00E3  
                 __end_of_TMR0_DefaultInterruptHandler 1D44  
                __size_of_TMR0_DefaultInterruptHandler 0002  
                         _TMR0_DefaultInterruptHandler 1D42  
                                             _rf_reply 00E2  
                             ?i2_modbus_enable_timeout 0030  
                   __end_ofi2_I2C2_MasterIsStopFlagSet 1AB2  
                           i2_I2C2_MasterIsStopFlagSet 1A9C  
                         __end_of_modbus_exception_rsp 17EC  
                                          _rf_key_high 00DD  
                          ??i2_I2C2_CallbackReturnStop 0032  
                        ??i2_I2C2_MasterClearCountFlag 0030  
                                         _tick_out_i2c 00C6  
                                 fp__I2C2_DO_BUS_ERROR 0000  
                               fp_i2_I2C2_DO_SEND_STOP 0000  
                            _UART1_OverrunErrorHandler 01FE  
         UART2_SetOverrunErrorHandler@interruptHandler 02FA  
         UART1_SetOverrunErrorHandler@interruptHandler 02FA  
                  __end_ofi2_I2C2_DO_SEND_RESTART_READ 1BC0  
                          i2_I2C2_DO_SEND_RESTART_READ 1BB2  
                              ?i2_I2C2_DO_ADDRESS_NACK 0030  
                                          _modbus_init 1854  
                                             isa$xinst 000000  
                                          _modbus_stop 00D1  
                           ??_I2C2_MasterClearStopFlag 003C  
                                      _modbus_calc_crc 162C  
                                          _rf_time_wor 00DF  
                              i2modbus_calc_crc@uIndex 0031  
                    __end_of_I2C2_MasterDisableRestart 1CD8  
                                  _flagCheckRFSettings 00F0  
                     __end_of_I2C2_ClearInterruptFlags 136E  
                                             _typeData 00A8  
                          _I2C2_DO_BUS_ERROR$intlevel1 18F2  
                                          _UART1_Write 11BA  
                                      _modbus_baudrate 00D3  
                                          _UART2_Write 140C  
                                i1modbus_calc_crc@data 003C  
                                         _I2C2_DO_IDLE 19AA  
                                          _smSettingRF 00D8  
                                          _inputstring 0154  
          I2C2_MasterSendTxData@i2c2_master$F3095@data 003C  
        i2I2C2_MasterSendTxData@i2c2_master$F3095@data 0030  
                                 fp__I2C2_DO_SEND_STOP 0000  
                       ??_UART1_SetFramingErrorHandler 00FF  
                      __end_ofi2_I2C2_MasterSetCounter 1C62  
                            modbus_exception_rsp@error 0388  
               modbus_write_multiple_coils_rsp@address 038B  
                          __end_of_UART1_RxDataHandler 1C76  
                                          _uart1RxHead 002B  
                                          _uart2RxHead 0027  
                                      ??_TMR0_CallBack 003C  
                                          _uart1RxTail 002A  
                                          _NVMCON1bits 0039E5  
                              i2I2C2_DO_RX@retFsmState 0032  
                                          _uart2RxTail 0026  
                      __size_of_I2C2_MasterIsRxBufFull 0016  
                              __size_ofi2_I2C2_DO_IDLE 000C  
                                    fp_i2_I2C2_DO_IDLE 0000  
                                 _I2C2_DO_RX$intlevel1 0932  
                       __size_of_modbus_read_coils_rsp 0056  
                               ??_INTERRUPT_Initialize 00FF  
                        __end_of_modbus_read_coils_rsp 12C8  
                               ??_I2C2_DO_SEND_RESTART 003C  
                                    ?i2_I2C2_DO_RX_ACK 0030  
                         __size_ofi2_I2C2_DO_BUS_ERROR 0010  
                                    ?i2_I2C2_DO_TX_ACK 0030  
                   __size_ofi2_I2C2_DO_RX_NACK_RESTART 0008  
                 __end_of_UART2_SetOverrunErrorHandler 1BE0  
                __size_of_UART2_SetOverrunErrorHandler 000A  
                         _UART2_SetOverrunErrorHandler 1BD6  
                           ?i2_I2C2_DO_RX_NACK_RESTART 0030  
                              _I2C2_DO_RX_NACK_RESTART 1B06  
                           fp__I2C2_DO_RX_NACK_RESTART 0000  
                                             intlevel1 0000  
                                             intlevel2 0000  
                                        _setting_start 000E  
                                   ??i2_I2C2_DO_RX_ACK 0030  
                               ?i2_I2C2_MasterClearIrq 0030  
                                   ??i2_I2C2_DO_TX_ACK 0030  
                   __end_ofi2_I2C2_CallbackReturnReset 1D38  
                           i2_I2C2_CallbackReturnReset 1D34  
                            fp_i2_I2C2_DO_RX_NACK_STOP 0000  
                                          make16@value 0385  
                              ?_PIN_MANAGER_Initialize 0030  
                                         _time_out_i2c 00B8  
                       __size_of_UART2_SetErrorHandler 000A  
                        __end_of_UART2_SetErrorHandler 1BF4  
                             UART1_Write_String@F17140 017C  
                       __end_ofi2_I2C2_DO_ADDRESS_NACK 107E  
                         __size_ofi2_I2C2_DO_SEND_STOP 0028  
                                  _uart1RxStatusBuffer 01CC  
                      fp__TMR0_DefaultInterruptHandler 0000  
                        ?_TMR0_DefaultInterruptHandler 0030  
                                       _modbus_address 00FC  
                                     ??_I2C2_DO_RX_ACK 003C  
         UART2_SetFramingErrorHandler@interruptHandler 02FA  
         UART1_SetFramingErrorHandler@interruptHandler 02FA  
                      __end_of_modbusReceivedDataRS485 0456  
                                         _timer_modbus 0003  
                                     ??_I2C2_DO_TX_ACK 003C  
                         __end_of_I2C2_DO_RX_NACK_STOP 1966  
                                    ?_UART1_is_tx_done 0030  
                               ?i2_I2C2_MasterResetBus 0030  
               __end_of_INTERRUPT_InterruptManagerHigh 07C4  
              __size_of_INTERRUPT_InterruptManagerHigh 00C8  
                       _INTERRUPT_InterruptManagerHigh 06FC  
                                   ??_UART1_is_tx_done 00FF  
                                    ??i2_I2C2_DO_RESET 0030  
                           _I2C2_DO_TX_EMPTY$intlevel1 0BAC  
                      modbus_serial_send_stop@crc_high 0385  
                 __size_ofi2_I2C2_MasterClearCountFlag 0006  
                   __size_of_I2C2_MasterIsCountFlagSet 0016  
                            i2_I2C2_CallbackReturnStop 1D38  
                                  __size_of_I2C2_DO_RX 00A8  
                                  __size_of_I2C2_DO_TX 0130  
                           ?_I2C2_MasterIsCountFlagSet 0030  
                                      _TMR0_Initialize 149A  
                                         _test_receive 0011  
                       ??i2_I2C2_DO_SEND_RESTART_WRITE 0030  
                                       _modbus_timeout 009C  
                     __size_ofi2_I2C2_MasterGetCounter 0006  
                         __size_ofi2_I2C2_MasterIsNack 0016  
              modbus_write_single_register_rsp@address 038B  
                            __size_of_UART1_Initialize 0090  
                                _I2C2_MasterGetCounter 1CAE  
                              ?i2_I2C2_DO_RX_NACK_STOP 0030  
                                      ??_I2C2_DO_RESET 003C  
                                 _I2C2_DO_TX$intlevel1 002A  
                                I2C2_DO_TX@retFsmState 0043  
                                      fp_i2_I2C2_DO_RX 0000  
                                      fp_i2_I2C2_DO_TX 0000  
                __end_of_INTERRUPT_InterruptManagerLow 036E  
               __size_of_INTERRUPT_InterruptManagerLow 00F8  
                        _INTERRUPT_InterruptManagerLow 0276  
                       __end_of_PIN_MANAGER_Initialize 087A  
                      __end_ofi2_modbus_enable_timeout 1936  
                    __end_ofi2_I2C2_DO_RX_NACK_RESTART 1C96  
                     __end_of_I2C2_MasterIsStopFlagSet 1A18  
                             __size_of_I2C2_Initialize 0022  
                        ?_UART2_SetOverrunErrorHandler 02FA  
                                  _I2C2_MasterClearIrq 1C86  
                     __end_of_modbus_serial_send_start 1750  
                          __size_ofi2_I2C2_DO_RX_EMPTY 00A4  
                             _I2C2_DO_RX_ACK$intlevel1 1B22  
                         ?_UART2_SetRxInterruptHandler 02FA  
                                   _bufferLoRaSendData 0500  
                            fp__I2C2_DO_SEND_ADR_WRITE 0000  
                          __size_ofi2_I2C2_DO_TX_EMPTY 007E  
                    __size_ofi2_I2C2_MasterIsRxBufFull 0016  
                                       _finish_receive 0010  
                              __end_of_modbus_calc_crc 1662  
                            ?i2_I2C2_MasterIsRxBufFull 0030  
                               _I2C2_MasterIsRxBufFull 19EC  
                             _I2C2_MasterIsr$intlevel1 1B46  
                            __size_of_UART2_Initialize 0084  
                                _flagInstallRFSettings 00F1  
                           ??_I2C2_MasterEnableRestart 003C  
